 PhysX3Common_x86

 Timestamp is 56982acb (Thu Jan 14 23:10:03 2016)

 Preferred load address is 10000000

 Start         Length     Name                   Class
 0001:00000000 0000025fH .text                   CODE
 0001:00000260 000053d4H .text$di                CODE
 0001:00005640 001652b1H .text$mn                CODE
 0001:0016a900 0000000bH .text$yd                CODE
 0002:00000000 000001fcH .idata$5                DATA
 0002:000001fc 00000004H .00cfg                  DATA
 0002:00000200 00000004H .CRT$XCA                DATA
 0002:00000204 000009ccH .CRT$XCU                DATA
 0002:00000bd0 00000004H .CRT$XCZ                DATA
 0002:00000bd4 00000004H .CRT$XIA                DATA
 0002:00000bd8 0000000cH .CRT$XIC                DATA
 0002:00000be4 00000004H .CRT$XIZ                DATA
 0002:00000be8 00000004H .CRT$XPA                DATA
 0002:00000bec 00000008H .CRT$XPX                DATA
 0002:00000bf4 00000004H .CRT$XPXA               DATA
 0002:00000bf8 00000004H .CRT$XPZ                DATA
 0002:00000bfc 00000004H .CRT$XTA                DATA
 0002:00000c00 00000004H .CRT$XTZ                DATA
 0002:00000c10 0000cac4H .rdata                  DATA
 0002:0000d6d4 000002f0H .rdata$r                DATA
 0002:0000d9d0 00000010H .rdata$sxdata           DATA
 0002:0000d9e0 00000010H .rdata$zETW0            DATA
 0002:0000d9f0 00000077H .rdata$zETW1            DATA
 0002:0000da67 0000002cH .rdata$zETW2            DATA
 0002:0000da93 00000001H .rdata$zETW9            DATA
 0002:0000da94 000003d0H .rdata$zzzdbg           DATA
 0002:0000de64 00000004H .rtc$IAA                DATA
 0002:0000de68 00000004H .rtc$IZZ                DATA
 0002:0000de6c 00000004H .rtc$TAA                DATA
 0002:0000de70 00000004H .rtc$TZZ                DATA
 0002:0000de78 000007f4H .xdata$x                DATA
 0002:0000e670 00012abbH .edata                  DATA
 0002:0002112c 0000003cH .idata$2                DATA
 0002:00021168 00000014H .idata$3                DATA
 0002:0002117c 000001fcH .idata$4                DATA
 0002:00021378 000007dcH .idata$6                DATA
 0003:00000000 000013a0H .data                   DATA
 0003:000013a0 000003dfH .data$r                 DATA
 0003:00001780 000033a0H .bss                    DATA
 0004:00000000 000000dcH .gfids$x                DATA
 0004:000000dc 000000acH .gfids$y                DATA
 0005:00000000 000000a0H .rsrc$01                DATA
 0005:000000a0 000004b8H .rsrc$02                DATA

  Address         Publics by Value              Rva+Base       Lib:Object

 0000:00000000       ___guard_iat_count         00000000     <absolute>
 0000:00000000       ___guard_longjmp_table     00000000     <absolute>
 0000:00000000       ___guard_iat_table         00000000     <absolute>
 0000:00000000       ___guard_fids_table        00000000     <absolute>
 0000:00000000       __except_list              00000000     <absolute>
 0000:00000000       ___guard_fids_count        00000000     <absolute>
 0000:00000000       ___guard_longjmp_count     00000000     <absolute>
 0000:00000004       ___safe_se_handler_count   00000004     <absolute>
 0000:00000100       ___guard_flags             00000100     <absolute>
 0000:00000000       ___ImageBase               10000000     <linker-defined>
 0001:00000000       ?TraceLoggingRegister@__vcrt_trace_logging_provider@@YAJPBU_TlgProvider_t@1@PBU_GUID@@P6GX1KE_K2PAU_EVENT_FILTER_DESCRIPTOR@@PAX@Z4@Z 10001000 f i libvcruntime:telemetry.obj
 0001:0000005d       ?TraceLoggingSetInformation@__vcrt_trace_logging_provider@@YAJPBU_TlgProvider_t@1@W4_EVENT_INFO_CLASS@@PAXK@Z 1000105d f i libvcruntime:telemetry.obj
 0001:00000088       ?TraceLoggingUnregister@__vcrt_trace_logging_provider@@YAXPBU_TlgProvider_t@1@@Z 10001088 f i libvcruntime:telemetry.obj
 0001:000000a7       ?_TlgCreateSz@__vcrt_trace_logging_provider@@YAXPAU_EVENT_DATA_DESCRIPTOR@@PBD@Z 100010a7 f i libvcruntime:telemetry.obj
 0001:000000df       ?_TlgCreateWsz@__vcrt_trace_logging_provider@@YAXPAU_EVENT_DATA_DESCRIPTOR@@PB_W@Z 100010df f i libvcruntime:telemetry.obj
 0001:00000123       ?_TlgEnableCallback@__vcrt_trace_logging_provider@@YGXPBU_GUID@@KE_K1PAU_EVENT_FILTER_DESCRIPTOR@@PAX@Z 10001123 f i libvcruntime:telemetry.obj
 0001:0000019b       ?_TlgKeywordOn@__vcrt_trace_logging_provider@@YAEPBU_TlgProvider_t@1@_K@Z 1000119b f i libvcruntime:telemetry.obj
 0001:000001d7       ?_TlgWrite@__vcrt_trace_logging_provider@@YAJPBU_TlgProvider_t@1@PBXPBU_GUID@@2IPAU_EVENT_DATA_DESCRIPTOR@@@Z 100011d7 f i libvcruntime:telemetry.obj
 0001:00005640       ?atomicExchange@shdfnd@physx@@YAHPCHH@Z 10006640 f   PsWindowsAtomic.obj
 0001:00005650       ?atomicCompareExchange@shdfnd@physx@@YAHPCHHH@Z 10006650 f   PsWindowsAtomic.obj
 0001:00005670       ?atomicCompareExchangePointer@shdfnd@physx@@YAPAXPAPCXPAX1@Z 10006670 f   PsWindowsAtomic.obj
 0001:00005690       ?atomicIncrement@shdfnd@physx@@YAHPCH@Z 10006690 f   PsWindowsAtomic.obj
 0001:000056b0       ?atomicDecrement@shdfnd@physx@@YAHPCH@Z 100066b0 f   PsWindowsAtomic.obj
 0001:000056c0       ?atomicAdd@shdfnd@physx@@YAHPCHH@Z 100066c0 f   PsWindowsAtomic.obj
 0001:000056f0       ?atomicMax@shdfnd@physx@@YAHPCHH@Z 100066f0 f   PsWindowsAtomic.obj
 0001:00005720       ?getCpuId@Cpu@shdfnd@physx@@SAEXZ 10006720 f   PsWindowsCpu.obj
 0001:00005760       ??0FPUGuard@shdfnd@physx@@QAE@XZ 10006760 f   PsWindowsFPU.obj
 0001:000057a0       ??1FPUGuard@shdfnd@physx@@QAE@XZ 100067a0 f   PsWindowsFPU.obj
 0001:000057e0       ?enableFPExceptions@shdfnd@physx@@YAXXZ 100067e0 f   PsWindowsFPU.obj
 0001:00005800       ?disableFPExceptions@shdfnd@physx@@YAXXZ 10006800 f   PsWindowsFPU.obj
 0001:00005820       ??4FPUGuard@shdfnd@physx@@QAEAAV012@ABV012@@Z 10006820 f i PsWindowsFPU.obj
 0001:00005840       ??0MemoryMappedFile@shdfnd@physx@@QAE@PBDI@Z 10006840 f   PsWindowsMemoryMappedFile.obj
 0001:000058c0       ??1MemoryMappedFile@shdfnd@physx@@QAE@XZ 100068c0 f   PsWindowsMemoryMappedFile.obj
 0001:00005900       ?getBaseAddress@MemoryMappedFile@shdfnd@physx@@QAEPAXXZ 10006900 f   PsWindowsMemoryMappedFile.obj
 0001:00005910       ??0Allocator@shdfnd@physx@@QAE@PBD@Z 10006910 f i PsWindowsMemoryMappedFile.obj
 0001:00005920       ??0PxFoundation@physx@@QAE@ABV01@@Z 10006920 f i PsWindowsMemoryMappedFile.obj
 0001:00005930       ??0PxFoundation@physx@@QAE@XZ 10006930 f i PsWindowsMemoryMappedFile.obj
 0001:00005940       ??1PxFoundation@physx@@MAE@XZ 10006940 f i PsWindowsMemoryMappedFile.obj
 0001:00005950       ??4Allocator@shdfnd@physx@@QAEAAV012@$$QAV012@@Z 10006950 f i PsWindowsMemoryMappedFile.obj
 0001:00005960       ??4Allocator@shdfnd@physx@@QAEAAV012@ABV012@@Z 10006960 f i PsWindowsMemoryMappedFile.obj
 0001:00005970       ??4ErrorHandler@shdfnd@physx@@QAEAAV012@ABV012@@Z 10006970 f i PsWindowsMemoryMappedFile.obj
 0001:00005990       ??4MutexImpl@shdfnd@physx@@QAEAAV012@ABV012@@Z 10006990 f i PsWindowsMemoryMappedFile.obj
 0001:000059a0       ??4PAUtils@shdfnd@physx@@QAEAAV012@ABV012@@Z 100069a0 f i PsWindowsMemoryMappedFile.obj
 0001:000059b0       ??4PxFoundation@physx@@QAEAAV01@ABV01@@Z 100069b0 f i PsWindowsMemoryMappedFile.obj
 0001:000059c0       ??_EPxFoundation@physx@@MAEPAXI@Z 100069c0 f i PsWindowsMemoryMappedFile.obj
 0001:00005a30       ??_FAllocator@shdfnd@physx@@QAEXXZ 10006a30 f i PsWindowsMemoryMappedFile.obj
 0001:00005a40       ??_GPxFoundation@physx@@MAEPAXI@Z 10006a40 f i PsWindowsMemoryMappedFile.obj
 0001:00005a70       ??_I@YGXPAXIIP6EX0@Z@Z     10006a70 f i PsWindowsMemoryMappedFile.obj
 0001:00005ab0       ?getAllocator@Foundation@shdfnd@physx@@UBEAAVPxBroadcastingAllocator@3@XZ 10006ab0 f i PsWindowsMemoryMappedFile.obj
 0001:00005ac0       ?getCallbackCount@ErrorHandler@shdfnd@physx@@QBEIXZ 10006ac0 f i PsWindowsMemoryMappedFile.obj
 0001:00005ad0       ?getCheckedAllocator@Foundation@shdfnd@physx@@QAEAAVPxAllocatorCallback@3@XZ 10006ad0 f i PsWindowsMemoryMappedFile.obj
 0001:00005ae0       ?getErrorCallback@ErrorHandler@shdfnd@physx@@QBEPAVPxErrorCallback@3@H@Z 10006ae0 f i PsWindowsMemoryMappedFile.obj
 0001:00005af0       ?getErrorHandler@Foundation@shdfnd@physx@@QAEAAVErrorHandler@23@XZ 10006af0 f i PsWindowsMemoryMappedFile.obj
 0001:00005b00       ?getErrorMutex@Foundation@shdfnd@physx@@QAEAAV?$MutexT@V?$ReflectionAllocator@VMutexImpl@shdfnd@physx@@@shdfnd@physx@@@23@XZ 10006b00 f i PsWindowsMemoryMappedFile.obj
 0001:00005b10       ?getMaxCallbackNum@ErrorHandler@shdfnd@physx@@QBEIXZ 10006b10 f i PsWindowsMemoryMappedFile.obj
 0001:00005b20       ?getNamedAllocMap@Foundation@shdfnd@physx@@QAEAAV?$HashMap@PBVNamedAllocator@shdfnd@physx@@PBDU?$Hash@PBVNamedAllocator@shdfnd@physx@@@23@VNonTrackingAllocator@23@@23@XZ 10006b20 f i PsWindowsMemoryMappedFile.obj
 0001:00005b30       ?getNamedAllocMutex@Foundation@shdfnd@physx@@QAEAAV?$MutexT@V?$ReflectionAllocator@VMutexImpl@shdfnd@physx@@@shdfnd@physx@@@23@XZ 10006b30 f i PsWindowsMemoryMappedFile.obj
 0001:00005b40       ?getPAUtils@Foundation@shdfnd@physx@@QAEAAVPAUtils@23@XZ 10006b40 f i PsWindowsMemoryMappedFile.obj
 0001:00005b50       ?getReportAllocationNames@Foundation@shdfnd@physx@@UBE_NXZ 10006b50 f i PsWindowsMemoryMappedFile.obj
 0001:00005b60       ?getTempAllocFreeTable@Foundation@shdfnd@physx@@QAEAAV?$Array@PATTempAllocatorChunk@shdfnd@physx@@VAllocator@23@@23@XZ 10006b60 f i PsWindowsMemoryMappedFile.obj
 0001:00005b70       ?getTempAllocMutex@Foundation@shdfnd@physx@@QAEAAV?$MutexT@V?$ReflectionAllocator@VMutexImpl@shdfnd@physx@@@shdfnd@physx@@@23@XZ 10006b70 f i PsWindowsMemoryMappedFile.obj
 0001:00005b80       ?setReportAllocationNames@Foundation@shdfnd@physx@@UAEX_N@Z 10006b80 f i PsWindowsMemoryMappedFile.obj
 0001:00005b90       ??0PsModuleUpdateLoader@shdfnd@physx@@QAE@PBD@Z 10006b90 f   PsWindowsModuleUpdateLoader.obj
 0001:00005bd0       ??1PsModuleUpdateLoader@shdfnd@physx@@QAE@XZ 10006bd0 f   PsWindowsModuleUpdateLoader.obj
 0001:00005bf0       ?LoadModule@PsModuleUpdateLoader@shdfnd@physx@@QAEPAUHINSTANCE__@@PBD0@Z 10006bf0 f   PsWindowsModuleUpdateLoader.obj
 0001:00005c20       ??4PsModuleUpdateLoader@shdfnd@physx@@QAEAAV012@ABV012@@Z 10006c20 f i PsWindowsModuleUpdateLoader.obj
 0001:00005c40       ??0MutexImpl@shdfnd@physx@@QAE@XZ 10006c40 f   PsWindowsMutex.obj
 0001:00005c60       ??1MutexImpl@shdfnd@physx@@QAE@XZ 10006c60 f   PsWindowsMutex.obj
 0001:00005c70       ?lock@MutexImpl@shdfnd@physx@@QAEXXZ 10006c70 f   PsWindowsMutex.obj
 0001:00005c80       ?trylock@MutexImpl@shdfnd@physx@@QAE_NXZ 10006c80 f   PsWindowsMutex.obj
 0001:00005c90       ?unlock@MutexImpl@shdfnd@physx@@QAEXXZ 10006c90 f   PsWindowsMutex.obj
 0001:00005ca0       ?getSize@MutexImpl@shdfnd@physx@@SAABIXZ 10006ca0 f   PsWindowsMutex.obj
 0001:00005cb0       ??0ReadWriteLock@shdfnd@physx@@QAE@XZ 10006cb0 f   PsWindowsMutex.obj
 0001:00005cf0       ??1ReadWriteLock@shdfnd@physx@@QAE@XZ 10006cf0 f   PsWindowsMutex.obj
 0001:00005d30       ?lockReader@ReadWriteLock@shdfnd@physx@@QAEXXZ 10006d30 f   PsWindowsMutex.obj
 0001:00005d60       ?lockWriter@ReadWriteLock@shdfnd@physx@@QAEXXZ 10006d60 f   PsWindowsMutex.obj
 0001:00005d80       ?unlockReader@ReadWriteLock@shdfnd@physx@@QAEXXZ 10006d80 f   PsWindowsMutex.obj
 0001:00005d90       ?unlockWriter@ReadWriteLock@shdfnd@physx@@QAEXXZ 10006d90 f   PsWindowsMutex.obj
 0001:00005da0       ??0?$MutexT@V?$ReflectionAllocator@VMutexImpl@shdfnd@physx@@@shdfnd@physx@@@shdfnd@physx@@QAE@ABV?$ReflectionAllocator@VMutexImpl@shdfnd@physx@@@12@@Z 10006da0 f i PsWindowsMutex.obj
 0001:00005e10       ??4ThreadImpl@shdfnd@physx@@QAEAAV012@ABV012@@Z 10006e10 f i PsWindowsMutex.obj
 0001:00005e20       ?__empty_global_delete@@YAXPAX@Z 10006e20 f i PsWindowsMutex.obj
 0001:00005e30       ?__empty_global_delete@@YAXPAXI@Z 10006e30 f i PsWindowsMutex.obj
 0001:00005e40       ??0PAUtils@shdfnd@physx@@QAE@XZ 10006e40 f   PsWindowsPAEventSrc.obj
 0001:00005e50       ??1PAUtils@shdfnd@physx@@QAE@XZ 10006e50 f   PsWindowsPAEventSrc.obj
 0001:00005ea0       ?isEnabled@PAUtils@shdfnd@physx@@QAE_NXZ 10006ea0 f   PsWindowsPAEventSrc.obj
 0001:00005ec0       ?isEventEnabled@PAUtils@shdfnd@physx@@QAE_NG@Z 10006ec0 f   PsWindowsPAEventSrc.obj
 0001:00005ef0       ?registerEvent@PAUtils@shdfnd@physx@@QAEGPBD@Z 10006ef0 f   PsWindowsPAEventSrc.obj
 0001:00005f80       ?startEvent@PAUtils@shdfnd@physx@@QAEXGG@Z 10006f80 f   PsWindowsPAEventSrc.obj
 0001:00006020       ?stopEvent@PAUtils@shdfnd@physx@@QAEXGG@Z 10007020 f   PsWindowsPAEventSrc.obj
 0001:000060c0       ?statEvent@PAUtils@shdfnd@physx@@QAEXGI@Z 100070c0 f   PsWindowsPAEventSrc.obj
 0001:00006100       ?statEvent@PAUtils@shdfnd@physx@@QAEXGII@Z 10007100 f   PsWindowsPAEventSrc.obj
 0001:00006130       ?debugEvent@PAUtils@shdfnd@physx@@QAEXGII@Z 10007130 f   PsWindowsPAEventSrc.obj
 0001:00006160       ?rawEvent@PAUtils@shdfnd@physx@@QAEXGIIE@Z 10007160 f   PsWindowsPAEventSrc.obj
 0001:00006190       ?rawEventWithTimestamp@PAUtils@shdfnd@physx@@QAE_NG_KIIE@Z 10007190 f   PsWindowsPAEventSrc.obj
 0001:000061c0       ?lock@PAUtils@shdfnd@physx@@QAE_NXZ 100071c0 f   PsWindowsPAEventSrc.obj
 0001:00006210       ?unlock@PAUtils@shdfnd@physx@@QAE_NXZ 10007210 f   PsWindowsPAEventSrc.obj
 0001:00006230       ??0ConnImpl@shdfnd@physx@@QAE@XZ 10007230 f   PsWindowsPAEventSrc.obj
 0001:00006390       ??1ConnImpl@shdfnd@physx@@QAE@XZ 10007390 f   PsWindowsPAEventSrc.obj
 0001:000063d0       ?GetProcID@ConnImpl@shdfnd@physx@@QAEEXZ 100073d0 f i PsWindowsPAEventSrc.obj
 0001:00006400       ?printFormatted@shdfnd@physx@@YAXPBDZZ 10007400 f   PsWindowsPrintString.obj
 0001:00006460       ?printString@shdfnd@physx@@YAXPBD@Z 10007460 f   PsWindowsPrintString.obj
 0001:00006490       ??$__vcrt_va_start_verify_argument_type@PBD@@YAXXZ 10007490 f i PsWindowsPrintString.obj
 0001:000064a0       ___local_stdio_printf_options 100074a0 f i PsWindowsPrintString.obj
 0001:000064b0       ??0SListImpl@shdfnd@physx@@QAE@XZ 100074b0 f   PsWindowsSList.obj
 0001:000064c0       ??1SListImpl@shdfnd@physx@@QAE@XZ 100074c0 f   PsWindowsSList.obj
 0001:000064d0       ?push@SListImpl@shdfnd@physx@@QAEXPAVSListEntry@23@@Z 100074d0 f   PsWindowsSList.obj
 0001:000064f0       ?pop@SListImpl@shdfnd@physx@@QAEPAVSListEntry@23@XZ 100074f0 f   PsWindowsSList.obj
 0001:00006500       ?flush@SListImpl@shdfnd@physx@@QAEPAVSListEntry@23@XZ 10007500 f   PsWindowsSList.obj
 0001:00006510       ?getSize@SListImpl@shdfnd@physx@@SAABIXZ 10007510 f   PsWindowsSList.obj
 0001:00006520       ??4SListImpl@shdfnd@physx@@QAEAAU012@ABU012@@Z 10007520 f i PsWindowsSList.obj
 0001:00006530       ??0Socket@shdfnd@physx@@QAE@_N@Z 10007530 f   PsWindowsSocket.obj
 0001:000065a0       ??1Socket@shdfnd@physx@@UAE@XZ 100075a0 f   PsWindowsSocket.obj
 0001:000065e0       ?connect@Socket@shdfnd@physx@@QAE_NPBDGI@Z 100075e0 f   PsWindowsSocket.obj
 0001:000065f0       ?listen@Socket@shdfnd@physx@@QAE_NGPAVConnection@123@@Z 100075f0 f   PsWindowsSocket.obj
 0001:00006600       ?disconnect@Socket@shdfnd@physx@@QAEXXZ 10007600 f   PsWindowsSocket.obj
 0001:00006610       ?isConnected@Socket@shdfnd@physx@@QBE_NXZ 10007610 f   PsWindowsSocket.obj
 0001:00006620       ?getHost@Socket@shdfnd@physx@@QBEPBDXZ 10007620 f   PsWindowsSocket.obj
 0001:00006630       ?getPort@Socket@shdfnd@physx@@QBEGXZ 10007630 f   PsWindowsSocket.obj
 0001:00006640       ?flush@Socket@shdfnd@physx@@QAE_NXZ 10007640 f   PsWindowsSocket.obj
 0001:00006660       ?write@Socket@shdfnd@physx@@QAEIPBEI@Z 10007660 f   PsWindowsSocket.obj
 0001:00006680       ?read@Socket@shdfnd@physx@@QAEIPAEI@Z 10007680 f   PsWindowsSocket.obj
 0001:000066a0       ?setBlocking@Socket@shdfnd@physx@@QAEX_N@Z 100076a0 f   PsWindowsSocket.obj
 0001:000066e0       ?isBlocking@Socket@shdfnd@physx@@QBE_NXZ 100076e0 f   PsWindowsSocket.obj
 0001:000066f0       ??0SocketImpl@shdfnd@physx@@QAE@XZ 100076f0 f   PsWindowsSocket.obj
 0001:00006760       ??1SocketImpl@shdfnd@physx@@UAE@XZ 10007760 f   PsWindowsSocket.obj
 0001:000067b0       ?connect@SocketImpl@shdfnd@physx@@QAE_NPBDGI@Z 100077b0 f   PsWindowsSocket.obj
 0001:000069c0       ?listen@SocketImpl@shdfnd@physx@@QAE_NGPAVConnection@Socket@23@@Z 100079c0 f   PsWindowsSocket.obj
 0001:00006a90       ?disconnect@SocketImpl@shdfnd@physx@@QAEXXZ 10007a90 f   PsWindowsSocket.obj
 0001:00006af0       ?setBlocking@SocketImpl@shdfnd@physx@@QAEX_N@Z 10007af0 f   PsWindowsSocket.obj
 0001:00006b20       ?write@SocketImpl@shdfnd@physx@@UAEIPBEI@Z 10007b20 f   PsWindowsSocket.obj
 0001:00006b80       ?flush@SocketImpl@shdfnd@physx@@UAE_NXZ 10007b80 f   PsWindowsSocket.obj
 0001:00006b90       ?read@SocketImpl@shdfnd@physx@@QAEIPAEI@Z 10007b90 f   PsWindowsSocket.obj
 0001:00006c40       ?execute@SocketImpl@shdfnd@physx@@UAEXXZ 10007c40 f   PsWindowsSocket.obj
 0001:00006c90       ??0BufferedSocketImpl@shdfnd@physx@@QAE@XZ 10007c90 f   PsWindowsSocket.obj
 0001:00006d10       ?flush@BufferedSocketImpl@shdfnd@physx@@UAE_NXZ 10007d10 f   PsWindowsSocket.obj
 0001:00006d90       ?write@BufferedSocketImpl@shdfnd@physx@@UAEIPBEI@Z 10007d90 f   PsWindowsSocket.obj
 0001:00006e40       ??0?$ThreadT@V?$ReflectionAllocator@VThreadImpl@shdfnd@physx@@@shdfnd@physx@@@shdfnd@physx@@QAE@ABV?$ReflectionAllocator@VThreadImpl@shdfnd@physx@@@12@@Z 10007e40 f i PsWindowsSocket.obj
 0001:00006ec0       ??0Socket@shdfnd@physx@@QAE@ABV012@@Z 10007ec0 f i PsWindowsSocket.obj
 0001:00006ee0       ??1?$ThreadT@V?$ReflectionAllocator@VThreadImpl@shdfnd@physx@@@shdfnd@physx@@@shdfnd@physx@@UAE@XZ 10007ee0 f i PsWindowsSocket.obj
 0001:00006f10       ??1BufferedSocketImpl@shdfnd@physx@@UAE@XZ 10007f10 f i PsWindowsSocket.obj
 0001:00006f60       ??1Runnable@shdfnd@physx@@UAE@XZ 10007f60 f i PsWindowsSocket.obj
 0001:00006f70       ??4Socket@shdfnd@physx@@QAEAAV012@ABV012@@Z 10007f70 f i PsWindowsSocket.obj
 0001:00006f90       ??_ESocket@shdfnd@physx@@UAEPAXI@Z 10007f90 f i PsWindowsSocket.obj
 0001:000070f0       ??_FSocket@shdfnd@physx@@QAEXXZ 100080f0 f i PsWindowsSocket.obj
 0001:00007140       ??_E?$ThreadT@V?$ReflectionAllocator@VThreadImpl@shdfnd@physx@@@shdfnd@physx@@@shdfnd@physx@@UAEPAXI@Z 10008140 f i PsWindowsSocket.obj
 0001:00007140       ??_G?$ThreadT@V?$ReflectionAllocator@VThreadImpl@shdfnd@physx@@@shdfnd@physx@@@shdfnd@physx@@UAEPAXI@Z 10008140 f i PsWindowsSocket.obj
 0001:000071a0       ??_EBufferedSocketImpl@shdfnd@physx@@UAEPAXI@Z 100081a0 f i PsWindowsSocket.obj
 0001:000071a0       ??_GBufferedSocketImpl@shdfnd@physx@@UAEPAXI@Z 100081a0 f i PsWindowsSocket.obj
 0001:00007220       ??_ERunnable@shdfnd@physx@@UAEPAXI@Z 10008220 f i PsWindowsSocket.obj
 0001:00007220       ??_GRunnable@shdfnd@physx@@UAEPAXI@Z 10008220 f i PsWindowsSocket.obj
 0001:00007250       ??_GSocket@shdfnd@physx@@UAEPAXI@Z 10008250 f i PsWindowsSocket.obj
 0001:000072c0       ??_ESocketImpl@shdfnd@physx@@UAEPAXI@Z 100082c0 f i PsWindowsSocket.obj
 0001:000072c0       ??_GSocketImpl@shdfnd@physx@@UAEPAXI@Z 100082c0 f i PsWindowsSocket.obj
 0001:00007330       ?__global_array_delete@@YAXPAX@Z 10008330 f i PsWindowsSocket.obj
 0001:00007340       ?__global_array_delete@@YAXPAXI@Z 10008340 f i PsWindowsSocket.obj
 0001:00007350       ?__global_delete@@YAXPAX@Z 10008350 f i PsWindowsSocket.obj
 0001:00007360       ?__global_delete@@YAXPAXI@Z 10008360 f i PsWindowsSocket.obj
 0001:00007370       ?execute@?$ThreadT@V?$ReflectionAllocator@VThreadImpl@shdfnd@physx@@@shdfnd@physx@@@shdfnd@physx@@UAEXXZ 10008370 f i PsWindowsSocket.obj
 0001:00007380       ?execute@Runnable@shdfnd@physx@@UAEXXZ 10008380 f i PsWindowsSocket.obj
 0001:00007390       ??0SyncImpl@shdfnd@physx@@QAE@XZ 10008390 f   PsWindowsSync.obj
 0001:000073b0       ??1SyncImpl@shdfnd@physx@@QAE@XZ 100083b0 f   PsWindowsSync.obj
 0001:000073c0       ?wait@SyncImpl@shdfnd@physx@@QAE_NI@Z 100083c0 f   PsWindowsSync.obj
 0001:000073f0       ?set@SyncImpl@shdfnd@physx@@QAEXXZ 100083f0 f   PsWindowsSync.obj
 0001:00007400       ?reset@SyncImpl@shdfnd@physx@@QAEXXZ 10008400 f   PsWindowsSync.obj
 0001:00007410       ?getSize@SyncImpl@shdfnd@physx@@SAABIXZ 10008410 f   PsWindowsSync.obj
 0001:00007420       ??4SyncImpl@shdfnd@physx@@QAEAAV012@ABV012@@Z 10008420 f i PsWindowsSync.obj
 0001:00007430       ?getDefaultStackSize@ThreadImpl@shdfnd@physx@@SAIXZ 10008430 f   PsWindowsThread.obj
 0001:00007440       ?getId@ThreadImpl@shdfnd@physx@@SAIXZ 10008440 f   PsWindowsThread.obj
 0001:00007450       ??0ThreadImpl@shdfnd@physx@@QAE@XZ 10008450 f   PsWindowsThread.obj
 0001:00007480       ??0ThreadImpl@shdfnd@physx@@QAE@P6APAXPAX@Z0@Z 10008480 f   PsWindowsThread.obj
 0001:000074f0       ??1ThreadImpl@shdfnd@physx@@QAE@XZ 100084f0 f   PsWindowsThread.obj
 0001:00007520       ?start@ThreadImpl@shdfnd@physx@@QAEXIPAVRunnable@23@@Z 10008520 f   PsWindowsThread.obj
 0001:00007590       ?kill@ThreadImpl@shdfnd@physx@@QAEXXZ 10008590 f   PsWindowsThread.obj
 0001:000075b0       ?signalQuit@ThreadImpl@shdfnd@physx@@QAEXXZ 100085b0 f   PsWindowsThread.obj
 0001:000075c0       ?waitForQuit@ThreadImpl@shdfnd@physx@@QAE_NXZ 100085c0 f   PsWindowsThread.obj
 0001:000075e0       ?quitIsSignalled@ThreadImpl@shdfnd@physx@@QAE_NXZ 100085e0 f   PsWindowsThread.obj
 0001:00007600       ?quit@ThreadImpl@shdfnd@physx@@QAEXXZ 10008600 f   PsWindowsThread.obj
 0001:00007610       ?setAffinityMask@ThreadImpl@shdfnd@physx@@QAEII@Z 10008610 f   PsWindowsThread.obj
 0001:00007640       ?getPriority@ThreadImpl@shdfnd@physx@@SA?AW4Enum@ThreadPriority@23@I@Z 10008640 f   PsWindowsThread.obj
 0001:00007690       ?setPriority@ThreadImpl@shdfnd@physx@@QAEXW4Enum@ThreadPriority@23@@Z 10008690 f   PsWindowsThread.obj
 0001:00007700       ?setName@ThreadImpl@shdfnd@physx@@QAEXPBD@Z 10008700 f   PsWindowsThread.obj
 0001:00007780       ?sleep@ThreadImpl@shdfnd@physx@@SAXI@Z 10008780 f   PsWindowsThread.obj
 0001:00007790       ?yield@ThreadImpl@shdfnd@physx@@SAXXZ 10008790 f   PsWindowsThread.obj
 0001:000077a0       ?getNbPhysicalCores@ThreadImpl@shdfnd@physx@@SAIXZ 100087a0 f   PsWindowsThread.obj
 0001:00007870       ?getSize@ThreadImpl@shdfnd@physx@@SAABIXZ 10008870 f   PsWindowsThread.obj
 0001:00007880       ?TlsAlloc@shdfnd@physx@@YAIXZ 10008880 f   PsWindowsThread.obj
 0001:00007890       ?TlsFree@shdfnd@physx@@YAXI@Z 10008890 f   PsWindowsThread.obj
 0001:000078a0       ?TlsGet@shdfnd@physx@@YAPAXI@Z 100088a0 f   PsWindowsThread.obj
 0001:000078b0       ?TlsSet@shdfnd@physx@@YAIIPAX@Z 100088b0 f   PsWindowsThread.obj
 0001:00007900       ?getBootCounterFrequency@Time@shdfnd@physx@@SAABUCounterFrequencyToTensOfNanos@23@XZ 10008900 f   PsWindowsTime.obj
 0001:00007910       ?getCounterFrequency@Time@shdfnd@physx@@SA?AUCounterFrequencyToTensOfNanos@23@XZ 10008910 f   PsWindowsTime.obj
 0001:00007940       ?getCurrentCounterValue@Time@shdfnd@physx@@SA_KXZ 10008940 f   PsWindowsTime.obj
 0001:00007960       ??0Time@shdfnd@physx@@QAE@XZ 10008960 f   PsWindowsTime.obj
 0001:000079a0       ?getElapsedSeconds@Time@shdfnd@physx@@QAENXZ 100089a0 f   PsWindowsTime.obj
 0001:000079f0       ?peekElapsedSeconds@Time@shdfnd@physx@@QAENXZ 100089f0 f   PsWindowsTime.obj
 0001:00007a30       ?getLastTime@Time@shdfnd@physx@@QBENXZ 10008a30 f   PsWindowsTime.obj
 0001:00007a60       ??4Time@shdfnd@physx@@QAEAAV012@$$QAV012@@Z 10008a60 f i PsWindowsTime.obj
 0001:00007a80       ??4Time@shdfnd@physx@@QAEAAV012@ABV012@@Z 10008a80 f i PsWindowsTime.obj
 0001:00007aa0       ?getCurrentTimeInTensOfNanoSeconds@Time@shdfnd@physx@@SA_KXZ 10008aa0 f i PsWindowsTime.obj
 0001:00007ae0       ?allocate@Allocator@shdfnd@physx@@QAEPAXIPBDH@Z 10008ae0 f   PsAllocator.obj
 0001:00007b10       ?deallocate@Allocator@shdfnd@physx@@QAEXPAX@Z 10008b10 f   PsAllocator.obj
 0001:00007b30       ?PxGetAssertHandler@physx@@YAAAVPxAssertHandler@1@XZ 10008b30 f   PsAssert.obj
 0001:00007b40       ?PxSetAssertHandler@physx@@YAXAAVPxAssertHandler@1@@Z 10008b40 f   PsAssert.obj
 0001:00007b50       ??$__vcrt_va_start_verify_argument_type@QBD@@YAXXZ 10008b50 f i PsAssert.obj
 0001:00007b60       ??1PxAssertHandler@physx@@UAE@XZ 10008b60 f i PsAssert.obj
 0001:00007bb0       ??_EDefaultAssertHandler@?A0x35099bd4@@UAEPAXI@Z 10008bb0 f i PsAssert.obj
 0001:00007bb0       ??_GDefaultAssertHandler@?A0x35099bd4@@UAEPAXI@Z 10008bb0 f i PsAssert.obj
 0001:00007be0       ??_EPxAssertHandler@physx@@UAEPAXI@Z 10008be0 f i PsAssert.obj
 0001:00007be0       ??_GPxAssertHandler@physx@@UAEPAXI@Z 10008be0 f i PsAssert.obj
 0001:00007c10       _sprintf                   10008c10 f i PsAssert.obj
 0001:00007c50       ??0ErrorHandler@shdfnd@physx@@QAE@XZ 10008c50 f   PsErrorHandler.obj
 0001:00007c70       ??1ErrorHandler@shdfnd@physx@@QAE@XZ 10008c70 f   PsErrorHandler.obj
 0001:00007cb0       ?reportError@ErrorHandler@shdfnd@physx@@QAEXW4Enum@PxErrorCode@3@PBD1H@Z 10008cb0 f   PsErrorHandler.obj
 0001:00007d00       ?registerErrorCallback@ErrorHandler@shdfnd@physx@@QAEHAAVPxErrorCallback@3@@Z 10008d00 f   PsErrorHandler.obj
 0001:00007d70       ?unRegisterErrorCallback@ErrorHandler@shdfnd@physx@@QAEXAAVPxErrorCallback@3@@Z 10008d70 f   PsErrorHandler.obj
 0001:00007dd0       ?unRegisterErrorCallback@ErrorHandler@shdfnd@physx@@QAEXH@Z 10008dd0 f   PsErrorHandler.obj
 0001:00007e20       ?createFastIPC@shdfnd@physx@@YAPAVPxIPC@12@AAW4ErrorCode@312@W4ConnectionType@312@PBDII_N3I@Z 10008e20 f   PsFastIPC.obj
 0001:00007eb0       ??0FastIPC@shdfnd@physx@@QAE@AAW4ErrorCode@PxIPC@12@W4ConnectionType@412@PBDII_N3I@Z 10008eb0 f i PsFastIPC.obj
 0001:00008280       ??0MultiPartPacket@PxRingBuffer@shdfnd@physx@@QAE@W4MessageType@123@PBXIIPAV123@@Z 10009280 f i PsFastIPC.obj
 0001:000082f0       ??1PxIPC@shdfnd@physx@@MAE@XZ 100092f0 f i PsFastIPC.obj
 0001:00008300       ??1PxRingBuffer@shdfnd@physx@@QAE@XZ 10009300 f i PsFastIPC.obj
 0001:00008360       ??_EFastIPC@shdfnd@physx@@UAEPAXI@Z 10009360 f i PsFastIPC.obj
 0001:00008360       ??_GFastIPC@shdfnd@physx@@UAEPAXI@Z 10009360 f i PsFastIPC.obj
 0001:000083f0       ??_EPxIPC@shdfnd@physx@@MAEPAXI@Z 100093f0 f i PsFastIPC.obj
 0001:000083f0       ??_GPxIPC@shdfnd@physx@@MAEPAXI@Z 100093f0 f i PsFastIPC.obj
 0001:00008420       ?canSend@FastIPC@shdfnd@physx@@UAE_NI@Z 10009420 f i PsFastIPC.obj
 0001:00008470       ?canSend@PxRingBuffer@shdfnd@physx@@QBE?AW4ErrorCode@123@I@Z 10009470 f i PsFastIPC.obj
 0001:00008500       ?haveConnection@FastIPC@shdfnd@physx@@UBE_NXZ 10009500 f i PsFastIPC.obj
 0001:00008520       ?init@PxRingBuffer@shdfnd@physx@@QAEXPAXI_N1IPAI2@Z 10009520 f i PsFastIPC.obj
 0001:000085b0       ?isServer@FastIPC@shdfnd@physx@@UBE_NXZ 100095b0 f i PsFastIPC.obj
 0001:000085c0       ?process@MultiPartPacket@PxRingBuffer@shdfnd@physx@@QAE?AW4ErrorCode@234@XZ 100095c0 f i PsFastIPC.obj
 0001:00008640       ?pumpPendingSends@FastIPC@shdfnd@physx@@UAE_NXZ 10009640 f i PsFastIPC.obj
 0001:000086a0       ?pumpPendingSends@PxRingBuffer@shdfnd@physx@@QAE_NXZ 100096a0 f i PsFastIPC.obj
 0001:000086f0       ?receiveAcknowledge@FastIPC@shdfnd@physx@@UAE?AW4ErrorCode@PxIPC@23@XZ 100096f0 f i PsFastIPC.obj
 0001:00008710       ?receiveAcknowledge@PxRingBuffer@shdfnd@physx@@QAE?AW4ErrorCode@123@XZ 10009710 f i PsFastIPC.obj
 0001:000087a0       ?receiveData@FastIPC@shdfnd@physx@@UAEPBXAAI@Z 100097a0 f i PsFastIPC.obj
 0001:000087e0       ?receiveData@PxRingBuffer@shdfnd@physx@@QAE?AW4MessageType@123@AAPBXAAI@Z 100097e0 f i PsFastIPC.obj
 0001:000089f0       ?release@FastIPC@shdfnd@physx@@UAEXXZ 100099f0 f i PsFastIPC.obj
 0001:00008a00       ?sendData@FastIPC@shdfnd@physx@@UAE?AW4ErrorCode@PxIPC@23@PBXI_N@Z 10009a00 f i PsFastIPC.obj
 0001:00008a30       ?sendData@PxRingBuffer@shdfnd@physx@@QAE?AW4ErrorCode@123@W4MessageType@123@PBXI_N@Z 10009a30 f i PsFastIPC.obj
 0001:00008b50       ?sendHeader@MultiPartPacket@PxRingBuffer@shdfnd@physx@@QAE?AW4ErrorCode@234@XZ 10009b50 f i PsFastIPC.obj
 0001:00008bc0       ?writeData@PxRingBuffer@shdfnd@physx@@AAEXW4MessageType@123@PBXI@Z 10009bc0 f i PsFastIPC.obj
 0001:00008ca0       ?createFastXml@shdfnd@physx@@YAPAVFastXml@12@PAVCallback@312@@Z 10009ca0 f   PsFastXml.obj
 0001:00008dd0       ??1FastXml@shdfnd@physx@@MAE@XZ 10009dd0 f i PsFastXml.obj
 0001:00008e00       ??_GFastXml@shdfnd@physx@@MAEPAXI@Z 10009e00 f i PsFastXml.obj
 0001:00008e00       ??_EFastXml@shdfnd@physx@@MAEPAXI@Z 10009e00 f i PsFastXml.obj
 0001:00008e30       ??_GMyFastXml@?A0x54d4ae2c@@EAEPAXI@Z 10009e30 f i PsFastXml.obj
 0001:00008e30       ??_EMyFastXml@?A0x54d4ae2c@@EAEPAXI@Z 10009e30 f i PsFastXml.obj
 0001:00009c10       _PxCreateFoundation        1000ac10 f   PsFoundation.obj
 0001:00009c30       _PxGetFoundation           1000ac30 f   PsFoundation.obj
 0001:00009c40       ?getAllocator@shdfnd@physx@@YAAAVPxAllocatorCallback@2@XZ 1000ac40 f   PsFoundation.obj
 0001:00009c50       ??0Foundation@shdfnd@physx@@AAE@AAVPxErrorCallback@2@AAVPxAllocatorCallback@2@@Z 1000ac50 f   PsFoundation.obj
 0001:00009d30       ??1Foundation@shdfnd@physx@@EAE@XZ 1000ad30 f   PsFoundation.obj
 0001:00009e40       ?release@Foundation@shdfnd@physx@@UAEXXZ 1000ae40 f   PsFoundation.obj
 0001:00009e50       ?createInstance@Foundation@shdfnd@physx@@SAPAV123@IAAVPxErrorCallback@3@AAVPxAllocatorCallback@3@@Z 1000ae50 f   PsFoundation.obj
 0001:00009f40       ?destroyInstance@Foundation@shdfnd@physx@@SAXXZ 1000af40 f   PsFoundation.obj
 0001:00009fa0       ?getInstance@Foundation@shdfnd@physx@@SAAAV123@XZ 1000afa0 f   PsFoundation.obj
 0001:00009fb0       ?incRefCount@Foundation@shdfnd@physx@@SAXXZ 1000afb0 f   PsFoundation.obj
 0001:00009fe0       ?decRefCount@Foundation@shdfnd@physx@@SAXXZ 1000afe0 f   PsFoundation.obj
 0001:0000a010       ?getErrorCallback@Foundation@shdfnd@physx@@UBEAAVPxErrorCallback@3@XZ 1000b010 f   PsFoundation.obj
 0001:0000a020       ?setErrorLevel@Foundation@shdfnd@physx@@UAEXW4Enum@PxErrorCode@3@@Z 1000b020 f   PsFoundation.obj
 0001:0000a030       ?getErrorLevel@Foundation@shdfnd@physx@@UBE?AW4Enum@PxErrorCode@3@XZ 1000b030 f   PsFoundation.obj
 0001:0000a040       ?getAllocatorCallback@Foundation@shdfnd@physx@@UBEAAVPxAllocatorCallback@3@XZ 1000b040 f   PsFoundation.obj
 0001:0000a050       ?error@Foundation@shdfnd@physx@@QAAXW4Enum@PxErrorCode@3@PBDH1ZZ 1000b050 f   PsFoundation.obj
 0001:0000a0c0       ?errorImpl@Foundation@shdfnd@physx@@QAEXW4Enum@PxErrorCode@3@PBDH1PAD@Z 1000b0c0 f   PsFoundation.obj
 0001:0000a130       ?getWarnOnceTimestamp@Foundation@shdfnd@physx@@SAIXZ 1000b130 f   PsFoundation.obj
 0001:0000a140       ?allocate@AlignCheckAllocator@Foundation@shdfnd@physx@@UAEPAXIPBD0H@Z 1000b140 f   PsFoundation.obj
 0001:0000a1e0       ??0TempAllocator@shdfnd@physx@@QAE@PBD@Z 1000b1e0 f i PsFoundation.obj
 0001:0000a1f0       ??1PxAllocatorCallback@physx@@UAE@XZ 1000b1f0 f i PsFoundation.obj
 0001:0000a200       ??1PxBroadcastingAllocator@physx@@MAE@XZ 1000b200 f i PsFoundation.obj
 0001:0000a210       ??4TempAllocator@shdfnd@physx@@QAEAAV012@$$QAV012@@Z 1000b210 f i PsFoundation.obj
 0001:0000a220       ??4TempAllocator@shdfnd@physx@@QAEAAV012@ABV012@@Z 1000b220 f i PsFoundation.obj
 0001:0000a230       ??_EFoundation@shdfnd@physx@@EAEPAXI@Z 1000b230 f i PsFoundation.obj
 0001:0000a2c0       ??_FTempAllocator@shdfnd@physx@@QAEXXZ 1000b2c0 f i PsFoundation.obj
 0001:0000a2d0       ??_GAlignCheckAllocator@Foundation@shdfnd@physx@@UAEPAXI@Z 1000b2d0 f i PsFoundation.obj
 0001:0000a2d0       ??_EAlignCheckAllocator@Foundation@shdfnd@physx@@UAEPAXI@Z 1000b2d0 f i PsFoundation.obj
 0001:0000a300       ??_GFoundation@shdfnd@physx@@EAEPAXI@Z 1000b300 f i PsFoundation.obj
 0001:0000a330       ??_GPxAllocatorCallback@physx@@UAEPAXI@Z 1000b330 f i PsFoundation.obj
 0001:0000a330       ??_EPxAllocatorCallback@physx@@UAEPAXI@Z 1000b330 f i PsFoundation.obj
 0001:0000a360       ??_EPxBroadcastingAllocator@physx@@MAEPAXI@Z 1000b360 f i PsFoundation.obj
 0001:0000a360       ??_GPxBroadcastingAllocator@physx@@MAEPAXI@Z 1000b360 f i PsFoundation.obj
 0001:0000a390       ?deallocate@AlignCheckAllocator@Foundation@shdfnd@physx@@UAEXPAX@Z 1000b390 f i PsFoundation.obj
 0001:0000a3e0       ?deregisterAllocationListener@AlignCheckAllocator@Foundation@shdfnd@physx@@UAEXAAVPxAllocationListener@4@@Z 1000b3e0 f i PsFoundation.obj
 0001:0000a420       ?recreate@?$Array@PATTempAllocatorChunk@shdfnd@physx@@VAllocator@23@@shdfnd@physx@@IAEXI@Z 1000b420 f i PsFoundation.obj
 0001:0000a4a0       ?registerAllocationListener@AlignCheckAllocator@Foundation@shdfnd@physx@@UAEXAAVPxAllocationListener@4@@Z 1000b4a0 f i PsFoundation.obj
 0001:0000a4c0       ?reserveInternal@?$HashBase@V?$Pair@QBVNamedAllocator@shdfnd@physx@@PBD@shdfnd@physx@@PBVNamedAllocator@23@U?$Hash@PBVNamedAllocator@shdfnd@physx@@@23@UGetKey@?$HashMapBase@PBVNamedAllocator@shdfnd@physx@@PBDU?$Hash@PBVNamedAllocator@shdfnd@physx@@@23@VNonTrackingAllocator@23@@internal@23@VNonTrackingAllocator@23@$00@internal@shdfnd@physx@@AAEXI@Z 1000b4c0 f i PsFoundation.obj
 0001:0000a650       ?resize@?$Array@PATTempAllocatorChunk@shdfnd@physx@@VAllocator@23@@shdfnd@physx@@QAEXIABQATTempAllocatorChunk@23@@Z 1000b650 f i PsFoundation.obj
 0001:0000a6a0       ?sprintf_s@string@physx@@YAHPADIPBDZZ 1000b6a0 f i PsFoundation.obj
 0001:0000a6d0       ?computeQuatFromNormal@shdfnd@physx@@YA?AVPxQuat@2@ABVPxVec3@2@@Z 1000b6d0 f   PsMathUtils.obj
 0001:0000a840       ?optimizeBoundingBox@shdfnd@physx@@YA?AVPxVec3@2@AAVPxMat33@2@@Z 1000b840 f   PsMathUtils.obj
 0001:0000abd0       ?slerp@shdfnd@physx@@YA?AVPxQuat@2@MABV32@0@Z 1000bbd0 f   PsMathUtils.obj
 0001:0000ad20       ?integrateTransform@shdfnd@physx@@YAXABVPxTransform@2@ABVPxVec3@2@1MAAV32@@Z 1000bd20 f   PsMathUtils.obj
 0001:0000af50       ?allocate@TempAllocator@shdfnd@physx@@QAEPAXIPBDH@Z 1000bf50 f   PsTempAllocator.obj
 0001:0000b040       ?deallocate@TempAllocator@shdfnd@physx@@QAEXPAX@Z 1000c040 f   PsTempAllocator.obj
 0001:0000b0d0       ?checkValid@shdfnd@physx@@YA_NABM@Z 1000c0d0 f   PsUtilities.obj
 0001:0000b100       ?checkValid@shdfnd@physx@@YA_NABVPxVec3@2@@Z 1000c100 f   PsUtilities.obj
 0001:0000b170       ?checkValid@shdfnd@physx@@YA_NABVPxQuat@2@@Z 1000c170 f   PsUtilities.obj
 0001:0000b200       ?checkValid@shdfnd@physx@@YA_NABVPxMat33@2@@Z 1000c200 f   PsUtilities.obj
 0001:0000b340       ?checkValid@shdfnd@physx@@YA_NABVPxTransform@2@@Z 1000c340 f   PsUtilities.obj
 0001:0000b3c0       ?checkValid@shdfnd@physx@@YA_NPBD@Z 1000c3c0 f   PsUtilities.obj
 0001:0000b3e0       ?PxCreateCollection@@YAPAVPxCollection@physx@@XZ 1000c3e0 f   CmCollection.obj
 0001:0000b440       ?add@Collection@Cm@physx@@UAEXAAVPxBase@3@_K@Z 1000c440 f   CmCollection.obj
 0001:0000b530       ?remove@Collection@Cm@physx@@UAEXAAVPxBase@3@@Z 1000c530 f   CmCollection.obj
 0001:0000b570       ?contains@Collection@Cm@physx@@UBE_NAAVPxBase@3@@Z 1000c570 f   CmCollection.obj
 0001:0000b590       ?addId@Collection@Cm@physx@@UAEXAAVPxBase@3@_K@Z 1000c590 f   CmCollection.obj
 0001:0000b640       ?removeId@Collection@Cm@physx@@UAEX_K@Z 1000c640 f   CmCollection.obj
 0001:0000b6b0       ?find@Collection@Cm@physx@@UBEPAVPxBase@3@_K@Z 1000c6b0 f   CmCollection.obj
 0001:0000b6d0       ?add@Collection@Cm@physx@@UAEXAAVPxCollection@3@@Z 1000c6d0 f   CmCollection.obj
 0001:0000b830       ?remove@Collection@Cm@physx@@UAEXAAVPxCollection@3@@Z 1000c830 f   CmCollection.obj
 0001:0000b890       ?getNbObjects@Collection@Cm@physx@@UBEIXZ 1000c890 f   CmCollection.obj
 0001:0000b8a0       ?getObject@Collection@Cm@physx@@UBEAAVPxBase@3@I@Z 1000c8a0 f   CmCollection.obj
 0001:0000b8c0       ?getObjects@Collection@Cm@physx@@UBEIPAPAVPxBase@3@II@Z 1000c8c0 f   CmCollection.obj
 0001:0000b910       ?getNbIds@Collection@Cm@physx@@UBEIXZ 1000c910 f   CmCollection.obj
 0001:0000b920       ?getId@Collection@Cm@physx@@UBE_KABVPxBase@3@@Z 1000c920 f   CmCollection.obj
 0001:0000b960       ?getIds@Collection@Cm@physx@@UBEIPA_KII@Z 1000c960 f   CmCollection.obj
 0001:0000ba00       ??0Collection@Cm@physx@@QAE@XZ 1000ca00 f i CmCollection.obj
 0001:0000bab0       ??0Iter@?$HashBase@V?$Pair@$$CB_KPAVPxBase@physx@@@shdfnd@physx@@_KU?$Hash@_K@23@UGetKey@?$HashMapBase@_KPAVPxBase@physx@@U?$Hash@_K@shdfnd@2@VAllocator@42@@internal@23@VAllocator@23@$00@internal@shdfnd@physx@@QAE@AAV1234@@Z 1000cab0 f i CmCollection.obj
 0001:0000bb10       ??1PxCollection@physx@@MAE@XZ 1000cb10 f i CmCollection.obj
 0001:0000bb20       ??_ECollection@Cm@physx@@UAEPAXI@Z 1000cb20 f i CmCollection.obj
 0001:0000bb20       ??_GCollection@Cm@physx@@UAEPAXI@Z 1000cb20 f i CmCollection.obj
 0001:0000bb80       ??_EPxCollection@physx@@MAEPAXI@Z 1000cb80 f i CmCollection.obj
 0001:0000bb80       ??_GPxCollection@physx@@MAEPAXI@Z 1000cb80 f i CmCollection.obj
 0001:0000bbb0       ?create@?$HashBase@V?$Pair@$$CB_KPAVPxBase@physx@@@shdfnd@physx@@_KU?$Hash@_K@23@UGetKey@?$HashMapBase@_KPAVPxBase@physx@@U?$Hash@_K@shdfnd@2@VAllocator@42@@internal@23@VAllocator@23@$00@internal@shdfnd@physx@@QAEPAV?$Pair@$$CB_KPAVPxBase@physx@@@34@AB_KAA_N@Z 1000cbb0 f i CmCollection.obj
 0001:0000bcb0       ?create@?$HashBase@V?$Pair@QAVPxBase@physx@@_K@shdfnd@physx@@PAVPxBase@3@U?$Hash@PAVPxBase@physx@@@23@UGetKey@?$HashMapBase@PAVPxBase@physx@@_KU?$Hash@PAVPxBase@physx@@@shdfnd@2@VAllocator@42@@internal@23@VAllocator@23@$00@internal@shdfnd@physx@@QAEPAV?$Pair@QAVPxBase@physx@@_K@34@ABQAVPxBase@4@AA_N@Z 1000ccb0 f i CmCollection.obj
 0001:0000bdd0       ?erase@?$HashBase@V?$Pair@$$CB_KPAVPxBase@physx@@@shdfnd@physx@@_KU?$Hash@_K@23@UGetKey@?$HashMapBase@_KPAVPxBase@physx@@U?$Hash@_K@shdfnd@2@VAllocator@42@@internal@23@VAllocator@23@$00@internal@shdfnd@physx@@QAE_NAB_K@Z 1000cdd0 f i CmCollection.obj
 0001:0000be80       ?erase@?$HashBase@V?$Pair@QAVPxBase@physx@@_K@shdfnd@physx@@PAVPxBase@3@U?$Hash@PAVPxBase@physx@@@23@UGetKey@?$HashMapBase@PAVPxBase@physx@@_KU?$Hash@PAVPxBase@physx@@@shdfnd@2@VAllocator@42@@internal@23@VAllocator@23@$00@internal@shdfnd@physx@@QAE_NABQAVPxBase@4@@Z 1000ce80 f i CmCollection.obj
 0001:0000bf30       ?find@?$HashBase@V?$Pair@$$CB_KPAVPxBase@physx@@@shdfnd@physx@@_KU?$Hash@_K@23@UGetKey@?$HashMapBase@_KPAVPxBase@physx@@U?$Hash@_K@shdfnd@2@VAllocator@42@@internal@23@VAllocator@23@$00@internal@shdfnd@physx@@QBEPBV?$Pair@$$CB_KPAVPxBase@physx@@@34@AB_K@Z 1000cf30 f i CmCollection.obj
 0001:0000bfb0       ?find@?$HashBase@V?$Pair@QAVPxBase@physx@@_K@shdfnd@physx@@PAVPxBase@3@U?$Hash@PAVPxBase@physx@@@23@UGetKey@?$HashMapBase@PAVPxBase@physx@@_KU?$Hash@PAVPxBase@physx@@@shdfnd@2@VAllocator@42@@internal@23@VAllocator@23@$00@internal@shdfnd@physx@@QBEPBV?$Pair@QAVPxBase@physx@@_K@34@ABQAVPxBase@4@@Z 1000cfb0 f i CmCollection.obj
 0001:0000c040       ?hash@shdfnd@physx@@YAI_K@Z 1000d040 f i CmCollection.obj
 0001:0000c0d0       ?release@Collection@Cm@physx@@UAEXXZ 1000d0d0 f i CmCollection.obj
 0001:0000c0e0       ?replaceWithLast@?$HashBase@V?$Pair@$$CB_KPAVPxBase@physx@@@shdfnd@physx@@_KU?$Hash@_K@23@UGetKey@?$HashMapBase@_KPAVPxBase@physx@@U?$Hash@_K@shdfnd@2@VAllocator@42@@internal@23@VAllocator@23@$00@internal@shdfnd@physx@@AAEXI@Z 1000d0e0 f i CmCollection.obj
 0001:0000c160       ?replaceWithLast@?$HashBase@V?$Pair@QAVPxBase@physx@@_K@shdfnd@physx@@PAVPxBase@3@U?$Hash@PAVPxBase@physx@@@23@UGetKey@?$HashMapBase@PAVPxBase@physx@@_KU?$Hash@PAVPxBase@physx@@@shdfnd@2@VAllocator@42@@internal@23@VAllocator@23@$00@internal@shdfnd@physx@@AAEXI@Z 1000d160 f i CmCollection.obj
 0001:0000c200       ?reserveInternal@?$HashBase@V?$Pair@$$CB_KPAVPxBase@physx@@@shdfnd@physx@@_KU?$Hash@_K@23@UGetKey@?$HashMapBase@_KPAVPxBase@physx@@U?$Hash@_K@shdfnd@2@VAllocator@42@@internal@23@VAllocator@23@$00@internal@shdfnd@physx@@AAEXI@Z 1000d200 f i CmCollection.obj
 0001:0000c3f0       ?reserveInternal@?$HashBase@V?$Pair@QAVPxBase@physx@@_K@shdfnd@physx@@PAVPxBase@3@U?$Hash@PAVPxBase@physx@@@23@UGetKey@?$HashMapBase@PAVPxBase@physx@@_KU?$Hash@PAVPxBase@physx@@@shdfnd@2@VAllocator@42@@internal@23@VAllocator@23@$00@internal@shdfnd@physx@@AAEXI@Z 1000d3f0 f i CmCollection.obj
 0001:0000c570       ?getProfileNames@CmEventNameProvider@Cm@physx@@UBE?AUPxProfileNames@3@XZ 1000d570 f   CmEventProfiler.obj
 0001:0000c590       ?enableNVTXSupport@Cm@physx@@YAX_N@Z 1000d590 f   CmEventProfiler.obj
 0001:0000c5a0       ?isNVTXSupportEnabled@Cm@physx@@YA_NXZ 1000d5a0 f   CmEventProfiler.obj
 0001:0000c5b0       ?GetMBPPostUpdate@BroadPhase@ProfileEventId@Cm@physx@@SAABUPxProfileEventId@4@XZ 1000d5b0 f i CmEventProfiler.obj
 0001:0000c5c0       ?GetMBPPostUpdateSPU@BroadPhase@ProfileEventId@Cm@physx@@SAABUPxProfileEventId@4@XZ 1000d5c0 f i CmEventProfiler.obj
 0001:0000c5d0       ?GetMBPUpdate@BroadPhase@ProfileEventId@Cm@physx@@SAABUPxProfileEventId@4@XZ 1000d5d0 f i CmEventProfiler.obj
 0001:0000c5e0       ?GetMBPUpdateSPU@BroadPhase@ProfileEventId@Cm@physx@@SAABUPxProfileEventId@4@XZ 1000d5e0 f i CmEventProfiler.obj
 0001:0000c5f0       ?GetSapPostUpdate@BroadPhase@ProfileEventId@Cm@physx@@SAABUPxProfileEventId@4@XZ 1000d5f0 f i CmEventProfiler.obj
 0001:0000c600       ?GetSapPostUpdateSPU@BroadPhase@ProfileEventId@Cm@physx@@SAABUPxProfileEventId@4@XZ 1000d600 f i CmEventProfiler.obj
 0001:0000c610       ?GetSapUpdate@BroadPhase@ProfileEventId@Cm@physx@@SAABUPxProfileEventId@4@XZ 1000d610 f i CmEventProfiler.obj
 0001:0000c620       ?GetSapUpdateSPU@BroadPhase@ProfileEventId@Cm@physx@@SAABUPxProfileEventId@4@XZ 1000d620 f i CmEventProfiler.obj
 0001:0000c630       ?GetaddActor@API@ProfileEventId@Cm@physx@@SAABUPxProfileEventId@4@XZ 1000d630 f i CmEventProfiler.obj
 0001:0000c640       ?GetaddActorToSim@API@ProfileEventId@Cm@physx@@SAABUPxProfileEventId@4@XZ 1000d640 f i CmEventProfiler.obj
 0001:0000c650       ?GetaddActors@API@ProfileEventId@Cm@physx@@SAABUPxProfileEventId@4@XZ 1000d650 f i CmEventProfiler.obj
 0001:0000c660       ?GetaddAggregate@API@ProfileEventId@Cm@physx@@SAABUPxProfileEventId@4@XZ 1000d660 f i CmEventProfiler.obj
 0001:0000c670       ?GetaddArticulation@API@ProfileEventId@Cm@physx@@SAABUPxProfileEventId@4@XZ 1000d670 f i CmEventProfiler.obj
 0001:0000c680       ?GetaddCloth@API@ProfileEventId@Cm@physx@@SAABUPxProfileEventId@4@XZ 1000d680 f i CmEventProfiler.obj
 0001:0000c690       ?GetaddCollection@API@ProfileEventId@Cm@physx@@SAABUPxProfileEventId@4@XZ 1000d690 f i CmEventProfiler.obj
 0001:0000c6a0       ?GetaddParticleFluid@API@ProfileEventId@Cm@physx@@SAABUPxProfileEventId@4@XZ 1000d6a0 f i CmEventProfiler.obj
 0001:0000c6b0       ?GetaddParticleSystem@API@ProfileEventId@Cm@physx@@SAABUPxProfileEventId@4@XZ 1000d6b0 f i CmEventProfiler.obj
 0001:0000c6c0       ?GetaddShapesToSQ@API@ProfileEventId@Cm@physx@@SAABUPxProfileEventId@4@XZ 1000d6c0 f i CmEventProfiler.obj
 0001:0000c6d0       ?GetaddShapesToSim@API@ProfileEventId@Cm@physx@@SAABUPxProfileEventId@4@XZ 1000d6d0 f i CmEventProfiler.obj
 0001:0000c6e0       ?GetapplyExternalImpulses@Articulations@ProfileEventId@Cm@physx@@SAABUPxProfileEventId@4@XZ 1000d6e0 f i CmEventProfiler.obj
 0001:0000c6f0       ?GetapplyJointDrives@Articulations@ProfileEventId@Cm@physx@@SAABUPxProfileEventId@4@XZ 1000d6f0 f i CmEventProfiler.obj
 0001:0000c700       ?GetbroadPhase@Basic@ProfileEventId@Cm@physx@@SAABUPxProfileEventId@4@XZ 1000d700 f i CmEventProfiler.obj
 0001:0000c710       ?GetbrokenEdgeIslands@IslandGen@ProfileEventId@Cm@physx@@SAABUPxProfileEventId@4@XZ 1000d710 f i CmEventProfiler.obj
 0001:0000c720       ?GetbuildActiveTransforms@Sim@ProfileEventId@Cm@physx@@SAABUPxProfileEventId@4@XZ 1000d720 f i CmEventProfiler.obj
 0001:0000c730       ?GetccdBroadPhase@Sim@ProfileEventId@Cm@physx@@SAABUPxProfileEventId@4@XZ 1000d730 f i CmEventProfiler.obj
 0001:0000c740       ?GetccdBroadPhaseComplete@Sim@ProfileEventId@Cm@physx@@SAABUPxProfileEventId@4@XZ 1000d740 f i CmEventProfiler.obj
 0001:0000c750       ?GetccdIsland@Sim@ProfileEventId@Cm@physx@@SAABUPxProfileEventId@4@XZ 1000d750 f i CmEventProfiler.obj
 0001:0000c760       ?GetccdPair@Sim@ProfileEventId@Cm@physx@@SAABUPxProfileEventId@4@XZ 1000d760 f i CmEventProfiler.obj
 0001:0000c770       ?GetccdSweep@Sim@ProfileEventId@Cm@physx@@SAABUPxProfileEventId@4@XZ 1000d770 f i CmEventProfiler.obj
 0001:0000c780       ?GetccdSweepMerge@Sim@ProfileEventId@Cm@physx@@SAABUPxProfileEventId@4@XZ 1000d780 f i CmEventProfiler.obj
 0001:0000c790       ?GetcheckCollision@Basic@ProfileEventId@Cm@physx@@SAABUPxProfileEventId@4@XZ 1000d790 f i CmEventProfiler.obj
 0001:0000c7a0       ?GetcheckConstraintBreakage@Sim@ProfileEventId@Cm@physx@@SAABUPxProfileEventId@4@XZ 1000d7a0 f i CmEventProfiler.obj
 0001:0000c7b0       ?GetcheckResults@Basic@ProfileEventId@Cm@physx@@SAABUPxProfileEventId@4@XZ 1000d7b0 f i CmEventProfiler.obj
 0001:0000c7c0       ?GetcleanupEdgeEvents@IslandGen@ProfileEventId@Cm@physx@@SAABUPxProfileEventId@4@XZ 1000d7c0 f i CmEventProfiler.obj
 0001:0000c7d0       ?GetcollideQueueTasks@Sim@ProfileEventId@Cm@physx@@SAABUPxProfileEventId@4@XZ 1000d7d0 f i CmEventProfiler.obj
 0001:0000c7e0       ?Getcollision@Basic@ProfileEventId@Cm@physx@@SAABUPxProfileEventId@4@XZ 1000d7e0 f i CmEventProfiler.obj
 0001:0000c7f0       ?GetcomputeAABBUpdateLists@BroadPhase@ProfileEventId@Cm@physx@@SAABUPxProfileEventId@4@XZ 1000d7f0 f i CmEventProfiler.obj
 0001:0000c800       ?GetcomputeAggAggShapePairs@BroadPhase@ProfileEventId@Cm@physx@@SAABUPxProfileEventId@4@XZ 1000d800 f i CmEventProfiler.obj
 0001:0000c810       ?GetcomputeJointDrives@Articulations@ProfileEventId@Cm@physx@@SAABUPxProfileEventId@4@XZ 1000d810 f i CmEventProfiler.obj
 0001:0000c820       ?GetcorrelatePatches@Dynamics@ProfileEventId@Cm@physx@@SAABUPxProfileEventId@4@XZ 1000d820 f i CmEventProfiler.obj
 0001:0000c830       ?GetcreateBatchQuery@API@ProfileEventId@Cm@physx@@SAABUPxProfileEventId@4@XZ 1000d830 f i CmEventProfiler.obj
 0001:0000c840       ?GetcreateContactPatches@Dynamics@ProfileEventId@Cm@physx@@SAABUPxProfileEventId@4@XZ 1000d840 f i CmEventProfiler.obj
 0001:0000c850       ?GetcreateFinalize@Dynamics@ProfileEventId@Cm@physx@@SAABUPxProfileEventId@4@XZ 1000d850 f i CmEventProfiler.obj
 0001:0000c860       ?GetcreatePVDInstance@PVD@ProfileEventId@Cm@physx@@SAABUPxProfileEventId@4@XZ 1000d860 f i CmEventProfiler.obj
 0001:0000c870       ?GetcreatedNodes@IslandGen@ProfileEventId@Cm@physx@@SAABUPxProfileEventId@4@XZ 1000d870 f i CmEventProfiler.obj
 0001:0000c880       ?GetdeletedNodesEdges@IslandGen@ProfileEventId@Cm@physx@@SAABUPxProfileEventId@4@XZ 1000d880 f i CmEventProfiler.obj
 0001:0000c890       ?GetduplicateKinematicNodes@IslandGen@ProfileEventId@Cm@physx@@SAABUPxProfileEventId@4@XZ 1000d890 f i CmEventProfiler.obj
 0001:0000c8a0       ?Getdynamics@Basic@ProfileEventId@Cm@physx@@SAABUPxProfileEventId@4@XZ 1000d8a0 f i CmEventProfiler.obj
 0001:0000c8b0       ?GetemptyIslands@IslandGen@ProfileEventId@Cm@physx@@SAABUPxProfileEventId@4@XZ 1000d8b0 f i CmEventProfiler.obj
 0001:0000c8c0       ?GetendStep@ParticleSim@ProfileEventId@Cm@physx@@SAABUPxProfileEventId@4@XZ 1000d8c0 f i CmEventProfiler.obj
 0001:0000c8d0       ?Getexecute@BatchedSceneQuery@ProfileEventId@Cm@physx@@SAABUPxProfileEventId@4@XZ 1000d8d0 f i CmEventProfiler.obj
 0001:0000c8e0       ?GetfetchResults@Basic@ProfileEventId@Cm@physx@@SAABUPxProfileEventId@4@XZ 1000d8e0 f i CmEventProfiler.obj
 0001:0000c8f0       ?GetfetchResults@Sim@ProfileEventId@Cm@physx@@SAABUPxProfileEventId@4@XZ 1000d8f0 f i CmEventProfiler.obj
 0001:0000c900       ?GetfindAndReplaceWithLast@API@ProfileEventId@Cm@physx@@SAABUPxProfileEventId@4@XZ 1000d900 f i CmEventProfiler.obj
 0001:0000c910       ?Getfinish@BroadPhase@ProfileEventId@Cm@physx@@SAABUPxProfileEventId@4@XZ 1000d910 f i CmEventProfiler.obj
 0001:0000c920       ?GetfinishModifiablePairs@Sim@ProfileEventId@Cm@physx@@SAABUPxProfileEventId@4@XZ 1000d920 f i CmEventProfiler.obj
 0001:0000c930       ?GetfireCallBacksPostSync@Sim@ProfileEventId@Cm@physx@@SAABUPxProfileEventId@4@XZ 1000d930 f i CmEventProfiler.obj
 0001:0000c940       ?GetfireCallBacksPreSync@Sim@ProfileEventId@Cm@physx@@SAABUPxProfileEventId@4@XZ 1000d940 f i CmEventProfiler.obj
 0001:0000c950       ?GetfireCustomFilteringCallbacks@Sim@ProfileEventId@Cm@physx@@SAABUPxProfileEventId@4@XZ 1000d950 f i CmEventProfiler.obj
 0001:0000c960       ?GetflushQueryUpdates@API@ProfileEventId@Cm@physx@@SAABUPxProfileEventId@4@XZ 1000d960 f i CmEventProfiler.obj
 0001:0000c970       ?GetflushSimulation@API@ProfileEventId@Cm@physx@@SAABUPxProfileEventId@4@XZ 1000d970 f i CmEventProfiler.obj
 0001:0000c980       ?GetflushUpdates@SceneQuery@ProfileEventId@Cm@physx@@SAABUPxProfileEventId@4@XZ 1000d980 f i CmEventProfiler.obj
 0001:0000c990       ?GetforceDynamicTreeRebuild@API@ProfileEventId@Cm@physx@@SAABUPxProfileEventId@4@XZ 1000d990 f i CmEventProfiler.obj
 0001:0000c9a0       ?GetfreeBuffers@IslandGen@ProfileEventId@Cm@physx@@SAABUPxProfileEventId@4@XZ 1000d9a0 f i CmEventProfiler.obj
 0001:0000c9b0       ?GetgetFrictionPatch@Dynamics@ProfileEventId@Cm@physx@@SAABUPxProfileEventId@4@XZ 1000d9b0 f i CmEventProfiler.obj
 0001:0000c9c0       ?GetgetSimEvents@Sim@ProfileEventId@Cm@physx@@SAABUPxProfileEventId@4@XZ 1000d9c0 f i CmEventProfiler.obj
 0001:0000c9d0       ?GetgrowPatches@Dynamics@ProfileEventId@Cm@physx@@SAABUPxProfileEventId@4@XZ 1000d9d0 f i CmEventProfiler.obj
 0001:0000c9e0       ?Getintegrate@Articulations@ProfileEventId@Cm@physx@@SAABUPxProfileEventId@4@XZ 1000d9e0 f i CmEventProfiler.obj
 0001:0000c9f0       ?GetislandGen@Basic@ProfileEventId@Cm@physx@@SAABUPxProfileEventId@4@XZ 1000d9f0 f i CmEventProfiler.obj
 0001:0000ca00       ?GetjoinedEdges@IslandGen@ProfileEventId@Cm@physx@@SAABUPxProfileEventId@4@XZ 1000da00 f i CmEventProfiler.obj
 0001:0000ca10       ?GetjointLoads@Articulations@ProfileEventId@Cm@physx@@SAABUPxProfileEventId@4@XZ 1000da10 f i CmEventProfiler.obj
 0001:0000ca20       ?GetnarrowPhase@Basic@ProfileEventId@Cm@physx@@SAABUPxProfileEventId@4@XZ 1000da20 f i CmEventProfiler.obj
 0001:0000ca30       ?GetnarrowPhase@Sim@ProfileEventId@Cm@physx@@SAABUPxProfileEventId@4@XZ 1000da30 f i CmEventProfiler.obj
 0001:0000ca40       ?GetnarrowPhaseMerge@Sim@ProfileEventId@Cm@physx@@SAABUPxProfileEventId@4@XZ 1000da40 f i CmEventProfiler.obj
 0001:0000ca50       ?GetoriginShift@PVD@ProfileEventId@Cm@physx@@SAABUPxProfileEventId@4@XZ 1000da50 f i CmEventProfiler.obj
 0001:0000ca60       ?GetoverlapMultiple@BatchedSceneQuery@ProfileEventId@Cm@physx@@SAABUPxProfileEventId@4@XZ 1000da60 f i CmEventProfiler.obj
 0001:0000ca70       ?GetoverlapMultiple@SceneQuery@ProfileEventId@Cm@physx@@SAABUPxProfileEventId@4@XZ 1000da70 f i CmEventProfiler.obj
 0001:0000ca80       ?GetparallelSolve@Dynamics@ProfileEventId@Cm@physx@@SAABUPxProfileEventId@4@XZ 1000da80 f i CmEventProfiler.obj
 0001:0000ca90       ?GetpostIslandGenSecondPass@Sim@ProfileEventId@Cm@physx@@SAABUPxProfileEventId@4@XZ 1000da90 f i CmEventProfiler.obj
 0001:0000caa0       ?GetpreIslandGen@Sim@ProfileEventId@Cm@physx@@SAABUPxProfileEventId@4@XZ 1000daa0 f i CmEventProfiler.obj
 0001:0000cab0       ?GetpreIslandGenSecondPass@Sim@ProfileEventId@Cm@physx@@SAABUPxProfileEventId@4@XZ 1000dab0 f i CmEventProfiler.obj
 0001:0000cac0       ?GetprepareDataBlock@Articulations@ProfileEventId@Cm@physx@@SAABUPxProfileEventId@4@XZ 1000dac0 f i CmEventProfiler.obj
 0001:0000cad0       ?GetprepareFsData@Articulations@ProfileEventId@Cm@physx@@SAABUPxProfileEventId@4@XZ 1000dad0 f i CmEventProfiler.obj
 0001:0000cae0       ?GetprocessBPResults@BroadPhase@ProfileEventId@Cm@physx@@SAABUPxProfileEventId@4@XZ 1000dae0 f i CmEventProfiler.obj
 0001:0000caf0       ?GetprocessLostOverlaps@Sim@ProfileEventId@Cm@physx@@SAABUPxProfileEventId@4@XZ 1000daf0 f i CmEventProfiler.obj
 0001:0000cb00       ?GetprocessNewOverlaps@Sim@ProfileEventId@Cm@physx@@SAABUPxProfileEventId@4@XZ 1000db00 f i CmEventProfiler.obj
 0001:0000cb10       ?GetprocessSleepingIslands@IslandGen@ProfileEventId@Cm@physx@@SAABUPxProfileEventId@4@XZ 1000db10 f i CmEventProfiler.obj
 0001:0000cb20       ?GetprocessTriggers@Sim@ProfileEventId@Cm@physx@@SAABUPxProfileEventId@4@XZ 1000db20 f i CmEventProfiler.obj
 0001:0000cb30       ?GetprojectConstraints@Sim@ProfileEventId@Cm@physx@@SAABUPxProfileEventId@4@XZ 1000db30 f i CmEventProfiler.obj
 0001:0000cb40       ?GetprojectContacts@Sim@ProfileEventId@Cm@physx@@SAABUPxProfileEventId@4@XZ 1000db40 f i CmEventProfiler.obj
 0001:0000cb50       ?GetprojectionTreeUpdates@Sim@ProfileEventId@Cm@physx@@SAABUPxProfileEventId@4@XZ 1000db50 f i CmEventProfiler.obj
 0001:0000cb60       ?GetpropagateDrivenInertia@Articulations@ProfileEventId@Cm@physx@@SAABUPxProfileEventId@4@XZ 1000db60 f i CmEventProfiler.obj
 0001:0000cb70       ?GetpvdFrameStart@Basic@ProfileEventId@Cm@physx@@SAABUPxProfileEventId@4@XZ 1000db70 f i CmEventProfiler.obj
 0001:0000cb80       ?GetqueueNarrowPhase@Sim@ProfileEventId@Cm@physx@@SAABUPxProfileEventId@4@XZ 1000db80 f i CmEventProfiler.obj
 0001:0000cb90       ?GetraycastAny@BatchedSceneQuery@ProfileEventId@Cm@physx@@SAABUPxProfileEventId@4@XZ 1000db90 f i CmEventProfiler.obj
 0001:0000cba0       ?GetraycastAny@SceneQuery@ProfileEventId@Cm@physx@@SAABUPxProfileEventId@4@XZ 1000dba0 f i CmEventProfiler.obj
 0001:0000cbb0       ?GetraycastMultiple@BatchedSceneQuery@ProfileEventId@Cm@physx@@SAABUPxProfileEventId@4@XZ 1000dbb0 f i CmEventProfiler.obj
 0001:0000cbc0       ?GetraycastMultiple@SceneQuery@ProfileEventId@Cm@physx@@SAABUPxProfileEventId@4@XZ 1000dbc0 f i CmEventProfiler.obj
 0001:0000cbd0       ?GetraycastSingle@BatchedSceneQuery@ProfileEventId@Cm@physx@@SAABUPxProfileEventId@4@XZ 1000dbd0 f i CmEventProfiler.obj
 0001:0000cbe0       ?GetraycastSingle@SceneQuery@ProfileEventId@Cm@physx@@SAABUPxProfileEventId@4@XZ 1000dbe0 f i CmEventProfiler.obj
 0001:0000cbf0       ?GetreleaseBatchQuery@API@ProfileEventId@Cm@physx@@SAABUPxProfileEventId@4@XZ 1000dbf0 f i CmEventProfiler.obj
 0001:0000cc00       ?GetreleasePVDInstance@PVD@ProfileEventId@Cm@physx@@SAABUPxProfileEventId@4@XZ 1000dc00 f i CmEventProfiler.obj
 0001:0000cc10       ?GetremoveActor@API@ProfileEventId@Cm@physx@@SAABUPxProfileEventId@4@XZ 1000dc10 f i CmEventProfiler.obj
 0001:0000cc20       ?GetremoveActorFromSim@API@ProfileEventId@Cm@physx@@SAABUPxProfileEventId@4@XZ 1000dc20 f i CmEventProfiler.obj
 0001:0000cc30       ?GetremoveActors@API@ProfileEventId@Cm@physx@@SAABUPxProfileEventId@4@XZ 1000dc30 f i CmEventProfiler.obj
 0001:0000cc40       ?GetremoveAggregate@API@ProfileEventId@Cm@physx@@SAABUPxProfileEventId@4@XZ 1000dc40 f i CmEventProfiler.obj
 0001:0000cc50       ?GetremoveArticulation@API@ProfileEventId@Cm@physx@@SAABUPxProfileEventId@4@XZ 1000dc50 f i CmEventProfiler.obj
 0001:0000cc60       ?GetremoveCloth@API@ProfileEventId@Cm@physx@@SAABUPxProfileEventId@4@XZ 1000dc60 f i CmEventProfiler.obj
 0001:0000cc70       ?GetremoveParticleFluid@API@ProfileEventId@Cm@physx@@SAABUPxProfileEventId@4@XZ 1000dc70 f i CmEventProfiler.obj
 0001:0000cc80       ?GetremoveParticleSystem@API@ProfileEventId@Cm@physx@@SAABUPxProfileEventId@4@XZ 1000dc80 f i CmEventProfiler.obj
 0001:0000cc90       ?GetremoveShapesFromSQ@API@ProfileEventId@Cm@physx@@SAABUPxProfileEventId@4@XZ 1000dc90 f i CmEventProfiler.obj
 0001:0000cca0       ?GetremoveShapesFromSim@API@ProfileEventId@Cm@physx@@SAABUPxProfileEventId@4@XZ 1000dca0 f i CmEventProfiler.obj
 0001:0000ccb0       ?GetresetDependencies@Sim@ProfileEventId@Cm@physx@@SAABUPxProfileEventId@4@XZ 1000dcb0 f i CmEventProfiler.obj
 0001:0000ccc0       ?GetresizeArrays@IslandGen@ProfileEventId@Cm@physx@@SAABUPxProfileEventId@4@XZ 1000dcc0 f i CmEventProfiler.obj
 0001:0000ccd0       ?GetresizeForKinematics@IslandGen@ProfileEventId@Cm@physx@@SAABUPxProfileEventId@4@XZ 1000dcd0 f i CmEventProfiler.obj
 0001:0000cce0       ?GetrigidBodySolver@Basic@ProfileEventId@Cm@physx@@SAABUPxProfileEventId@4@XZ 1000dce0 f i CmEventProfiler.obj
 0001:0000ccf0       ?GetsceneFinalization@Sim@ProfileEventId@Cm@physx@@SAABUPxProfileEventId@4@XZ 1000dcf0 f i CmEventProfiler.obj
 0001:0000cd00       ?GetsceneUpdate@PVD@ProfileEventId@Cm@physx@@SAABUPxProfileEventId@4@XZ 1000dd00 f i CmEventProfiler.obj
 0001:0000cd10       ?GetsendPVDArrays@PVD@ProfileEventId@Cm@physx@@SAABUPxProfileEventId@4@XZ 1000dd10 f i CmEventProfiler.obj
 0001:0000cd20       ?GetsetupConstraints@Articulations@ProfileEventId@Cm@physx@@SAABUPxProfileEventId@4@XZ 1000dd20 f i CmEventProfiler.obj
 0001:0000cd30       ?GetsetupDrives@Articulations@ProfileEventId@Cm@physx@@SAABUPxProfileEventId@4@XZ 1000dd30 f i CmEventProfiler.obj
 0001:0000cd40       ?GetsetupFinalize@Dynamics@ProfileEventId@Cm@physx@@SAABUPxProfileEventId@4@XZ 1000dd40 f i CmEventProfiler.obj
 0001:0000cd50       ?GetsetupProject@Articulations@ProfileEventId@Cm@physx@@SAABUPxProfileEventId@4@XZ 1000dd50 f i CmEventProfiler.obj
 0001:0000cd60       ?GetshapesUpdateProcessing@ParticleSim@ProfileEventId@Cm@physx@@SAABUPxProfileEventId@4@XZ 1000dd60 f i CmEventProfiler.obj
 0001:0000cd70       ?GetshiftOrigin@API@ProfileEventId@Cm@physx@@SAABUPxProfileEventId@4@XZ 1000dd70 f i CmEventProfiler.obj
 0001:0000cd80       ?GetsimAddShapeToBroadPhase@API@ProfileEventId@Cm@physx@@SAABUPxProfileEventId@4@XZ 1000dd80 f i CmEventProfiler.obj
 0001:0000cd90       ?Getsimulate@Basic@ProfileEventId@Cm@physx@@SAABUPxProfileEventId@4@XZ 1000dd90 f i CmEventProfiler.obj
 0001:0000cda0       ?GetsolveGroup@Dynamics@ProfileEventId@Cm@physx@@SAABUPxProfileEventId@4@XZ 1000dda0 f i CmEventProfiler.obj
 0001:0000cdb0       ?GetsolveQueueTasks@Sim@ProfileEventId@Cm@physx@@SAABUPxProfileEventId@4@XZ 1000ddb0 f i CmEventProfiler.obj
 0001:0000cdc0       ?Getsolver@Dynamics@ProfileEventId@Cm@physx@@SAABUPxProfileEventId@4@XZ 1000ddc0 f i CmEventProfiler.obj
 0001:0000cdd0       ?GetsolverMergeResults@Dynamics@ProfileEventId@Cm@physx@@SAABUPxProfileEventId@4@XZ 1000ddd0 f i CmEventProfiler.obj
 0001:0000cde0       ?GetsolverQueueTasks@Dynamics@ProfileEventId@Cm@physx@@SAABUPxProfileEventId@4@XZ 1000dde0 f i CmEventProfiler.obj
 0001:0000cdf0       ?GetstartStep@ParticleSim@ProfileEventId@Cm@physx@@SAABUPxProfileEventId@4@XZ 1000ddf0 f i CmEventProfiler.obj
 0001:0000ce00       ?GetstepSetupCollide@Sim@ProfileEventId@Cm@physx@@SAABUPxProfileEventId@4@XZ 1000de00 f i CmEventProfiler.obj
 0001:0000ce10       ?GetstepSetupSimulate@Sim@ProfileEventId@Cm@physx@@SAABUPxProfileEventId@4@XZ 1000de10 f i CmEventProfiler.obj
 0001:0000ce20       ?GetstepSetupSolve@Sim@ProfileEventId@Cm@physx@@SAABUPxProfileEventId@4@XZ 1000de20 f i CmEventProfiler.obj
 0001:0000ce30       ?GetsweepAny@SceneQuery@ProfileEventId@Cm@physx@@SAABUPxProfileEventId@4@XZ 1000de30 f i CmEventProfiler.obj
 0001:0000ce40       ?GetsweepAnyList@SceneQuery@ProfileEventId@Cm@physx@@SAABUPxProfileEventId@4@XZ 1000de40 f i CmEventProfiler.obj
 0001:0000ce50       ?GetsweepMultiple@BatchedSceneQuery@ProfileEventId@Cm@physx@@SAABUPxProfileEventId@4@XZ 1000de50 f i CmEventProfiler.obj
 0001:0000ce60       ?GetsweepMultiple@SceneQuery@ProfileEventId@Cm@physx@@SAABUPxProfileEventId@4@XZ 1000de60 f i CmEventProfiler.obj
 0001:0000ce70       ?GetsweepMultipleList@SceneQuery@ProfileEventId@Cm@physx@@SAABUPxProfileEventId@4@XZ 1000de70 f i CmEventProfiler.obj
 0001:0000ce80       ?GetsweepSingle@BatchedSceneQuery@ProfileEventId@Cm@physx@@SAABUPxProfileEventId@4@XZ 1000de80 f i CmEventProfiler.obj
 0001:0000ce90       ?GetsweepSingle@SceneQuery@ProfileEventId@Cm@physx@@SAABUPxProfileEventId@4@XZ 1000de90 f i CmEventProfiler.obj
 0001:0000cea0       ?GetsweepSingleList@SceneQuery@ProfileEventId@Cm@physx@@SAABUPxProfileEventId@4@XZ 1000dea0 f i CmEventProfiler.obj
 0001:0000ceb0       ?GetsyncBodiesAfterIntegration@Sim@ProfileEventId@Cm@physx@@SAABUPxProfileEventId@4@XZ 1000deb0 f i CmEventProfiler.obj
 0001:0000cec0       ?GetsyncBodiesAfterSolver@Sim@ProfileEventId@Cm@physx@@SAABUPxProfileEventId@4@XZ 1000dec0 f i CmEventProfiler.obj
 0001:0000ced0       ?GetsyncState@Sim@ProfileEventId@Cm@physx@@SAABUPxProfileEventId@4@XZ 1000ded0 f i CmEventProfiler.obj
 0001:0000cee0       ?GettaskFrameworkSetup@Sim@ProfileEventId@Cm@physx@@SAABUPxProfileEventId@4@XZ 1000dee0 f i CmEventProfiler.obj
 0001:0000cef0       ?GetupdateAggAABBs@BroadPhase@ProfileEventId@Cm@physx@@SAABUPxProfileEventId@4@XZ 1000def0 f i CmEventProfiler.obj
 0001:0000cf00       ?GetupdateAggLocalSpaceBounds@BroadPhase@ProfileEventId@Cm@physx@@SAABUPxProfileEventId@4@XZ 1000df00 f i CmEventProfiler.obj
 0001:0000cf10       ?GetupdateBroadphase@BroadPhase@ProfileEventId@Cm@physx@@SAABUPxProfileEventId@4@XZ 1000df10 f i CmEventProfiler.obj
 0001:0000cf20       ?GetupdateCCDMultiPass@Sim@ProfileEventId@Cm@physx@@SAABUPxProfileEventId@4@XZ 1000df20 f i CmEventProfiler.obj
 0001:0000cf30       ?GetupdateCCDSinglePass@Sim@ProfileEventId@Cm@physx@@SAABUPxProfileEventId@4@XZ 1000df30 f i CmEventProfiler.obj
 0001:0000cf40       ?GetupdateCloths@PVD@ProfileEventId@Cm@physx@@SAABUPxProfileEventId@4@XZ 1000df40 f i CmEventProfiler.obj
 0001:0000cf50       ?GetupdateCollision@ParticleSim@ProfileEventId@Cm@physx@@SAABUPxProfileEventId@4@XZ 1000df50 f i CmEventProfiler.obj
 0001:0000cf60       ?GetupdateContacts@PVD@ProfileEventId@Cm@physx@@SAABUPxProfileEventId@4@XZ 1000df60 f i CmEventProfiler.obj
 0001:0000cf70       ?GetupdateDirtyShaders@Sim@ProfileEventId@Cm@physx@@SAABUPxProfileEventId@4@XZ 1000df70 f i CmEventProfiler.obj
 0001:0000cf80       ?GetupdateDynamicBodies@PVD@ProfileEventId@Cm@physx@@SAABUPxProfileEventId@4@XZ 1000df80 f i CmEventProfiler.obj
 0001:0000cf90       ?GetupdateForces@Sim@ProfileEventId@Cm@physx@@SAABUPxProfileEventId@4@XZ 1000df90 f i CmEventProfiler.obj
 0001:0000cfa0       ?GetupdateIslands@Sim@ProfileEventId@Cm@physx@@SAABUPxProfileEventId@4@XZ 1000dfa0 f i CmEventProfiler.obj
 0001:0000cfb0       ?GetupdateIslandsSecondPass@Sim@ProfileEventId@Cm@physx@@SAABUPxProfileEventId@4@XZ 1000dfb0 f i CmEventProfiler.obj
 0001:0000cfc0       ?GetupdateJoints@PVD@ProfileEventId@Cm@physx@@SAABUPxProfileEventId@4@XZ 1000dfc0 f i CmEventProfiler.obj
 0001:0000cfd0       ?GetupdateKinematics@Dynamics@ProfileEventId@Cm@physx@@SAABUPxProfileEventId@4@XZ 1000dfd0 f i CmEventProfiler.obj
 0001:0000cfe0       ?GetupdateLazyAggShapeAABBs@BroadPhase@ProfileEventId@Cm@physx@@SAABUPxProfileEventId@4@XZ 1000dfe0 f i CmEventProfiler.obj
 0001:0000cff0       ?GetupdatePVDProperties@PVD@ProfileEventId@Cm@physx@@SAABUPxProfileEventId@4@XZ 1000dff0 f i CmEventProfiler.obj
 0001:0000d000       ?GetupdatePariclesAndFluids@PVD@ProfileEventId@Cm@physx@@SAABUPxProfileEventId@4@XZ 1000e000 f i CmEventProfiler.obj
 0001:0000d010       ?GetupdatePositions@Dynamics@ProfileEventId@Cm@physx@@SAABUPxProfileEventId@4@XZ 1000e010 f i CmEventProfiler.obj
 0001:0000d020       ?GetupdatePruningTrees@Sim@ProfileEventId@Cm@physx@@SAABUPxProfileEventId@4@XZ 1000e020 f i CmEventProfiler.obj
 0001:0000d030       ?GetupdateShapeAABBs@BroadPhase@ProfileEventId@Cm@physx@@SAABUPxProfileEventId@4@XZ 1000e030 f i CmEventProfiler.obj
 0001:0000d040       ?GetupdateSleeping@PVD@ProfileEventId@Cm@physx@@SAABUPxProfileEventId@4@XZ 1000e040 f i CmEventProfiler.obj
 0001:0000d050       ?GetupdateVelocities@Dynamics@ProfileEventId@Cm@physx@@SAABUPxProfileEventId@4@XZ 1000e050 f i CmEventProfiler.obj
 0001:0000d060       ?GetvisualizeEndStep@Sim@ProfileEventId@Cm@physx@@SAABUPxProfileEventId@4@XZ 1000e060 f i CmEventProfiler.obj
 0001:0000d070       ?GetvisualizeStartStep@Sim@ProfileEventId@Cm@physx@@SAABUPxProfileEventId@4@XZ 1000e070 f i CmEventProfiler.obj
 0001:0000d080       ?dumpFreeListAllocatorState@Cm@physx@@YAXAAVFreeListAllocator@12@@Z 1000e080 f   CmFreeListAllocator.obj
 0001:0000d150       ??0FreeListAllocator@Cm@physx@@QAE@AAVPxAllocatorCallback@2@@Z 1000e150 f   CmFreeListAllocator.obj
 0001:0000d1e0       ??1FreeListAllocator@Cm@physx@@UAE@XZ 1000e1e0 f   CmFreeListAllocator.obj
 0001:0000d260       ?getQWSize@FreeListAllocator@Cm@physx@@SAII@Z 1000e260 f   CmFreeListAllocator.obj
 0001:0000d280       ?allocate@FreeListAllocator@Cm@physx@@UAEPAXIPBD0H@Z 1000e280 f   CmFreeListAllocator.obj
 0001:0000d300       ?deallocate@FreeListAllocator@Cm@physx@@UAEXPAX@Z 1000e300 f   CmFreeListAllocator.obj
 0001:0000d350       ?findBestFit@FreeListAllocator@Cm@physx@@AAEPAVChunk@23@IAAI@Z 1000e350 f   CmFreeListAllocator.obj
 0001:0000d3d0       ?pushOnFreeList@FreeListAllocator@Cm@physx@@AAEXPAVChunk@23@I@Z 1000e3d0 f   CmFreeListAllocator.obj
 0001:0000d430       ?popFromFreeList@FreeListAllocator@Cm@physx@@AAEPAVChunk@23@I@Z 1000e430 f   CmFreeListAllocator.obj
 0001:0000d4b0       ?unlinkFromFreeList@FreeListAllocator@Cm@physx@@AAEXPAVChunk@23@@Z 1000e4b0 f   CmFreeListAllocator.obj
 0001:0000d530       ?allocChunk@FreeListAllocator@Cm@physx@@AAEPAXI@Z 1000e530 f   CmFreeListAllocator.obj
 0001:0000d620       ?freeChunk@FreeListAllocator@Cm@physx@@AAEXPAVChunk@23@@Z 1000e620 f   CmFreeListAllocator.obj
 0001:0000d7c0       ?directAlloc@FreeListAllocator@Cm@physx@@AAEPAXI@Z 1000e7c0 f   CmFreeListAllocator.obj
 0001:0000d7f0       ?directFree@FreeListAllocator@Cm@physx@@AAEXPAX@Z 1000e7f0 f   CmFreeListAllocator.obj
 0001:0000d810       ?createFreeListAllocator@Cm@physx@@YAPAVFreeListAllocator@12@AAVPxAllocatorCallback@2@@Z 1000e810 f   CmFreeListAllocator.obj
 0001:0000d850       ?destroyFreeListAllocator@Cm@physx@@YAXAAVFreeListAllocator@12@@Z 1000e850 f   CmFreeListAllocator.obj
 0001:0000d870       ??$addAddr@VBlock@Cm@physx@@@Cm@physx@@YAPAVBlock@01@PAV201@H@Z 1000e870 f i CmFreeListAllocator.obj
 0001:0000d880       ??$addAddr@VChunk@Cm@physx@@@Cm@physx@@YAPAVChunk@01@PAV201@H@Z 1000e880 f i CmFreeListAllocator.obj
 0001:0000d890       ??$addAddr@X@Cm@physx@@YAPAXPAXH@Z 1000e890 f i CmFreeListAllocator.obj
 0001:0000d8a0       ??_GFreeListAllocator@Cm@physx@@UAEPAXI@Z 1000e8a0 f i CmFreeListAllocator.obj
 0001:0000d8a0       ??_EFreeListAllocator@Cm@physx@@UAEPAXI@Z 1000e8a0 f i CmFreeListAllocator.obj
 0001:0000d8d0       ?split@Chunk@Cm@physx@@QAEPAV123@I@Z 1000e8d0 f i CmFreeListAllocator.obj
 0001:0000d940       _printf                    1000e940 f i CmFreeListAllocator.obj
 0001:0000d970       ?PxShortestRotation@physx@@YA?AVPxQuat@1@ABVPxVec3@1@0@Z 1000e970 f   CmMathUtils.obj
 0001:0000daf0       ?PxTransformFromPlaneEquation@physx@@YA?AVPxTransform@1@ABVPxPlane@1@@Z 1000eaf0 f   CmMathUtils.obj
 0001:0000dca0       ?PxTransformFromSegment@physx@@YA?AVPxTransform@1@ABVPxVec3@1@0PAM@Z 1000eca0 f   CmMathUtils.obj
 0001:0000dde0       ?PxDiagonalize@physx@@YA?AVPxVec3@1@ABVPxMat33@1@AAVPxQuat@1@@Z 1000ede0 f   CmMathUtils.obj
 0001:0000e5d0       ??0PtrTable@Cm@physx@@QAE@XZ 1000f5d0 f   CmPtrTable.obj
 0001:0000e5e0       ??1PtrTable@Cm@physx@@QAE@XZ 1000f5e0 f   CmPtrTable.obj
 0001:0000e5f0       ?add@PtrTable@Cm@physx@@QAEXPAXAAVPtrTableStorageManager@23@@Z 1000f5f0 f   CmPtrTable.obj
 0001:0000e6a0       ?replaceWithLast@PtrTable@Cm@physx@@QAEXIAAVPtrTableStorageManager@23@@Z 1000f6a0 f   CmPtrTable.obj
 0001:0000e770       ?clear@PtrTable@Cm@physx@@QAEXAAVPtrTableStorageManager@23@@Z 1000f770 f   CmPtrTable.obj
 0001:0000e7e0       ?find@PtrTable@Cm@physx@@QBEIPBX@Z 1000f7e0 f   CmPtrTable.obj
 0001:0000e820       ?exportExtraData@PtrTable@Cm@physx@@QAEXAAVPxSerializationContext@3@@Z 1000f820 f   CmPtrTable.obj
 0001:0000e860       ?importExtraData@PtrTable@Cm@physx@@QAEXAAVPxDeserializationContext@3@@Z 1000f860 f   CmPtrTable.obj
 0001:0000e890       ?getBinaryMetaData@PtrTable@Cm@physx@@SAXAAVPxOutputStream@3@@Z 1000f890 f   CmPtrTable.obj
 0001:0000ea40       ?realloc@PtrTable@Cm@physx@@AAEXIIAAVPtrTableStorageManager@23@@Z 1000fa40 f   CmPtrTable.obj
 0001:0000eab0       ??0PtrTable@Cm@physx@@QAE@ABW4PxEMPTY@2@@Z 1000fab0 f i CmPtrTable.obj
 0001:0000ead0       ??4PtrTable@Cm@physx@@QAEAAU012@ABU012@@Z 1000fad0 f i CmPtrTable.obj
 0001:0000eaf0       ?getCount@PtrTable@Cm@physx@@QBEIXZ 1000faf0 f i CmPtrTable.obj
 0001:0000eb00       ?getPtrs@PtrTable@Cm@physx@@QAEPAPAXXZ 1000fb00 f i CmPtrTable.obj
 0001:0000eb10       ?getPtrs@PtrTable@Cm@physx@@QBEPBQAXXZ 1000fb10 f i CmPtrTable.obj
 0001:0000eb20       ??6RenderOutput@Cm@physx@@QAEAAV012@W4Primitive@012@@Z 1000fb20 f   CmRenderOutput.obj
 0001:0000eb40       ??6RenderOutput@Cm@physx@@QAEAAV012@I@Z 1000fb40 f   CmRenderOutput.obj
 0001:0000eb50       ??6RenderOutput@Cm@physx@@QAEAAV012@ABVPxMat44@2@@Z 1000fb50 f   CmRenderOutput.obj
 0001:0000eb70       ??6RenderOutput@Cm@physx@@QAEAAV012@ABVPxTransform@2@@Z 1000fb70 f   CmRenderOutput.obj
 0001:0000eba0       ??6RenderOutput@Cm@physx@@QAEAAV012@VPxVec3@2@@Z 1000fba0 f   CmRenderOutput.obj
 0001:0000ef00       ??6RenderOutput@Cm@physx@@QAEAAV012@ABUDebugText@12@@Z 1000ff00 f   CmRenderOutput.obj
 0001:0000f0f0       ?outputCapsule@RenderOutput@Cm@physx@@QAEAAV123@MMABVMatrix34@23@@Z 100100f0 f   CmRenderOutput.obj
 0001:0000fd80       ??0DebugText@Cm@physx@@QAA@ABVPxVec3@2@MPBDZZ 10010d80 f   CmRenderOutput.obj
 0001:0000fdf0       ??6Cm@physx@@YAAAVRenderOutput@01@AAV201@ABUDebugBox@01@@Z 10010df0 f   CmRenderOutput.obj
 0001:00010240       ??6Cm@physx@@YAAAVRenderOutput@01@AAV201@ABUDebugArrow@01@@Z 10011240 f   CmRenderOutput.obj
 0001:00010600       ??6Cm@physx@@YAAAVRenderOutput@01@AAV201@ABUDebugBasis@01@@Z 10011600 f   CmRenderOutput.obj
 0001:00010700       ??6Cm@physx@@YAAAVRenderOutput@01@AAV201@ABUDebugCircle@01@@Z 10011700 f   CmRenderOutput.obj
 0001:000107f0       ??6Cm@physx@@YAAAVRenderOutput@01@AAV201@ABUDebugArc@01@@Z 100117f0 f   CmRenderOutput.obj
 0001:000108f0       ??0DebugText@Cm@physx@@QAE@$$QAU012@@Z 100118f0 f i CmRenderOutput.obj
 0001:00010940       ??0DebugText@Cm@physx@@QAE@ABU012@@Z 10011940 f i CmRenderOutput.obj
 0001:00010990       ??0PxDebugLine@physx@@QAE@ABU01@@Z 10011990 f i CmRenderOutput.obj
 0001:000109d0       ??0PxDebugLine@physx@@QAE@ABVPxVec3@1@0ABI@Z 100119d0 f i CmRenderOutput.obj
 0001:00010a20       ??0PxDebugTriangle@physx@@QAE@ABU01@@Z 10011a20 f i CmRenderOutput.obj
 0001:00010a80       ??0PxDebugTriangle@physx@@QAE@ABVPxVec3@1@00ABI@Z 10011a80 f i CmRenderOutput.obj
 0001:00010ae0       ??0PxMat44@physx@@QAE@ABV01@@Z 10011ae0 f i CmRenderOutput.obj
 0001:00010b50       ??0PxMat44@physx@@QAE@ABVPxTransform@1@@Z 10011b50 f i CmRenderOutput.obj
 0001:00010ce0       ??0PxMat44@physx@@QAE@W4PxIDENTITY@1@@Z 10011ce0 f i CmRenderOutput.obj
 0001:00010d60       ??0RenderOutput@Cm@physx@@QAE@AAVRenderBuffer@12@@Z 10011d60 f i CmRenderOutput.obj
 0001:00010dc0       ??0RenderOutput@Cm@physx@@QAE@ABV012@@Z 10011dc0 f i CmRenderOutput.obj
 0001:00010e20       ??4DebugText@Cm@physx@@QAEAAU012@$$QAU012@@Z 10011e20 f i CmRenderOutput.obj
 0001:00010e80       ??4DebugText@Cm@physx@@QAEAAU012@ABU012@@Z 10011e80 f i CmRenderOutput.obj
 0001:00010ee0       ??4PxMat44@physx@@QAEABV01@ABV01@@Z 10011ee0 f i CmRenderOutput.obj
 0001:00010f50       ?allocate@?$Array@UPxDebugLine@physx@@V?$ReflectionAllocator@UPxDebugLine@physx@@@shdfnd@2@@shdfnd@physx@@IAEPAUPxDebugLine@3@I@Z 10011f50 f i CmRenderOutput.obj
 0001:00010fc0       ?allocate@?$Array@UPxDebugPoint@physx@@V?$ReflectionAllocator@UPxDebugPoint@physx@@@shdfnd@2@@shdfnd@physx@@IAEPAUPxDebugPoint@3@I@Z 10011fc0 f i CmRenderOutput.obj
 0001:00011030       ?allocate@?$Array@UPxDebugText@physx@@V?$ReflectionAllocator@UPxDebugText@physx@@@shdfnd@2@@shdfnd@physx@@IAEPAUPxDebugText@3@I@Z 10012030 f i CmRenderOutput.obj
 0001:000110a0       ?allocate@?$Array@UPxDebugTriangle@physx@@V?$ReflectionAllocator@UPxDebugTriangle@physx@@@shdfnd@2@@shdfnd@physx@@IAEPAUPxDebugTriangle@3@I@Z 100120a0 f i CmRenderOutput.obj
 0001:00011110       ?copy@?$Array@UPxDebugLine@physx@@V?$ReflectionAllocator@UPxDebugLine@physx@@@shdfnd@2@@shdfnd@physx@@KAXPAUPxDebugLine@3@0PBU43@@Z 10012110 f i CmRenderOutput.obj
 0001:00011180       ?copy@?$Array@UPxDebugPoint@physx@@V?$ReflectionAllocator@UPxDebugPoint@physx@@@shdfnd@2@@shdfnd@physx@@KAXPAUPxDebugPoint@3@0PBU43@@Z 10012180 f i CmRenderOutput.obj
 0001:000111d0       ?copy@?$Array@UPxDebugText@physx@@V?$ReflectionAllocator@UPxDebugText@physx@@@shdfnd@2@@shdfnd@physx@@KAXPAUPxDebugText@3@0PBU43@@Z 100121d0 f i CmRenderOutput.obj
 0001:00011230       ?copy@?$Array@UPxDebugTriangle@physx@@V?$ReflectionAllocator@UPxDebugTriangle@physx@@@shdfnd@2@@shdfnd@physx@@KAXPAUPxDebugTriangle@3@0PBU43@@Z 10012230 f i CmRenderOutput.obj
 0001:000112b0       ?growAndPushBack@?$Array@DV?$ReflectionAllocator@D@shdfnd@physx@@@shdfnd@physx@@IAEAADABD@Z 100122b0 f i CmRenderOutput.obj
 0001:00011390       ?growAndPushBack@?$Array@UPxDebugLine@physx@@V?$ReflectionAllocator@UPxDebugLine@physx@@@shdfnd@2@@shdfnd@physx@@IAEAAUPxDebugLine@3@ABU43@@Z 10012390 f i CmRenderOutput.obj
 0001:00011440       ?growAndPushBack@?$Array@UPxDebugPoint@physx@@V?$ReflectionAllocator@UPxDebugPoint@physx@@@shdfnd@2@@shdfnd@physx@@IAEAAUPxDebugPoint@3@ABU43@@Z 10012440 f i CmRenderOutput.obj
 0001:000114e0       ?growAndPushBack@?$Array@UPxDebugText@physx@@V?$ReflectionAllocator@UPxDebugText@physx@@@shdfnd@2@@shdfnd@physx@@IAEAAUPxDebugText@3@ABU43@@Z 100124e0 f i CmRenderOutput.obj
 0001:00011590       ?growAndPushBack@?$Array@UPxDebugTriangle@physx@@V?$ReflectionAllocator@UPxDebugTriangle@physx@@@shdfnd@2@@shdfnd@physx@@IAEAAUPxDebugTriangle@3@ABU43@@Z 10012590 f i CmRenderOutput.obj
 0001:00011660       ?outputSegment@RenderOutput@Cm@physx@@QAEXABVPxVec3@3@0@Z 10012660 f i CmRenderOutput.obj
 0001:00011710       ?recreate@?$Array@DV?$ReflectionAllocator@D@shdfnd@physx@@@shdfnd@physx@@IAEXI@Z 10012710 f i CmRenderOutput.obj
 0001:000117b0       ?recreate@?$Array@UPxDebugLine@physx@@V?$ReflectionAllocator@UPxDebugLine@physx@@@shdfnd@2@@shdfnd@physx@@IAEXI@Z 100127b0 f i CmRenderOutput.obj
 0001:00011810       ?reserveSegments@RenderOutput@Cm@physx@@QAEPAUPxDebugLine@3@I@Z 10012810 f i CmRenderOutput.obj
 0001:00011840       ?resizeUninitialized@?$Array@UPxDebugLine@physx@@V?$ReflectionAllocator@UPxDebugLine@physx@@@shdfnd@2@@shdfnd@physx@@QAEXI@Z 10012840 f i CmRenderOutput.obj
 0001:00011870       ?visualizeJointFrames@Cm@physx@@YAXAAVRenderOutput@12@MABVPxTransform@2@1@Z 10012870 f   CmVisualization.obj
 0001:00011910       ?visualizeLinearLimit@Cm@physx@@YAXAAVRenderOutput@12@MABVPxTransform@2@1M_N@Z 10012910 f   CmVisualization.obj
 0001:00011b80       ?visualizeAngularLimit@Cm@physx@@YAXAAVRenderOutput@12@MABVPxTransform@2@MM_N@Z 10012b80 f   CmVisualization.obj
 0001:00011d20       ?visualizeLimitCone@Cm@physx@@YAXAAVRenderOutput@12@MABVPxTransform@2@MM_N@Z 10012d20 f   CmVisualization.obj
 0001:00011fa0       ?visualizeDoubleCone@Cm@physx@@YAXAAVRenderOutput@12@MABVPxTransform@2@M_N@Z 10012fa0 f   CmVisualization.obj
 0001:00012200       ?contactCapsuleMesh@Gu@physx@@YA_NABVGeometryUnion@12@0ABVPxTransform@2@1ABMAAUCache@12@AAVContactBuffer@12@@Z 10013200 f   GuContactCapsuleMesh.obj
 0001:00012660       ?contactCapsuleHeightfield@Gu@physx@@YA_NABVGeometryUnion@12@0ABVPxTransform@2@1ABMAAUCache@12@AAVContactBuffer@12@@Z 10013660 f   GuContactCapsuleMesh.obj
 0001:00012a00       ??0Box@Gu@physx@@QAE@ABV012@@Z 10013a00 f i GuContactCapsuleMesh.obj
 0001:00012a70       ??0Box@Gu@physx@@QAE@ABVPxVec3@2@0ABVPxMat33@2@@Z 10013a70 f i GuContactCapsuleMesh.obj
 0001:00012ae0       ??0Box@Gu@physx@@QAE@XZ    10013ae0 f i GuContactCapsuleMesh.obj
 0001:00012d00       ??0FastVertex2ShapeScaling@Cm@physx@@QAE@XZ 10013d00 f i GuContactCapsuleMesh.obj
 0001:00012d80       ??0GeometryUnion@Gu@physx@@QAE@ABW4PxEMPTY@2@@Z 10013d80 f i GuContactCapsuleMesh.obj
 0001:00012d90       ??0GeometryUnion@Gu@physx@@QAE@XZ 10013d90 f i GuContactCapsuleMesh.obj
 0001:00012da0       ??0HeightFieldData@Gu@physx@@QAE@$$QAU012@@Z 10013da0 f i GuContactCapsuleMesh.obj
 0001:00012e30       ??0HeightFieldData@Gu@physx@@QAE@ABU012@@Z 10013e30 f i GuContactCapsuleMesh.obj
 0001:00012ec0       ??0HeightFieldData@Gu@physx@@QAE@ABW4PxEMPTY@2@@Z 10013ec0 f i GuContactCapsuleMesh.obj
 0001:00012ed0       ??0HeightFieldData@Gu@physx@@QAE@XZ 10013ed0 f i GuContactCapsuleMesh.obj
 0001:00012ee0       ??0HeightFieldUtil@Gu@physx@@QAE@ABVPxHeightFieldGeometry@2@@Z 10013ee0 f i GuContactCapsuleMesh.obj
 0001:00012f20       ??0HeightFieldUtil@Gu@physx@@QAE@ABVPxHeightFieldGeometry@2@ABVHeightField@12@@Z 10013f20 f i GuContactCapsuleMesh.obj
 0001:00012f60       ??0HeightFieldUtil@Gu@physx@@QAE@XZ 10013f60 f i GuContactCapsuleMesh.obj
 0001:00012f70       ??0MaterialIndicesStruct@physx@@QAE@ABW4PxEMPTY@1@@Z 10013f70 f i GuContactCapsuleMesh.obj
 0001:00012f80       ??0MaterialIndicesStruct@physx@@QAE@XZ 10013f80 f i GuContactCapsuleMesh.obj
 0001:00012f90       ??0PxQuat@physx@@QAE@ABVPxMat33@1@@Z 10013f90 f i GuContactCapsuleMesh.obj
 0001:000131c0       ??0PxVec3@physx@@QAE@XZ    100141c0 f i GuContactCapsuleMesh.obj
 0001:000131d0       ??0RTree@Gu@physx@@QAE@ABU012@@Z 100141d0 f i GuContactCapsuleMesh.obj
 0001:00013270       ??0RTreeMidphase@Gu@physx@@QAE@ABV012@@Z 10014270 f i GuContactCapsuleMesh.obj
 0001:000132a0       ??0RTreeMidphase@Gu@physx@@QAE@ABW4PxEMPTY@2@@Z 100142a0 f i GuContactCapsuleMesh.obj
 0001:000132d0       ??1?$EntityReport@I@Gu@physx@@UAE@XZ 100142d0 f i GuContactCapsuleMesh.obj
 0001:000132e0       ??1?$MeshHitCallback@UPxRaycastHit@physx@@@Gu@physx@@UAE@XZ 100142e0 f i GuContactCapsuleMesh.obj
 0001:000132f0       ??1Box@Gu@physx@@QAE@XZ    100142f0 f i GuContactCapsuleMesh.obj
 0001:00013300       ??1MaterialIndicesStruct@physx@@QAE@XZ 10014300 f i GuContactCapsuleMesh.obj
 0001:00013310       ??1PxBase@physx@@MAE@XZ    10014310 f i GuContactCapsuleMesh.obj
 0001:00013320       ??1PxHeightField@physx@@MAE@XZ 10014320 f i GuContactCapsuleMesh.obj
 0001:00013330       ??1PxTriangleMesh@physx@@MAE@XZ 10014330 f i GuContactCapsuleMesh.obj
 0001:00013340       ??1RTree@Gu@physx@@QAE@XZ  10014340 f i GuContactCapsuleMesh.obj
 0001:00013350       ??4Box@Gu@physx@@QAEABV012@ABV012@@Z 10014350 f i GuContactCapsuleMesh.obj
 0001:000133c0       ??4GeometryUnion@Gu@physx@@QAEAAV012@$$QAV012@@Z 100143c0 f i GuContactCapsuleMesh.obj
 0001:000133f0       ??4GeometryUnion@Gu@physx@@QAEAAV012@ABV012@@Z 100143f0 f i GuContactCapsuleMesh.obj
 0001:00013420       ??4HeightFieldData@Gu@physx@@QAEAAU012@$$QAU012@@Z 10014420 f i GuContactCapsuleMesh.obj
 0001:000134b0       ??4HeightFieldData@Gu@physx@@QAEAAU012@ABU012@@Z 100144b0 f i GuContactCapsuleMesh.obj
 0001:00013540       ??4HeightFieldUtil@Gu@physx@@QAEAAV012@$$QAV012@@Z 10014540 f i GuContactCapsuleMesh.obj
 0001:00013570       ??4HeightFieldUtil@Gu@physx@@QAEAAV012@ABV012@@Z 10014570 f i GuContactCapsuleMesh.obj
 0001:00013590       ??4MaterialIndicesStruct@physx@@QAEAAU01@ABU01@@Z 10014590 f i GuContactCapsuleMesh.obj
 0001:000135b0       ??4MeshInterface@Gu@physx@@QAEAAV012@ABV012@@Z 100145b0 f i GuContactCapsuleMesh.obj
 0001:000135d0       ??4RTree@Gu@physx@@QAEAAU012@ABU012@@Z 100145d0 f i GuContactCapsuleMesh.obj
 0001:00013670       ??4RTreeMidphase@Gu@physx@@QAEAAV012@ABV012@@Z 10014670 f i GuContactCapsuleMesh.obj
 0001:000136a0       ??_E?$EntityReport@I@Gu@physx@@UAEPAXI@Z 100146a0 f i GuContactCapsuleMesh.obj
 0001:000136a0       ??_G?$EntityReport@I@Gu@physx@@UAEPAXI@Z 100146a0 f i GuContactCapsuleMesh.obj
 0001:000136d0       ??_G?$MeshHitCallback@UPxRaycastHit@physx@@@Gu@physx@@UAEPAXI@Z 100146d0 f i GuContactCapsuleMesh.obj
 0001:000136d0       ??_E?$MeshHitCallback@UPxRaycastHit@physx@@@Gu@physx@@UAEPAXI@Z 100146d0 f i GuContactCapsuleMesh.obj
 0001:00013700       ??_ECapsuleHeightfieldContactGenerationCallback@?A0xbd7fd348@@UAEPAXI@Z 10014700 f i GuContactCapsuleMesh.obj
 0001:00013700       ??_GCapsuleHeightfieldContactGenerationCallback@?A0xbd7fd348@@UAEPAXI@Z 10014700 f i GuContactCapsuleMesh.obj
 0001:00013730       ??_ECapsuleMeshContactGenerationCallback@?A0xbd7fd348@@UAEPAXI@Z 10014730 f i GuContactCapsuleMesh.obj
 0001:00013730       ??_GCapsuleMeshContactGenerationCallback@?A0xbd7fd348@@UAEPAXI@Z 10014730 f i GuContactCapsuleMesh.obj
 0001:00013760       ??_EPxBase@physx@@MAEPAXI@Z 10014760 f i GuContactCapsuleMesh.obj
 0001:00013760       ??_GPxBase@physx@@MAEPAXI@Z 10014760 f i GuContactCapsuleMesh.obj
 0001:00013790       ??_H@YGXPAXIIP6EPAX0@Z@Z   10014790 f i GuContactCapsuleMesh.obj
 0001:000137c0       ?GetMeshInterface@RTreeMidphase@Gu@physx@@QBEPBVMeshInterface@23@XZ 100147c0 f i GuContactCapsuleMesh.obj
 0001:000137d0       ?GetNbTriangles@MeshInterface@Gu@physx@@QBEIXZ 100147d0 f i GuContactCapsuleMesh.obj
 0001:000137e0       ?GetNbVertices@MeshInterface@Gu@physx@@QBEIXZ 100147e0 f i GuContactCapsuleMesh.obj
 0001:000137f0       ?GetTriangle@MeshInterface@Gu@physx@@QBEXAAUVertexPointers@23@I@Z 100147f0 f i GuContactCapsuleMesh.obj
 0001:00013880       ?GetTriangleVerts@MeshInterface@Gu@physx@@SAXIIIIAAVPxVec3@3@00@Z 10014880 f i GuContactCapsuleMesh.obj
 0001:00013910       ?GetTriangleVerts@MeshInterface@Gu@physx@@SAXIIIIAAVPxVec3@3@00AAI11@Z 10014910 f i GuContactCapsuleMesh.obj
 0001:000139c0       ?GetTris@MeshInterface@Gu@physx@@QBEPBXXZ 100149c0 f i GuContactCapsuleMesh.obj
 0001:000139d0       ?GetVerts@MeshInterface@Gu@physx@@QBEPBVPxVec3@3@XZ 100149d0 f i GuContactCapsuleMesh.obj
 0001:00014920       ?SetMeshInterface@RTreeMidphase@Gu@physx@@QAEXPBVMeshInterface@23@@Z 10015920 f i GuContactCapsuleMesh.obj
 0001:00014930       ?SetNbTriangles@MeshInterface@Gu@physx@@QAEXI@Z 10015930 f i GuContactCapsuleMesh.obj
 0001:00014940       ?SetNbVertices@MeshInterface@Gu@physx@@QAEXI@Z 10015940 f i GuContactCapsuleMesh.obj
 0001:00014950       ?allocate@MaterialIndicesStruct@physx@@QAEXG@Z 10015950 f i GuContactCapsuleMesh.obj
 0001:00014980       ?ceilUp@HeightFieldUtil@Gu@physx@@SAMM@Z 10015980 f i GuContactCapsuleMesh.obj
 0001:000149c0       ?clipShapeNormalToVertexVoronoi@HeightFieldUtil@Gu@physx@@QBE_NAAVPxVec3@3@III@Z 100159c0 f i GuContactCapsuleMesh.obj
 0001:00014d60       ?computeAABBExtent@Box@Gu@physx@@QBE?AVPxVec3@3@XZ 10015d60 f i GuContactCapsuleMesh.obj
 0001:00014e20       ?computeBounds@GeometryUnion@Gu@physx@@QBE?AVPxBounds3@3@ABVPxTransform@3@@Z 10015e20 f i GuContactCapsuleMesh.obj
 0001:00014e40       ?computeBoxPoints@Box@Gu@physx@@QBEXPIAVPxVec3@3@@Z 10015e40 f i GuContactCapsuleMesh.obj
 0001:00015170       ?computePointNormal@HeightFieldUtil@Gu@physx@@QBE?AVPxVec3@3@IABV43@ABVPxTransform@3@MMMMAAM@Z 10016170 f i GuContactCapsuleMesh.obj
 0001:000155a0       ?deallocate@MaterialIndicesStruct@physx@@QAEXXZ 100165a0 f i GuContactCapsuleMesh.obj
 0001:000155c0       ?floorDown@HeightFieldUtil@Gu@physx@@SAMM@Z 100165c0 f i GuContactCapsuleMesh.obj
 0001:00015630       ?get64BitBasePage@RTree@Gu@physx@@IBEPAURTreePage@23@XZ 10016630 f i GuContactCapsuleMesh.obj
 0001:00015640       ?getConcreteTypeName@PxBase@physx@@UBEPBDXZ 10016640 f i GuContactCapsuleMesh.obj
 0001:00015650       ?getConcreteTypeName@PxHeightField@physx@@UBEPBDXZ 10016650 f i GuContactCapsuleMesh.obj
 0001:00015660       ?getConcreteTypeName@PxTriangleMesh@physx@@UBEPBDXZ 10016660 f i GuContactCapsuleMesh.obj
 0001:00015670       ?getConvexEdgeThreshold@HeightField@Gu@physx@@UBEMXZ 10016670 f i GuContactCapsuleMesh.obj
 0001:00015680       ?getEdgeDirection@HeightFieldUtil@Gu@physx@@QBE?AVPxVec3@3@II@Z 10016680 f i GuContactCapsuleMesh.obj
 0001:000157c0       ?getFeatureIndex@HeightFieldUtil@Gu@physx@@SAII@Z 100167c0 f i GuContactCapsuleMesh.obj
 0001:000157d0       ?getFeatureType@HeightFieldUtil@Gu@physx@@SA?AW4Feature@123@I@Z 100167d0 f i GuContactCapsuleMesh.obj
 0001:000157e0       ?getFlags@HeightField@Gu@physx@@UBE?AV?$PxFlags@W4Enum@PxHeightFieldFlag@physx@@G@3@XZ 100167e0 f i GuContactCapsuleMesh.obj
 0001:00015800       ?getFormat@HeightField@Gu@physx@@UBE?AW4Enum@PxHeightFieldFormat@3@XZ 10016800 f i GuContactCapsuleMesh.obj
 0001:00015810       ?getGeometry@GeometryUnion@Gu@physx@@QBEABVPxGeometry@3@XZ 10016810 f i GuContactCapsuleMesh.obj
 0001:00015820       ?getHeight@HeightField@Gu@physx@@UBEMMM@Z 10016820 f i GuContactCapsuleMesh.obj
 0001:00015880       ?getHeightAtShapePoint2@HeightFieldUtil@Gu@physx@@QBEMIMM@Z 10016880 f i GuContactCapsuleMesh.obj
 0001:000158c0       ?getHeightAtShapePoint@HeightFieldUtil@Gu@physx@@QBEMMM@Z 100168c0 f i GuContactCapsuleMesh.obj
 0001:00015930       ?getHeightField@HeightFieldUtil@Gu@physx@@QBEABVHeightField@23@XZ 10016930 f i GuContactCapsuleMesh.obj
 0001:00015940       ?getHeightFieldGeometry@HeightFieldUtil@Gu@physx@@QBEABVPxHeightFieldGeometry@3@XZ 10016940 f i GuContactCapsuleMesh.obj
 0001:00015950       ?getHeightInternal2@HeightField@Gu@physx@@QBEMIMM@Z 10016950 f i GuContactCapsuleMesh.obj
 0001:00015aa0       ?getInverse@PxMat33@physx@@QBE?AV12@XZ 10016aa0 f i GuContactCapsuleMesh.obj
 0001:00015d00       ?getNbColumns@HeightField@Gu@physx@@UBEIXZ 10016d00 f i GuContactCapsuleMesh.obj
 0001:00015d10       ?getNbRows@HeightField@Gu@physx@@UBEIXZ 10016d10 f i GuContactCapsuleMesh.obj
 0001:00015d20       ?getNodeIdxFromNodeHandle@RTree@Gu@physx@@IBEII@Z 10016d20 f i GuContactCapsuleMesh.obj
 0001:00015d30       ?getNormalAtShapePoint2@HeightFieldUtil@Gu@physx@@QBE?AVPxVec3@3@IMM@Z 10016d30 f i GuContactCapsuleMesh.obj
 0001:00015d80       ?getNormalAtShapePoint@HeightFieldUtil@Gu@physx@@QBE?AVPxVec3@3@MM@Z 10016d80 f i GuContactCapsuleMesh.obj
 0001:00015e20       ?getNormal_2@HeightField@Gu@physx@@QBE?AVPxVec3@3@IMMMMM@Z 10016e20 f i GuContactCapsuleMesh.obj
 0001:00015f30       ?getOneOverColumnScale@HeightFieldUtil@Gu@physx@@QBEMXZ 10016f30 f i GuContactCapsuleMesh.obj
 0001:00015f40       ?getOneOverHeightScale@HeightFieldUtil@Gu@physx@@QBEMXZ 10016f40 f i GuContactCapsuleMesh.obj
 0001:00015f50       ?getOneOverRowScale@HeightFieldUtil@Gu@physx@@QBEMXZ 10016f50 f i GuContactCapsuleMesh.obj
 0001:00015f60       ?getPageFromNodeHandle@RTree@Gu@physx@@IBEPAURTreePage@23@I@Z 10016f60 f i GuContactCapsuleMesh.obj
 0001:00015f70       ?getRTreeMidphaseData@RTreeMidphase@Gu@physx@@QBEXAAURTreeMidphaseData@23@@Z 10016f70 f i GuContactCapsuleMesh.obj
 0001:00015f90       ?getSampleStride@HeightField@Gu@physx@@UBEIXZ 10016f90 f i GuContactCapsuleMesh.obj
 0001:00015fa0       ?getThickness@HeightField@Gu@physx@@UBEMXZ 10016fa0 f i GuContactCapsuleMesh.obj
 0001:00015fb0       ?getTransform@Box@Gu@physx@@QBE?AVPxTransform@3@XZ 10016fb0 f i GuContactCapsuleMesh.obj
 0001:00016000       ?getTriangleMaterialIndex@HeightField@Gu@physx@@UBEGI@Z 10017000 f i GuContactCapsuleMesh.obj
 0001:00016030       ?getTriangleNormal@HeightField@Gu@physx@@UBE?AVPxVec3@3@I@Z 10017030 f i GuContactCapsuleMesh.obj
 0001:00016050       ?getTriangleNormalInternal@HeightField@Gu@physx@@QBE?AVPxVec3@3@I@Z 10017050 f i GuContactCapsuleMesh.obj
 0001:00016150       ?getTriangleVertexIndices@HeightField@Gu@physx@@QBEXIAAI00@Z 10017150 f i GuContactCapsuleMesh.obj
 0001:000161f0       ?getType@GeometryUnion@Gu@physx@@QBE?AW4Enum@PxGeometryType@3@XZ 100171f0 f i GuContactCapsuleMesh.obj
 0001:00016200       ?getVertexNormal@HeightFieldUtil@Gu@physx@@QBE?AVPxVec3@3@I@Z 10017200 f i GuContactCapsuleMesh.obj
 0001:00016230       ?has16BitIndices@MeshInterface@Gu@physx@@QBEIXZ 10017230 f i GuContactCapsuleMesh.obj
 0001:00016240       ?hf2shapen@HeightFieldUtil@Gu@physx@@QBE?AVPxVec3@3@ABV43@@Z 10017240 f i GuContactCapsuleMesh.obj
 0001:00016280       ?hf2shapep@HeightFieldUtil@Gu@physx@@QBE?AVPxVec3@3@ABV43@@Z 10017280 f i GuContactCapsuleMesh.obj
 0001:000162c0       ?hf2worldn@HeightFieldUtil@Gu@physx@@QBE?AVPxVec3@3@ABVPxTransform@3@ABV43@@Z 100172c0 f i GuContactCapsuleMesh.obj
 0001:000163f0       ?hf2worldp@HeightFieldUtil@Gu@physx@@QBE?AVPxVec3@3@ABVPxTransform@3@ABV43@@Z 100173f0 f i GuContactCapsuleMesh.obj
 0001:00016540       ?init@FastVertex2ShapeScaling@Cm@physx@@QAEXABVPxVec3@3@ABVPxQuat@3@@Z 10017540 f i GuContactCapsuleMesh.obj
 0001:00016ab0       ?initialize@HeightFieldUtil@Gu@physx@@AAEXXZ 10017ab0 f i GuContactCapsuleMesh.obj
 0001:00016ae0       ?initialize@HeightFieldUtil@Gu@physx@@QAEXABVPxHeightFieldGeometry@3@ABVHeightField@23@@Z 10017ae0 f i GuContactCapsuleMesh.obj
 0001:00016b20       ?isCollisionVertex@HeightFieldUtil@Gu@physx@@QBE_NIII@Z 10017b20 f i GuContactCapsuleMesh.obj
 0001:00016b40       ?isKindOf@PxBase@physx@@MBE_NPBD@Z 10017b40 f i GuContactCapsuleMesh.obj
 0001:00016b90       ?isKindOf@PxHeightField@physx@@MBE_NPBD@Z 10017b90 f i GuContactCapsuleMesh.obj
 0001:00016c10       ?isKindOf@PxTriangleMesh@physx@@MBE_NPBD@Z 10017c10 f i GuContactCapsuleMesh.obj
 0001:00016c90       ?isQueryVertex@HeightFieldUtil@Gu@physx@@QBE_NIII@Z 10017c90 f i GuContactCapsuleMesh.obj
 0001:00016d20       ?isReleasable@PxBase@physx@@UBE_NXZ 10017d20 f i GuContactCapsuleMesh.obj
 0001:00016d30       ?isShapePointOnHeightField@HeightFieldUtil@Gu@physx@@QBE_NMM@Z 10017d30 f i GuContactCapsuleMesh.obj
 0001:00016d90       ?isValid@Box@Gu@physx@@QBE_NXZ 10017d90 f i GuContactCapsuleMesh.obj
 0001:00016db0       ?makeFeatureCode@HeightFieldUtil@Gu@physx@@SAIIW4Feature@123@@Z 10017db0 f i GuContactCapsuleMesh.obj
 0001:000170c0       ?pagePtrFrom32Bits@RTree@Gu@physx@@KAPAURTreePage@23@I@Z 100180c0 f i GuContactCapsuleMesh.obj
 0001:000170d0       ?pagePtrTo32Bits@RTree@Gu@physx@@KAIPBURTreePage@23@@Z 100180d0 f i GuContactCapsuleMesh.obj
 0001:00017820       ?rotate@Box@Gu@physx@@QBE?AVPxVec3@3@ABV43@@Z 10018820 f i GuContactCapsuleMesh.obj
 0001:000178c0       ?rotateInv@Box@Gu@physx@@QBE?AVPxVec3@3@ABV43@@Z 100188c0 f i GuContactCapsuleMesh.obj
 0001:00017950       ?setAxes@Box@Gu@physx@@QAEXABVPxVec3@3@00@Z 10018950 f i GuContactCapsuleMesh.obj
 0001:000179a0       ?setEmpty@Box@Gu@physx@@QAEXXZ 100189a0 f i GuContactCapsuleMesh.obj
 0001:00017a10       ?shape2hfp@HeightFieldUtil@Gu@physx@@QBE?AVPxVec3@3@ABV43@@Z 10018a10 f i GuContactCapsuleMesh.obj
 0001:00017a50       ?transform@Box@Gu@physx@@QBE?AVPxVec3@3@ABV43@@Z 10018a50 f i GuContactCapsuleMesh.obj
 0001:00017b10       ?transformFast@PxBounds3@physx@@SA?AV12@ABVPxTransform@2@ABV12@@Z 10018b10 f i GuContactCapsuleMesh.obj
 0001:00017ec0       ?contactConvexMesh@Gu@physx@@YA_NABVGeometryUnion@12@0ABVPxTransform@2@1ABMAAUCache@12@AAVContactBuffer@12@@Z 10018ec0 f   GuContactConvexMesh.obj
 0001:00017fa0       ?contactBoxMesh@Gu@physx@@YA_NABVGeometryUnion@12@0ABVPxTransform@2@1ABMAAUCache@12@AAVContactBuffer@12@@Z 10018fa0 f   GuContactConvexMesh.obj
 0001:000180c0       ?contactConvexHeightfield@Gu@physx@@YA_NABVGeometryUnion@12@0ABVPxTransform@2@1ABMAAUCache@12@AAVContactBuffer@12@@Z 100190c0 f   GuContactConvexMesh.obj
 0001:00018180       ?contactBoxHeightfield@Gu@physx@@YA_NABVGeometryUnion@12@0ABVPxTransform@2@1ABMAAUCache@12@AAVContactBuffer@12@@Z 10019180 f   GuContactConvexMesh.obj
 0001:00018250       ??0CachedEdge@Gu@physx@@QAE@XZ 10019250 f i GuContactConvexMesh.obj
 0001:00018260       ??0CachedVertex@Gu@physx@@QAE@XZ 10019260 f i GuContactConvexMesh.obj
 0001:000187e0       ??0HullPolygonData@Gu@physx@@QAE@ABU012@@Z 100197e0 f i GuContactConvexMesh.obj
 0001:00018820       ??0PolygonalBox@Gu@physx@@QAE@ABV012@@Z 10019820 f i GuContactConvexMesh.obj
 0001:00018aa0       ??0PxVec3@physx@@QAE@ABV01@@Z 10019aa0 f i GuContactConvexMesh.obj
 0001:00018ac0       ??0SeparatingAxes@Gu@physx@@QAE@$$QAV012@@Z 10019ac0 f i GuContactConvexMesh.obj
 0001:00018b90       ??0SeparatingAxes@Gu@physx@@QAE@ABV012@@Z 10019b90 f i GuContactConvexMesh.obj
 0001:00018c60       ??0SeparatingAxes@Gu@physx@@QAE@XZ 10019c60 f i GuContactConvexMesh.obj
 0001:00018c70       ??4SeparatingAxes@Gu@physx@@QAEAAV012@$$QAV012@@Z 10019c70 f i GuContactConvexMesh.obj
 0001:00018d40       ??4SeparatingAxes@Gu@physx@@QAEAAV012@ABV012@@Z 10019d40 f i GuContactConvexMesh.obj
 0001:00018e10       ??AContainer@Gu@physx@@QAEAAII@Z 10019e10 f i GuContactConvexMesh.obj
 0001:00018e20       ??AContainer@Gu@physx@@QBEII@Z 10019e20 f i GuContactConvexMesh.obj
 0001:00018e30       ??_EConvexMeshContactGenerationCallback@@UAEPAXI@Z 10019e30 f i GuContactConvexMesh.obj
 0001:00018e30       ??_GConvexMeshContactGenerationCallback@@UAEPAXI@Z 10019e30 f i GuContactConvexMesh.obj
 0001:00018e60       ??_GConvexVsHeightfieldContactGenerationCallback@?A0xaac19a4e@@UAEPAXI@Z 10019e60 f i GuContactConvexMesh.obj
 0001:00018e60       ??_EConvexVsHeightfieldContactGenerationCallback@?A0xaac19a4e@@UAEPAXI@Z 10019e60 f i GuContactConvexMesh.obj
 0001:00018e90       ??__G@YGXPAX0IIP6EPAX00@Z@Z 10019e90 f i GuContactConvexMesh.obj
 0001:00018ec0       ?Add@Container@Gu@physx@@QAEAAV123@ABV123@@Z 10019ec0 f i GuContactConvexMesh.obj
 0001:00018f10       ?Add@Container@Gu@physx@@QAEAAV123@I@Z 10019f10 f i GuContactConvexMesh.obj
 0001:00018f40       ?Add@Container@Gu@physx@@QAEAAV123@M@Z 10019f40 f i GuContactConvexMesh.obj
 0001:00018f80       ?Add@Container@Gu@physx@@QAEAAV123@PBII@Z 10019f80 f i GuContactConvexMesh.obj
 0001:00018fe0       ?Add@Container@Gu@physx@@QAEAAV123@PBMI@Z 10019fe0 f i GuContactConvexMesh.obj
 0001:00019030       ?AddUnique@Container@Gu@physx@@QAEAAV123@I@Z 1001a030 f i GuContactConvexMesh.obj
 0001:00019070       ?DeleteIndex@Container@Gu@physx@@QAEXI@Z 1001a070 f i GuContactConvexMesh.obj
 0001:00019090       ?DeleteLastEntry@Container@Gu@physx@@QAEXXZ 1001a090 f i GuContactConvexMesh.obj
 0001:000190a0       ?ForceSize@Container@Gu@physx@@QAEXI@Z 1001a0a0 f i GuContactConvexMesh.obj
 0001:000190b0       ?GetEntries@Container@Gu@physx@@QBEPAIXZ 1001a0b0 f i GuContactConvexMesh.obj
 0001:000190c0       ?GetEntry@Container@Gu@physx@@QBEII@Z 1001a0c0 f i GuContactConvexMesh.obj
 0001:000190d0       ?GetFirst@Container@Gu@physx@@QBEIXZ 1001a0d0 f i GuContactConvexMesh.obj
 0001:000190e0       ?GetGrowthFactor@Container@Gu@physx@@QBEMXZ 1001a0e0 f i GuContactConvexMesh.obj
 0001:000190f0       ?GetLast@Container@Gu@physx@@QBEIXZ 1001a0f0 f i GuContactConvexMesh.obj
 0001:00019100       ?GetMaxNbEntries@Container@Gu@physx@@QBEIXZ 1001a100 f i GuContactConvexMesh.obj
 0001:00019110       ?GetNbEntries@Container@Gu@physx@@QBEIXZ 1001a110 f i GuContactConvexMesh.obj
 0001:00019120       ?IsFull@Container@Gu@physx@@QBE_NXZ 1001a120 f i GuContactConvexMesh.obj
 0001:00019130       ?IsNotEmpty@Container@Gu@physx@@QBEHXZ 1001a130 f i GuContactConvexMesh.obj
 0001:00019140       ?Reserve@Container@Gu@physx@@QAEPAII@Z 1001a140 f i GuContactConvexMesh.obj
 0001:00019170       ?Reset@Container@Gu@physx@@QAEXXZ 1001a170 f i GuContactConvexMesh.obj
 0001:00019180       ?SetGrowthFactor@Container@Gu@physx@@QAEXM@Z 1001a180 f i GuContactConvexMesh.obj
 0001:000191b0       ?addData@?$CacheMap@UCachedEdge@Gu@physx@@$0IA@@Gu@physx@@QAE_NABUCachedEdge@23@@Z 1001a1b0 f i GuContactConvexMesh.obj
 0001:000192a0       ?addData@?$CacheMap@UCachedVertex@Gu@physx@@$0IA@@Gu@physx@@QAE_NABUCachedVertex@23@@Z 1001a2a0 f i GuContactConvexMesh.obj
 0001:0001a660       ?contains@?$CacheMap@UCachedEdge@Gu@physx@@$0IA@@Gu@physx@@QBE_NABUCachedEdge@23@@Z 1001b660 f i GuContactConvexMesh.obj
 0001:0001a6e0       ?contains@?$CacheMap@UCachedVertex@Gu@physx@@$0IA@@Gu@physx@@QBE_NABUCachedVertex@23@@Z 1001b6e0 f i GuContactConvexMesh.obj
 0001:0001b870       ?getAxes@SeparatingAxes@Gu@physx@@QBEPBVPxVec3@3@XZ 1001c870 f i GuContactConvexMesh.obj
 0001:0001b880       ?getNumAxes@SeparatingAxes@Gu@physx@@QBEIXZ 1001c880 f i GuContactConvexMesh.obj
 0001:0001c8d0       ?processHit@ConvexMeshContactGenerationCallback@@UAE_NABUPxRaycastHit@physx@@ABVPxVec3@3@11AAMPBI@Z 1001d8d0 f i GuContactConvexMesh.obj
 0001:0001cf40       ?reset@SeparatingAxes@Gu@physx@@QAEXXZ 1001df40 f i GuContactConvexMesh.obj
 0001:0001def0       ?findRotationMatrixFromZ@Gu@physx@@YA?AVPxMat33@2@ABVPxVec3@2@@Z 1001eef0 f   GuContactPolygonPolygon.obj
 0001:0001e190       ?contactPolygonPolygonExt@Gu@physx@@YA_NIPBVPxVec3@2@PBEABVMatrix34@Cm@2@ABVPxPlane@2@ABVPxMat33@2@I01234ABV32@22IIAAVContactBuffer@12@_N5M@Z 1001f190 f   GuContactPolygonPolygon.obj
 0001:000201d0       ?contactSphereMesh@Gu@physx@@YA_NABVGeometryUnion@12@0ABVPxTransform@2@1ABMAAUCache@12@AAVContactBuffer@12@@Z 100211d0 f   GuContactSphereMesh.obj
 0001:000207f0       ?contactSphereHeightField@Gu@physx@@YA_NABVGeometryUnion@12@0ABVPxTransform@2@1ABMAAUCache@12@AAVContactBuffer@12@@Z 100217f0 f   GuContactSphereMesh.obj
 0001:00020a50       ??$median3@USortKey@@$$CBU?$Less@USortKey@@@shdfnd@physx@@@internal@shdfnd@physx@@YAXPAUSortKey@@HHABU?$Less@USortKey@@@12@@Z 10021a50 f i GuContactSphereMesh.obj
 0001:00020b20       ??$partition@USortKey@@$$CBU?$Less@USortKey@@@shdfnd@physx@@@internal@shdfnd@physx@@YAHPAUSortKey@@HHABU?$Less@USortKey@@@12@@Z 10021b20 f i GuContactSphereMesh.obj
 0001:00020bc0       ??$smallSort@USortKey@@$$CBU?$Less@USortKey@@@shdfnd@physx@@@internal@shdfnd@physx@@YAXPAUSortKey@@HHABU?$Less@USortKey@@@12@@Z 10021bc0 f i GuContactSphereMesh.obj
 0001:00020d20       ??$sort@USortKey@@U?$Less@USortKey@@@shdfnd@physx@@VNullAllocator@?A0x507bb65a@@@shdfnd@physx@@YAXPAUSortKey@@IABU?$Less@USortKey@@@01@ABVNullAllocator@?A0x507bb65a@@I@Z 10021d20 f i GuContactSphereMesh.obj
 0001:00020ea0       ??0TriangleData@@QAE@XZ    10021ea0 f i GuContactSphereMesh.obj
 0001:00020ef0       ??_ESphereHeightfieldContactGenerationCallback@?A0x507bb65a@@UAEPAXI@Z 10021ef0 f i GuContactSphereMesh.obj
 0001:00020ef0       ??_GSphereHeightfieldContactGenerationCallback@?A0x507bb65a@@UAEPAXI@Z 10021ef0 f i GuContactSphereMesh.obj
 0001:00020f20       ??_ESphereMeshContactGenerationCallback_NoScale@?A0x507bb65a@@UAEPAXI@Z 10021f20 f i GuContactSphereMesh.obj
 0001:00020f20       ??_GSphereMeshContactGenerationCallback_NoScale@?A0x507bb65a@@UAEPAXI@Z 10021f20 f i GuContactSphereMesh.obj
 0001:00020f60       ??_GSphereMeshContactGenerationCallback_Scale@?A0x507bb65a@@UAEPAXI@Z 10021f60 f i GuContactSphereMesh.obj
 0001:00020f60       ??_ESphereMeshContactGenerationCallback_Scale@?A0x507bb65a@@UAEPAXI@Z 10021f60 f i GuContactSphereMesh.obj
 0001:000229c0       ?selectNormal@Gu@physx@@YA_NEMM@Z 100239c0 f   GuFeatureCode.obj
 0001:00022ae0       ?barycentricCoordinates@Gu@physx@@YAXABT__m128@@00AAT3@@Z 10023ae0 f   GuBarycentricCoordinates.obj
 0001:00022b50       ?barycentricCoordinates@Gu@physx@@YAXABT__m128@@000AAT3@1@Z 10023b50 f   GuBarycentricCoordinates.obj
 0001:00022cb0       ?barycentricCoordinates@Gu@physx@@YAXABT__m128@@00AAT3@1@Z 10023cb0 f   GuBarycentricCoordinates.obj
 0001:00022db0       ?addAxis@SeparatingAxes@Gu@physx@@QAE_NABVPxVec3@3@@Z 10023db0 f   GuSeparatingAxes.obj
 0001:00022e60       ??0BigConvexData@physx@@QAE@XZ 10023e60 f   GuBigConvexData.obj
 0001:00022e80       ??1BigConvexData@physx@@QAE@XZ 10023e80 f   GuBigConvexData.obj
 0001:00022ec0       ?Load@BigConvexData@physx@@QAE_NAAVPxInputStream@2@@Z 10023ec0 f   GuBigConvexData.obj
 0001:00022f70       ?ComputeOffset@BigConvexData@physx@@QBEIABVPxVec3@2@@Z 10023f70 f   GuBigConvexData.obj
 0001:00023000       ?ComputeNearestOffset@BigConvexData@physx@@QBEIABVPxVec3@2@@Z 10024000 f   GuBigConvexData.obj
 0001:000230a0       ?exportExtraData@BigConvexData@physx@@QAEXAAVPxSerializationContext@2@@Z 100240a0 f   GuBigConvexData.obj
 0001:00023100       ?importExtraData@BigConvexData@physx@@QAEXAAVPxDeserializationContext@2@@Z 10024100 f   GuBigConvexData.obj
 0001:00023160       ?CreateOffsets@BigConvexData@physx@@IAEXXZ 10024160 f   GuBigConvexData.obj
 0001:00023190       ?VLoad@BigConvexData@physx@@IAE_NAAVPxInputStream@2@@Z 10024190 f   GuBigConvexData.obj
 0001:000232b0       ??0BigConvexData@physx@@QAE@ABW4PxEMPTY@1@@Z 100242b0 f i GuBigConvexData.obj
 0001:000232c0       ??4BigConvexData@physx@@QAEAAV01@ABV01@@Z 100242c0 f i GuBigConvexData.obj
 0001:000232f0       ?GetAdjacentVerts@BigConvexData@physx@@QBEPBEXZ 100242f0 f i GuBigConvexData.obj
 0001:00023300       ?GetNbNeighbors@BigConvexData@physx@@QBEGI@Z 10024300 f i GuBigConvexData.obj
 0001:00023320       ?GetNbSamples@BigConvexData@physx@@QBEIXZ 10024320 f i GuBigConvexData.obj
 0001:00023330       ?GetNbVerts@BigConvexData@physx@@QBEIXZ 10024330 f i GuBigConvexData.obj
 0001:00023340       ?GetNeighbors@BigConvexData@physx@@QBEPBEI@Z 10024340 f i GuBigConvexData.obj
 0001:00023360       ?GetOffset@BigConvexData@physx@@QBEGI@Z 10024360 f i GuBigConvexData.obj
 0001:00023380       ?GetSubdiv@BigConvexData@physx@@QBEIXZ 10024380 f i GuBigConvexData.obj
 0001:00023390       ?GetValencies@BigConvexData@physx@@QBEPBUValency@Gu@2@XZ 10024390 f i GuBigConvexData.obj
 0001:000233a0       ?GetValency@BigConvexData@physx@@QBEGI@Z 100243a0 f i GuBigConvexData.obj
 0001:000233c0       ?getScaledConvex@Gu@physx@@YAXAAPAVPxVec3@2@AAPAEPAV32@PAE_NPBV32@PBEIABVFastVertex2ShapeScaling@Cm@2@@Z 100243c0 f   GuConvexHelper.obj
 0001:000234c0       ?getConvexData@Gu@physx@@YA_NABVGeometryUnion@12@AAVFastVertex2ShapeScaling@Cm@2@AAVPxBounds3@2@AAUPolygonalData@12@@Z 100244c0 f   GuConvexHelper.obj
 0001:00023780       ?findUniqueConvexEdges@Gu@physx@@YAIIPIAUConvexEdge@12@IPIBUHullPolygonData@12@PIBE@Z 10024780 f   GuConvexHelper.obj
 0001:00023890       ?exportExtraData@ConvexMesh@Gu@physx@@UAEXAAVPxSerializationContext@3@@Z 10024890 f   GuConvexMesh.obj
 0001:00023910       ?importExtraData@ConvexMesh@Gu@physx@@QAEXAAVPxDeserializationContext@3@@Z 10024910 f   GuConvexMesh.obj
 0001:00023990       ?onRefCountZero@ConvexMesh@Gu@physx@@UAEXXZ 10024990 f   GuConvexMesh.obj
 0001:00023a40       ?createObject@ConvexMesh@Gu@physx@@SAPAV123@AAPAEAAVPxDeserializationContext@3@@Z 10024a40 f   GuConvexMesh.obj
 0001:00023ab0       ??0ConvexMesh@Gu@physx@@QAE@XZ 10024ab0 f   GuConvexMesh.obj
 0001:00023ba0       ?load@ConvexMesh@Gu@physx@@QAE_NAAVPxInputStream@3@@Z 10024ba0 f   GuConvexMesh.obj
 0001:00023d80       ?release@ConvexMesh@Gu@physx@@UAEXXZ 10024d80 f   GuConvexMesh.obj
 0001:00023dc0       ?getPolygonData@ConvexMesh@Gu@physx@@UBE_NIAAUPxHullPolygon@3@@Z 10024dc0 f   GuConvexMesh.obj
 0001:00023e20       ?getReferenceCount@ConvexMesh@Gu@physx@@UBEIXZ 10024e20 f   GuConvexMesh.obj
 0001:00023e30       ?getMassInformation@ConvexMesh@Gu@physx@@UBEXAAMAAVPxMat33@3@AAVPxVec3@3@@Z 10024e30 f   GuConvexMesh.obj
 0001:00023e90       ??1ConvexMesh@Gu@physx@@UAE@XZ 10024e90 f   GuConvexMesh.obj
 0001:00023ef0       ?debugVisualize@ConvexMesh@Gu@physx@@QBEXAAVRenderOutput@Cm@3@ABVMatrix34@53@ABVPxBounds3@3@_KMI@Z 10024ef0 f   GuConvexMesh.obj
 0001:00024530       ??0ConvexMesh@Gu@physx@@QAE@V?$PxFlags@W4Enum@PxBaseFlag@physx@@G@2@@Z 10025530 f i GuConvexMesh.obj
 0001:00024580       ??0GuMeshFactory@physx@@QAE@XZ 10025580 f i GuConvexMesh.obj
 0001:000246b0       ??1PxConvexMesh@physx@@MAE@XZ 100256b0 f i GuConvexMesh.obj
 0001:000246c0       ??1RefCountable@Cm@physx@@UAE@XZ 100256c0 f i GuConvexMesh.obj
 0001:000246d0       ??_EConvexMesh@Gu@physx@@UAEPAXI@Z 100256d0 f i GuConvexMesh.obj
 0001:000247d4       ??_EConvexMesh@Gu@physx@@W7AEPAXI@Z 100257d4 f i GuConvexMesh.obj
 0001:000247e0       ??_EGuMeshFactory@physx@@MAEPAXI@Z 100257e0 f i GuConvexMesh.obj
 0001:000248a0       ??_EPxConvexMesh@physx@@MAEPAXI@Z 100258a0 f i GuConvexMesh.obj
 0001:00024910       ??_GGuMeshFactory@physx@@MAEPAXI@Z 10025910 f i GuConvexMesh.obj
 0001:00024950       ??_ERefCountable@Cm@physx@@UAEPAXI@Z 10025950 f i GuConvexMesh.obj
 0001:00024950       ??_GRefCountable@Cm@physx@@UAEPAXI@Z 10025950 f i GuConvexMesh.obj
 0001:00024bb0       ?getConcreteTypeName@PxConvexMesh@physx@@UBEPBDXZ 10025bb0 f i GuConvexMesh.obj
 0001:00024bc0       ?getIndexBuffer@ConvexMesh@Gu@physx@@UBEPBEXZ 10025bc0 f i GuConvexMesh.obj
 0001:00024bf0       ?getLocalBounds@ConvexMesh@Gu@physx@@UBE?AVPxBounds3@3@XZ 10025bf0 f i GuConvexMesh.obj
 0001:00024c30       ?getNbPolygons@ConvexMesh@Gu@physx@@UBEIXZ 10025c30 f i GuConvexMesh.obj
 0001:00024c40       ?getNbVertices@ConvexMesh@Gu@physx@@UBEIXZ 10025c40 f i GuConvexMesh.obj
 0001:00024c50       ?getVertices@ConvexMesh@Gu@physx@@UBEPBVPxVec3@3@XZ 10025c50 f i GuConvexMesh.obj
 0001:00024c60       ?isKindOf@PxConvexMesh@physx@@MBE_NPBD@Z 10025c60 f i GuConvexMesh.obj
 0001:00024ce0       ?onRefCountZero@RefCountable@Cm@physx@@UAEXXZ 10025ce0 f i GuConvexMesh.obj
 0001:00024cf0       ?requires@ConvexMesh@Gu@physx@@UAEXAAVPxProcessPxBaseCallback@3@@Z 10025cf0 f i GuConvexMesh.obj
 0001:00024d00       ?reserveInternal@?$HashBase@PAVConvexMesh@Gu@physx@@PAV123@U?$Hash@PAVConvexMesh@Gu@physx@@@shdfnd@3@UGetKey@?$HashSetBase@PAVConvexMesh@Gu@physx@@U?$Hash@PAVConvexMesh@Gu@physx@@@shdfnd@3@VAllocator@53@$00@internal@53@VAllocator@53@$00@internal@shdfnd@physx@@AAEXI@Z 10025d00 f i GuConvexMesh.obj
 0001:00024e60       ?reserveInternal@?$HashBase@PAVHeightField@Gu@physx@@PAV123@U?$Hash@PAVHeightField@Gu@physx@@@shdfnd@3@UGetKey@?$HashSetBase@PAVHeightField@Gu@physx@@U?$Hash@PAVHeightField@Gu@physx@@@shdfnd@3@VAllocator@53@$00@internal@53@VAllocator@53@$00@internal@shdfnd@physx@@AAEXI@Z 10025e60 f i GuConvexMesh.obj
 0001:00024fc0       ?reserveInternal@?$HashBase@PAVTriangleMesh@Gu@physx@@PAV123@U?$Hash@PAVTriangleMesh@Gu@physx@@@shdfnd@3@UGetKey@?$HashSetBase@PAVTriangleMesh@Gu@physx@@U?$Hash@PAVTriangleMesh@Gu@physx@@@shdfnd@3@VAllocator@53@$00@internal@53@VAllocator@53@$00@internal@shdfnd@physx@@AAEXI@Z 10025fc0 f i GuConvexMesh.obj
 0001:00025120       ?computeHullOBB@Gu@physx@@YAXAAVBox@12@ABVPxBounds3@2@MABVPxTransform@2@ABVMatrix34@Cm@2@3ABVFastVertex2ShapeScaling@72@_N@Z 10026120 f   GuConvexUtilsInternal.obj
 0001:000258c0       ?computeVertexSpaceOBB@Gu@physx@@YAXAAVBox@12@ABV312@ABVPxTransform@2@ABVPxMeshScale@2@@Z 100268c0 f   GuConvexUtilsInternal.obj
 0001:000260b0       ?computeOBBAroundConvex@Gu@physx@@YAXAAVBox@12@ABVPxConvexMeshGeometry@2@PBVPxConvexMesh@2@ABVPxTransform@2@@Z 100270b0 f   GuConvexUtilsInternal.obj
 0001:00026a00       ?rotate@physx@@YAXABVBox@Gu@1@ABVMatrix34@Cm@1@AAV231@@Z 10027a00 f i GuConvexUtilsInternal.obj
 0001:00026d00       ?transform@physx@@YA?AVBox@Gu@1@ABVMatrix34@Cm@1@ABV231@@Z 10027d00 f i GuConvexUtilsInternal.obj
 0001:00026fd0       ?CubemapLookup@physx@@YA?AW4CubeIndex@1@ABVPxVec3@1@AAM1@Z 10027fd0 f   GuCubeIndex.obj
 0001:00027080       ?localSearch@physx@@YAXAAIABVPxVec3@1@PBV21@PBUBigConvexRawData@Gu@1@@Z 10028080 f   GuHillClimbing.obj
 0001:000271d0       ??0PolygonalBox@Gu@physx@@QAE@ABVPxVec3@2@@Z 100281d0 f   GuShapeConvex.obj
 0001:000273e0       ?getPolygonalData@PolygonalBox@Gu@physx@@QBEXPIAUPolygonalData@23@@Z 100283e0 f   GuShapeConvex.obj
 0001:00027470       ?getPolygonalData_Convex@Gu@physx@@YAXPIAUPolygonalData@12@PIBUConvexHullData@12@ABVFastVertex2ShapeScaling@Cm@2@@Z 10028470 f   GuShapeConvex.obj
 0001:00027f20       ??0HullPolygonData@Gu@physx@@QAE@XZ 10028f20 f i GuShapeConvex.obj
 0001:000280a0       ?distancePointBoxSquared@Gu@physx@@YAMABVPxVec3@2@00ABVPxMat33@2@PAV32@@Z 100290a0 f   GuDistancePointBox.obj
 0001:00028210       ?distancePointSegmentSquared@Gu@physx@@YAMABVPxVec3@2@00PAM@Z 10029210 f   GuDistancePointSegment.obj
 0001:00028300       ?closestPtPointTriangle@Gu@physx@@YA?AVPxVec3@2@ABV32@000AAM1@Z 10029300 f   GuDistancePointTriangle.obj
 0001:00028770       ?distancePointTriangleSquared@Gu@physx@@YA?AT__m128@@ABT3@000AAT3@11@Z 10029770 f   GuDistancePointTriangle.obj
 0001:00028b30       ?distanceSegmentBoxSquared@Gu@physx@@YAMABVPxVec3@2@000ABVPxMat33@2@PAMPAV32@@Z 10029b30 f   GuDistanceSegmentBox.obj
 0001:00029bf0       ?distanceSegmentSegmentSquaredOLD@Gu@physx@@YAMABVPxVec3@2@000PAM1@Z 1002abf0 f   GuDistanceSegmentSegment.obj
 0001:00029cb0       ?distanceSegmentSegmentSquared2@Gu@physx@@YAMABVSegment@12@0PAM1@Z 1002acb0 f   GuDistanceSegmentSegment.obj
 0001:00029f50       ?distanceSegmentSegmentSquared@Gu@physx@@YA?AT__m128@@ABT3@000AAT3@1@Z 1002af50 f   GuDistanceSegmentSegment.obj
 0001:0002a100       ?distanceSegmentSegmentSquared4@Gu@physx@@YA?AT__m128@@ABT3@000000000AAT3@1@Z 1002b100 f   GuDistanceSegmentSegment.obj
 0001:0002a410       ?distanceSegmentSegmentSquared4@Gu@physx@@YA?AT__m128@@ABT3@000000AAT3@1PAT3@@Z 1002b410 f   GuDistanceSegmentSegment.obj
 0001:0002b020       ?distanceSegmentTriangleSquared@Gu@physx@@YAMABVPxVec3@2@0000PAM11@Z 1002c020 f   GuDistanceSegmentTriangle.obj
 0001:0002cca0       ?distanceSegmentTriangleSquared@Gu@physx@@YA?AT__m128@@ABT3@0000AAT3@1@Z 1002dca0 f   GuDistanceSegmentTriangle.obj
 0001:0002d390       ?sweepBoxBox@Gu@physx@@YA_NABVBox@12@0ABVPxVec3@2@MAAV42@2AAMV?$PxFlags@W4Enum@PxHitFlag@physx@@G@2@@Z 1002e390 f   GuSweepBoxBox.obj
 0001:0002e2d0       ??0InternalTriangleMesh@physx@@QAE@ABV01@@Z 1002f2d0 f i GuSweepBoxBox.obj
 0001:0002e350       ??0InternalTriangleMesh@physx@@QAE@ABW4PxEMPTY@1@@Z 1002f350 f i GuSweepBoxBox.obj
 0001:0002e390       ??0InternalTriangleMeshData@Gu@physx@@QAE@ABU012@@Z 1002f390 f i GuSweepBoxBox.obj
 0001:0002e430       ??0TriangleMesh@Gu@physx@@QAE@V?$PxFlags@W4Enum@PxBaseFlag@physx@@G@2@@Z 1002f430 f i GuSweepBoxBox.obj
 0001:0002e4a0       ??4InternalTriangleMesh@physx@@QAEAAV01@ABV01@@Z 1002f4a0 f i GuSweepBoxBox.obj
 0001:0002e520       ??4InternalTriangleMeshData@Gu@physx@@QAEAAU012@ABU012@@Z 1002f520 f i GuSweepBoxBox.obj
 0001:0002e5c0       ??_EPxTriangleMesh@physx@@MAEPAXI@Z 1002f5c0 f i GuSweepBoxBox.obj
 0001:0002e630       ??_ETriangleMesh@Gu@physx@@UAEPAXI@Z 1002f630 f i GuSweepBoxBox.obj
 0001:0002e6eb       ??_ETriangleMesh@Gu@physx@@W7AEPAXI@Z 1002f6eb f i GuSweepBoxBox.obj
 0001:0002e700       ?getAdjacencies@InternalTriangleMesh@physx@@QBEPBIXZ 1002f700 f i GuSweepBoxBox.obj
 0001:0002e710       ?getCollisionModel@InternalTriangleMesh@physx@@QBEABVRTreeMidphase@Gu@2@XZ 1002f710 f i GuSweepBoxBox.obj
 0001:0002e720       ?getConvexEdgeThreshold@InternalTriangleMesh@physx@@QBEMXZ 1002f720 f i GuSweepBoxBox.obj
 0001:0002e730       ?getFaceRemap@InternalTriangleMesh@physx@@QBEPBIXZ 1002f730 f i GuSweepBoxBox.obj
 0001:0002e740       ?getLocalBounds@TriangleMesh@Gu@physx@@UBE?AVPxBounds3@3@XZ 1002f740 f i GuSweepBoxBox.obj
 0001:0002e790       ?getMaterials@InternalTriangleMesh@physx@@QBEPBGXZ 1002f790 f i GuSweepBoxBox.obj
 0001:0002e7a0       ?getMeshInterface@InternalTriangleMesh@physx@@QBEABVMeshInterface@Gu@2@XZ 1002f7a0 f i GuSweepBoxBox.obj
 0001:0002e7b0       ?getNbTriangles@TriangleMesh@Gu@physx@@UBEIXZ 1002f7b0 f i GuSweepBoxBox.obj
 0001:0002e7c0       ?getNbVertices@TriangleMesh@Gu@physx@@UBEIXZ 1002f7c0 f i GuSweepBoxBox.obj
 0001:0002e7d0       ?getNumTriangles@InternalTriangleMesh@physx@@QBEIXZ 1002f7d0 f i GuSweepBoxBox.obj
 0001:0002e7e0       ?getNumVertices@InternalTriangleMesh@physx@@QBEIXZ 1002f7e0 f i GuSweepBoxBox.obj
 0001:0002e7f0       ?getTriangleMaterialIndex@TriangleMesh@Gu@physx@@UBEGI@Z 1002f7f0 f i GuSweepBoxBox.obj
 0001:0002e820       ?getTriangleMeshFlags@InternalTriangleMesh@physx@@QBE?AV?$PxFlags@W4Enum@PxTriangleMeshFlag@physx@@E@2@XZ 1002f820 f i GuSweepBoxBox.obj
 0001:0002e840       ?getTriangleMeshFlags@TriangleMesh@Gu@physx@@UBE?AV?$PxFlags@W4Enum@PxTriangleMeshFlag@physx@@E@3@XZ 1002f840 f i GuSweepBoxBox.obj
 0001:0002e860       ?getTriangles@InternalTriangleMesh@physx@@QBEPBXXZ 1002f860 f i GuSweepBoxBox.obj
 0001:0002e870       ?getTriangles@TriangleMesh@Gu@physx@@UBEPBXXZ 1002f870 f i GuSweepBoxBox.obj
 0001:0002e880       ?getTrianglesRemap@TriangleMesh@Gu@physx@@UBEPBIXZ 1002f880 f i GuSweepBoxBox.obj
 0001:0002e890       ?getTrigSharedEdgeFlagsFromData@InternalTriangleMesh@physx@@QBEII@Z 1002f890 f i GuSweepBoxBox.obj
 0001:0002e8b0       ?getVertices@InternalTriangleMesh@physx@@QBEPBVPxVec3@2@XZ 1002f8b0 f i GuSweepBoxBox.obj
 0001:0002e8c0       ?getVertices@TriangleMesh@Gu@physx@@UBEPBVPxVec3@3@XZ 1002f8c0 f i GuSweepBoxBox.obj
 0001:0002e8d0       ?has16BitIndices@InternalTriangleMesh@physx@@QBE_NXZ 1002f8d0 f i GuSweepBoxBox.obj
 0001:0002e8e0       ?requires@TriangleMesh@Gu@physx@@UAEXAAVPxProcessPxBaseCallback@3@@Z 1002f8e0 f i GuSweepBoxBox.obj
 0001:0002e8f0       ?setTriangleAdjacency@InternalTriangleMesh@physx@@QAEXIII@Z 1002f8f0 f i GuSweepBoxBox.obj
 0001:0002e910       ?setTrigSharedEdgeFlag@InternalTriangleMesh@physx@@QAEXII@Z 1002f910 f i GuSweepBoxBox.obj
 0001:0002e930       ?sweepBoxSphere@Gu@physx@@YA_NABVBox@12@MABVPxVec3@2@1MAAMAAV42@V?$PxFlags@W4Enum@PxHitFlag@physx@@G@2@@Z 1002f930 f   GuSweepBoxSphere.obj
 0001:0002f100       ?sweepBoxTriangle@Gu@physx@@YA_NABVPxTriangle@2@ABVPxBounds3@2@ABVPxVec3@2@2AAV52@3AAM@Z 10030100 f   GuSweepBoxTriangle_FeatureBased.obj
 0001:0002fe60       ?triBoxSweepTestBoxSpace@Gu@physx@@YAHABVPxTriangle@2@ABVPxVec3@2@11MAAM_N@Z 10030e60 f   GuSweepBoxTriangle_SAT.obj
 0001:00030930       ?sweepCapsuleBox@Gu@physx@@YA_NABVCapsule@12@ABVPxTransform@2@ABVPxVec3@2@2MAAV52@AAM3V?$PxFlags@W4Enum@PxHitFlag@physx@@G@2@@Z 10031930 f   GuSweepCapsuleBox.obj
 0001:00030c80       ??0PxTriangle@physx@@QAE@XZ 10031c80 f i GuSweepCapsuleBox.obj
 0001:00030c90       ??1PxTriangle@physx@@QAE@XZ 10031c90 f i GuSweepCapsuleBox.obj
 0001:00031e90       ?sweepCapsuleCapsule@Gu@physx@@YA_NABVCapsule@12@0ABVPxVec3@2@MAAMAAV42@3IAAG@Z 10032e90 f   GuSweepCapsuleCapsule.obj
 0001:00032ad0       ??0Capsule@Gu@physx@@QAE@XZ 10033ad0 f i GuSweepCapsuleCapsule.obj
 0001:00032ae0       ??1Capsule@Gu@physx@@QAE@XZ 10033ae0 f i GuSweepCapsuleCapsule.obj
 0001:00032d40       ?sweepCapsuleTriangles@Gu@physx@@YA_NIPIBVPxTriangle@2@ABVCapsule@12@ABVPxVec3@2@MPIBIAAV?$PxFlags@W4Enum@PxHitFlag@physx@@G@2@AAMAAV52@6AAI6V62@_NPBVBox@12@@Z 10033d40 f   GuSweepCapsuleTriangle.obj
 0001:00034980       ?sweepSphereCapsule@Gu@physx@@YA_NABVSphere@12@ABVCapsule@12@ABVPxVec3@2@MAAMAAV52@4V?$PxFlags@W4Enum@PxHitFlag@physx@@G@2@@Z 10035980 f   GuSweepSphereCapsule.obj
 0001:00034d30       ?sweepSphereSphere@Gu@physx@@YA_NABVPxVec3@2@M0M0AAMAAV32@@Z 10035d30 f   GuSweepSphereSphere.obj
 0001:00035050       ?sweepTriSphere@Gu@physx@@YA_NABVPxTriangle@2@ABVPxVec3@2@1M1AAM@Z 10036050 f   GuSweepSphereTriangle.obj
 0001:000359c0       ?sweepSphereTriangles@Gu@physx@@YA_NIPIBVPxTriangle@2@ABVPxVec3@2@M1MPIBIAAV42@3AAMAAIAAV?$PxFlags@W4Enum@PxHitFlag@physx@@G@2@3_N7@Z 100369c0 f   GuSweepSphereTriangle.obj
 0001:00036040       ?computeSphereTriImpactData@Gu@physx@@YAXAAVPxVec3@2@0ABV32@1MABVPxTriangle@2@@Z 10037040 f   GuSweepTriangleUtils.obj
 0001:00036240       ?computeBoxTriImpactData@Gu@physx@@YAXAAVPxVec3@2@0ABV32@111ABVPxTriangle@2@@Z 10037240 f   GuSweepTriangleUtils.obj
 0001:00036410       ?computeEdgeEdgeNormal@Gu@physx@@YAXAAVPxVec3@2@ABV32@1111M@Z 10037410 f   GuSweepTriangleUtils.obj
 0001:000368a0       ?epaPenetration@Gu@physx@@YAIABVConvexV@12@0PAVEPASupportMapPair@12@PIAE2EAAT__m128@@333_N@Z 100378a0 f   GuEPA.obj
 0001:00037860       ?silhouette@Facet@Gu@physx@@QAEXABT__m128@@PIBT4@1AAVEdgeBuffer@23@AAV?$InlineDeferredIDPool@$0EA@@Cm@3@@Z 10038860 f   GuEPA.obj
 0001:000379b0       ?PenetrationDepth@EPA@Gu@physx@@QAEIABVConvexV@23@0PAVEPASupportMapPair@23@PIBT__m128@@22HAAT6@333_N@Z 100389b0 f   GuEPA.obj
 0001:00038150       ?expandPoint@EPA@Gu@physx@@QAE_NPAVEPASupportMapPair@23@AAHABT__m128@@2@Z 10039150 f   GuEPA.obj
 0001:000381c0       ?expandSegment@EPA@Gu@physx@@QAE_NPAVEPASupportMapPair@23@AAHABT__m128@@2@Z 100391c0 f   GuEPA.obj
 0001:000384e0       ?expandTriangle@EPA@Gu@physx@@QAE_NAAHABT__m128@@1@Z 100394e0 f   GuEPA.obj
 0001:00038570       ?addFacet@EPA@Gu@physx@@QAEPAVFacet@23@IIIABT__m128@@0@Z 10039570 f   GuEPA.obj
 0001:000387a0       ??0Edge@Gu@physx@@QAE@XZ   100397a0 f i GuEPA.obj
 0001:000387b0       ??0Facet@Gu@physx@@QAE@XZ  100397b0 f i GuEPA.obj
 0001:00038ab0       ?EPALocalPenetration@Gu@physx@@YAIABVCapsuleV@12@ABVBoxV@12@AAT__m128@@222PIAE3AAE_N@Z 10039ab0 f   GuEPAPenetrationWrapper.obj
 0001:00038b00       ?EPALocalPenetration@Gu@physx@@YAIABVCapsuleV@12@ABVConvexHullV@12@AAT__m128@@222PIAE3AAE_N@Z 10039b00 f   GuEPAPenetrationWrapper.obj
 0001:00038b50       ?EPALocalPenetration@Gu@physx@@YAIABVTriangleV@12@ABVBoxV@12@AAT__m128@@222PIAE3AAE_N@Z 10039b50 f   GuEPAPenetrationWrapper.obj
 0001:00038ba0       ?EPALocalPenetration@Gu@physx@@YAIABVTriangleV@12@ABVConvexHullV@12@AAT__m128@@222PIAE3AAE_N@Z 10039ba0 f   GuEPAPenetrationWrapper.obj
 0001:00038bf0       ?EPARelativePenetration@Gu@physx@@YAIABVBoxV@12@0ABVPsMatTransformV@aos@shdfnd@2@AAT__m128@@222PIAE3AAE_N@Z 10039bf0 f   GuEPAPenetrationWrapper.obj
 0001:00038c40       ?EPARelativePenetration@Gu@physx@@YAIABVBoxV@12@ABVConvexHullV@12@ABVPsMatTransformV@aos@shdfnd@2@AAT__m128@@333PIAE4AAE_N@Z 10039c40 f   GuEPAPenetrationWrapper.obj
 0001:00038c90       ?EPARelativePenetration@Gu@physx@@YAIABVConvexHullV@12@0ABVPsMatTransformV@aos@shdfnd@2@AAT__m128@@222PIAE3AAE_N@Z 10039c90 f   GuEPAPenetrationWrapper.obj
 0001:00038ce0       ?EPARelativePenetration@Gu@physx@@YAIABVConvexHullNoScaleV@12@0ABVPsMatTransformV@aos@shdfnd@2@AAT__m128@@222PIAE3AAE_N@Z 10039ce0 f   GuEPAPenetrationWrapper.obj
 0001:00038d30       ?EPARelativePenetration@Gu@physx@@YAIABVConvexHullNoScaleV@12@ABVConvexHullV@12@ABVPsMatTransformV@aos@shdfnd@2@AAT__m128@@333PIAE4AAE_N@Z 10039d30 f   GuEPAPenetrationWrapper.obj
 0001:00038d80       ?EPARelativePenetration@Gu@physx@@YAIABVConvexHullV@12@ABVConvexHullNoScaleV@12@ABVPsMatTransformV@aos@shdfnd@2@AAT__m128@@333PIAE4AAE_N@Z 10039d80 f   GuEPAPenetrationWrapper.obj
 0001:00038dd0       ??1EPASupportMapPair@Gu@physx@@UAE@XZ 10039dd0 f i GuEPAPenetrationWrapper.obj
 0001:00038de0       ??_G?$EPASupportMapPairLocalImpl@VCapsuleV@Gu@physx@@VBoxV@23@@Gu@physx@@UAEPAXI@Z 10039de0 f i GuEPAPenetrationWrapper.obj
 0001:00038de0       ??_E?$EPASupportMapPairLocalImpl@VCapsuleV@Gu@physx@@VBoxV@23@@Gu@physx@@UAEPAXI@Z 10039de0 f i GuEPAPenetrationWrapper.obj
 0001:00038e10       ??_G?$EPASupportMapPairLocalImpl@VCapsuleV@Gu@physx@@VConvexHullV@23@@Gu@physx@@UAEPAXI@Z 10039e10 f i GuEPAPenetrationWrapper.obj
 0001:00038e10       ??_E?$EPASupportMapPairLocalImpl@VCapsuleV@Gu@physx@@VConvexHullV@23@@Gu@physx@@UAEPAXI@Z 10039e10 f i GuEPAPenetrationWrapper.obj
 0001:00038e40       ??_E?$EPASupportMapPairLocalImpl@VTriangleV@Gu@physx@@VBoxV@23@@Gu@physx@@UAEPAXI@Z 10039e40 f i GuEPAPenetrationWrapper.obj
 0001:00038e40       ??_G?$EPASupportMapPairLocalImpl@VTriangleV@Gu@physx@@VBoxV@23@@Gu@physx@@UAEPAXI@Z 10039e40 f i GuEPAPenetrationWrapper.obj
 0001:00038e70       ??_G?$EPASupportMapPairLocalImpl@VTriangleV@Gu@physx@@VConvexHullV@23@@Gu@physx@@UAEPAXI@Z 10039e70 f i GuEPAPenetrationWrapper.obj
 0001:00038e70       ??_E?$EPASupportMapPairLocalImpl@VTriangleV@Gu@physx@@VConvexHullV@23@@Gu@physx@@UAEPAXI@Z 10039e70 f i GuEPAPenetrationWrapper.obj
 0001:00038ea0       ??_E?$EPASupportMapPairRelativeImpl@VBoxV@Gu@physx@@V123@@Gu@physx@@UAEPAXI@Z 10039ea0 f i GuEPAPenetrationWrapper.obj
 0001:00038ea0       ??_G?$EPASupportMapPairRelativeImpl@VBoxV@Gu@physx@@V123@@Gu@physx@@UAEPAXI@Z 10039ea0 f i GuEPAPenetrationWrapper.obj
 0001:00038ed0       ??_E?$EPASupportMapPairRelativeImpl@VBoxV@Gu@physx@@VConvexHullV@23@@Gu@physx@@UAEPAXI@Z 10039ed0 f i GuEPAPenetrationWrapper.obj
 0001:00038ed0       ??_G?$EPASupportMapPairRelativeImpl@VBoxV@Gu@physx@@VConvexHullV@23@@Gu@physx@@UAEPAXI@Z 10039ed0 f i GuEPAPenetrationWrapper.obj
 0001:00038f00       ??_G?$EPASupportMapPairRelativeImpl@VConvexHullNoScaleV@Gu@physx@@V123@@Gu@physx@@UAEPAXI@Z 10039f00 f i GuEPAPenetrationWrapper.obj
 0001:00038f00       ??_E?$EPASupportMapPairRelativeImpl@VConvexHullNoScaleV@Gu@physx@@V123@@Gu@physx@@UAEPAXI@Z 10039f00 f i GuEPAPenetrationWrapper.obj
 0001:00038f30       ??_G?$EPASupportMapPairRelativeImpl@VConvexHullNoScaleV@Gu@physx@@VConvexHullV@23@@Gu@physx@@UAEPAXI@Z 10039f30 f i GuEPAPenetrationWrapper.obj
 0001:00038f30       ??_E?$EPASupportMapPairRelativeImpl@VConvexHullNoScaleV@Gu@physx@@VConvexHullV@23@@Gu@physx@@UAEPAXI@Z 10039f30 f i GuEPAPenetrationWrapper.obj
 0001:00038f60       ??_G?$EPASupportMapPairRelativeImpl@VConvexHullV@Gu@physx@@V123@@Gu@physx@@UAEPAXI@Z 10039f60 f i GuEPAPenetrationWrapper.obj
 0001:00038f60       ??_E?$EPASupportMapPairRelativeImpl@VConvexHullV@Gu@physx@@V123@@Gu@physx@@UAEPAXI@Z 10039f60 f i GuEPAPenetrationWrapper.obj
 0001:00038f90       ??_E?$EPASupportMapPairRelativeImpl@VConvexHullV@Gu@physx@@VConvexHullNoScaleV@23@@Gu@physx@@UAEPAXI@Z 10039f90 f i GuEPAPenetrationWrapper.obj
 0001:00038f90       ??_G?$EPASupportMapPairRelativeImpl@VConvexHullV@Gu@physx@@VConvexHullNoScaleV@23@@Gu@physx@@UAEPAXI@Z 10039f90 f i GuEPAPenetrationWrapper.obj
 0001:00038fc0       ??_EEPASupportMapPair@Gu@physx@@UAEPAXI@Z 10039fc0 f i GuEPAPenetrationWrapper.obj
 0001:00038fc0       ??_GEPASupportMapPair@Gu@physx@@UAEPAXI@Z 10039fc0 f i GuEPAPenetrationWrapper.obj
 0001:00038ff0       ?doSupport@?$EPASupportMapPairLocalImpl@VCapsuleV@Gu@physx@@VBoxV@23@@Gu@physx@@UBEXABT__m128@@AAT4@11@Z 10039ff0 f i GuEPAPenetrationWrapper.obj
 0001:00039090       ?doSupport@?$EPASupportMapPairLocalImpl@VCapsuleV@Gu@physx@@VConvexHullV@23@@Gu@physx@@UBEXABT__m128@@AAT4@11@Z 1003a090 f i GuEPAPenetrationWrapper.obj
 0001:00039480       ?doSupport@?$EPASupportMapPairLocalImpl@VTriangleV@Gu@physx@@VBoxV@23@@Gu@physx@@UBEXABT__m128@@AAT4@11@Z 1003a480 f i GuEPAPenetrationWrapper.obj
 0001:00039560       ?doSupport@?$EPASupportMapPairLocalImpl@VTriangleV@Gu@physx@@VConvexHullV@23@@Gu@physx@@UBEXABT__m128@@AAT4@11@Z 1003a560 f i GuEPAPenetrationWrapper.obj
 0001:000399a0       ?doSupport@?$EPASupportMapPairRelativeImpl@VBoxV@Gu@physx@@V123@@Gu@physx@@UBEXABT__m128@@AAT4@11@Z 1003a9a0 f i GuEPAPenetrationWrapper.obj
 0001:00039a80       ?doSupport@?$EPASupportMapPairRelativeImpl@VBoxV@Gu@physx@@VConvexHullV@23@@Gu@physx@@UBEXABT__m128@@AAT4@11@Z 1003aa80 f i GuEPAPenetrationWrapper.obj
 0001:00039ec0       ?doSupport@?$EPASupportMapPairRelativeImpl@VConvexHullNoScaleV@Gu@physx@@V123@@Gu@physx@@UBEXABT__m128@@AAT4@11@Z 1003aec0 f i GuEPAPenetrationWrapper.obj
 0001:0003a580       ?doSupport@?$EPASupportMapPairRelativeImpl@VConvexHullNoScaleV@Gu@physx@@VConvexHullV@23@@Gu@physx@@UBEXABT__m128@@AAT4@11@Z 1003b580 f i GuEPAPenetrationWrapper.obj
 0001:0003acc0       ?doSupport@?$EPASupportMapPairRelativeImpl@VConvexHullV@Gu@physx@@V123@@Gu@physx@@UBEXABT__m128@@AAT4@11@Z 1003bcc0 f i GuEPAPenetrationWrapper.obj
 0001:0003b460       ?doSupport@?$EPASupportMapPairRelativeImpl@VConvexHullV@Gu@physx@@VConvexHullNoScaleV@23@@Gu@physx@@UBEXABT__m128@@AAT4@11@Z 1003c460 f i GuEPAPenetrationWrapper.obj
 0001:0003bb80       ?doWarmStartSupport@?$EPASupportMapPairLocalImpl@VCapsuleV@Gu@physx@@VBoxV@23@@Gu@physx@@UBEXHHAAT__m128@@00@Z 1003cb80 f i GuEPAPenetrationWrapper.obj
 0001:0003bbe0       ?doWarmStartSupport@?$EPASupportMapPairLocalImpl@VCapsuleV@Gu@physx@@VConvexHullV@23@@Gu@physx@@UBEXHHAAT__m128@@00@Z 1003cbe0 f i GuEPAPenetrationWrapper.obj
 0001:0003bc60       ?doWarmStartSupport@?$EPASupportMapPairLocalImpl@VTriangleV@Gu@physx@@VBoxV@23@@Gu@physx@@UBEXHHAAT__m128@@00@Z 1003cc60 f i GuEPAPenetrationWrapper.obj
 0001:0003bcc0       ?doWarmStartSupport@?$EPASupportMapPairLocalImpl@VTriangleV@Gu@physx@@VConvexHullV@23@@Gu@physx@@UBEXHHAAT__m128@@00@Z 1003ccc0 f i GuEPAPenetrationWrapper.obj
 0001:0003bd40       ?doWarmStartSupport@?$EPASupportMapPairRelativeImpl@VBoxV@Gu@physx@@V123@@Gu@physx@@UBEXHHAAT__m128@@00@Z 1003cd40 f i GuEPAPenetrationWrapper.obj
 0001:0003bde0       ?doWarmStartSupport@?$EPASupportMapPairRelativeImpl@VBoxV@Gu@physx@@VConvexHullV@23@@Gu@physx@@UBEXHHAAT__m128@@00@Z 1003cde0 f i GuEPAPenetrationWrapper.obj
 0001:0003beb0       ?doWarmStartSupport@?$EPASupportMapPairRelativeImpl@VConvexHullNoScaleV@Gu@physx@@V123@@Gu@physx@@UBEXHHAAT__m128@@00@Z 1003ceb0 f i GuEPAPenetrationWrapper.obj
 0001:0003bf50       ?doWarmStartSupport@?$EPASupportMapPairRelativeImpl@VConvexHullNoScaleV@Gu@physx@@VConvexHullV@23@@Gu@physx@@UBEXHHAAT__m128@@00@Z 1003cf50 f i GuEPAPenetrationWrapper.obj
 0001:0003c020       ?doWarmStartSupport@?$EPASupportMapPairRelativeImpl@VConvexHullV@Gu@physx@@V123@@Gu@physx@@UBEXHHAAT__m128@@00@Z 1003d020 f i GuEPAPenetrationWrapper.obj
 0001:0003c110       ?doWarmStartSupport@?$EPASupportMapPairRelativeImpl@VConvexHullV@Gu@physx@@VConvexHullNoScaleV@23@@Gu@physx@@UBEXHHAAT__m128@@00@Z 1003d110 f i GuEPAPenetrationWrapper.obj
 0001:0003c1e0       ?getDir@?$EPASupportMapPairLocalImpl@VCapsuleV@Gu@physx@@VBoxV@23@@Gu@physx@@UBE?AT__m128@@XZ 1003d1e0 f i GuEPAPenetrationWrapper.obj
 0001:0003c200       ?getDir@?$EPASupportMapPairLocalImpl@VCapsuleV@Gu@physx@@VConvexHullV@23@@Gu@physx@@UBE?AT__m128@@XZ 1003d200 f i GuEPAPenetrationWrapper.obj
 0001:0003c220       ?getDir@?$EPASupportMapPairLocalImpl@VTriangleV@Gu@physx@@VBoxV@23@@Gu@physx@@UBE?AT__m128@@XZ 1003d220 f i GuEPAPenetrationWrapper.obj
 0001:0003c240       ?getDir@?$EPASupportMapPairLocalImpl@VTriangleV@Gu@physx@@VConvexHullV@23@@Gu@physx@@UBE?AT__m128@@XZ 1003d240 f i GuEPAPenetrationWrapper.obj
 0001:0003c260       ?getDir@?$EPASupportMapPairRelativeImpl@VBoxV@Gu@physx@@V123@@Gu@physx@@UBE?AT__m128@@XZ 1003d260 f i GuEPAPenetrationWrapper.obj
 0001:0003c280       ?getDir@?$EPASupportMapPairRelativeImpl@VBoxV@Gu@physx@@VConvexHullV@23@@Gu@physx@@UBE?AT__m128@@XZ 1003d280 f i GuEPAPenetrationWrapper.obj
 0001:0003c2a0       ?getDir@?$EPASupportMapPairRelativeImpl@VConvexHullNoScaleV@Gu@physx@@V123@@Gu@physx@@UBE?AT__m128@@XZ 1003d2a0 f i GuEPAPenetrationWrapper.obj
 0001:0003c2c0       ?getDir@?$EPASupportMapPairRelativeImpl@VConvexHullNoScaleV@Gu@physx@@VConvexHullV@23@@Gu@physx@@UBE?AT__m128@@XZ 1003d2c0 f i GuEPAPenetrationWrapper.obj
 0001:0003c2e0       ?getDir@?$EPASupportMapPairRelativeImpl@VConvexHullV@Gu@physx@@V123@@Gu@physx@@UBE?AT__m128@@XZ 1003d2e0 f i GuEPAPenetrationWrapper.obj
 0001:0003c300       ?getDir@?$EPASupportMapPairRelativeImpl@VConvexHullV@Gu@physx@@VConvexHullNoScaleV@23@@Gu@physx@@UBE?AT__m128@@XZ 1003d300 f i GuEPAPenetrationWrapper.obj
 0001:0003c320       ?gjkRelativeFallback@Gu@physx@@YAIABVConvexV@12@0PAVSupportMap@12@1ABT__m128@@AAT5@333@Z 1003d320 f   GuGJKFallBack.obj
 0001:0003c6c0       ?doSupportMappingPair@Gu@physx@@YA?AT__m128@@ABVConvexV@12@0PAVSupportMap@12@1T3@PAT3@33IAAUSimplexStack@12@@Z 1003d6c0 f   GuGJKFallBack.obj
 0001:0003c920       ?pushSimplex@SimplexStack@Gu@physx@@QAEXPAT__m128@@00I@Z 1003d920 f i GuGJKFallBack.obj
 0001:0003c9b0       ?GJKLocalPenetration@Gu@physx@@YAIABVCapsuleV@12@ABVBoxV@12@ABT__m128@@AAT5@333PIAE4AAE_N@Z 1003d9b0 f   GuGJKPenetrationWrapper.obj
 0001:0003e160       ?GJKLocalPenetration@Gu@physx@@YAIABVCapsuleV@12@ABVShrunkBoxV@12@ABT__m128@@AAT5@333PIAE4AAE_N@Z 1003f160 f   GuGJKPenetrationWrapper.obj
 0001:0003f900       ?GJKLocalPenetration@Gu@physx@@YAIABVCapsuleV@12@ABVConvexHullV@12@ABT__m128@@AAT5@333PIAE4AAE_N@Z 10040900 f   GuGJKPenetrationWrapper.obj
 0001:000413f0       ?GJKLocalPenetration@Gu@physx@@YAIABVCapsuleV@12@ABVConvexHullNoScaleV@12@ABT__m128@@AAT5@333PIAE4AAE_N@Z 100423f0 f   GuGJKPenetrationWrapper.obj
 0001:00042e40       ?GJKLocalPenetration@Gu@physx@@YAIABVCapsuleV@12@ABVShrunkConvexHullV@12@ABT__m128@@AAT5@333PIAE4AAE_N@Z 10043e40 f   GuGJKPenetrationWrapper.obj
 0001:00045060       ?GJKLocalPenetration@Gu@physx@@YAIABVCapsuleV@12@ABVShrunkConvexHullNoScaleV@12@ABT__m128@@AAT5@333PIAE4AAE_N@Z 10046060 f   GuGJKPenetrationWrapper.obj
 0001:00046fa0       ?GJKLocalPenetration@Gu@physx@@YAIABVTriangleV@12@ABVBoxV@12@ABT__m128@@AAT5@333PIAE4AAE_N@Z 10047fa0 f   GuGJKPenetrationWrapper.obj
 0001:000487d0       ?GJKLocalPenetration@Gu@physx@@YAIABVTriangleV@12@ABVConvexHullV@12@ABT__m128@@AAT5@333PIAE4AAE_N@Z 100497d0 f   GuGJKPenetrationWrapper.obj
 0001:0004a3c0       ?GJKLocalPenetration@Gu@physx@@YAIABVTriangleV@12@ABVConvexHullNoScaleV@12@ABT__m128@@AAT5@333PIAE4AAE_N@Z 1004b3c0 f   GuGJKPenetrationWrapper.obj
 0001:0004bef0       ?GJKLocalPenetration@Gu@physx@@YAIABVTriangleV@12@0ABT__m128@@AAT4@222PIAE3AAE_N@Z 1004cef0 f   GuGJKPenetrationWrapper.obj
 0001:0004d790       ?GJKRelativePenetration@Gu@physx@@YAIABVBoxV@12@0ABVPsMatTransformV@aos@shdfnd@2@ABT__m128@@AAT7@333PIAE4AAE@Z 1004e790 f   GuGJKPenetrationWrapper.obj
 0001:0004eea0       ?GJKRelativePenetration@Gu@physx@@YAIABVBoxV@12@ABVConvexHullV@12@ABVPsMatTransformV@aos@shdfnd@2@ABT__m128@@AAT8@444PIAE5AAE@Z 1004fea0 f   GuGJKPenetrationWrapper.obj
 0001:00050900       ?GJKRelativePenetration@Gu@physx@@YAIABVShrunkBoxV@12@0ABVPsMatTransformV@aos@shdfnd@2@ABT__m128@@AAT7@333PIAE4AAE@Z 10051900 f   GuGJKPenetrationWrapper.obj
 0001:00052080       ?GJKRelativePenetration@Gu@physx@@YAIABVShrunkBoxV@12@ABVShrunkConvexHullV@12@ABVPsMatTransformV@aos@shdfnd@2@ABT__m128@@AAT8@444PIAE5AAE@Z 10053080 f   GuGJKPenetrationWrapper.obj
 0001:000541c0       ?GJKRelativePenetration@Gu@physx@@YAIABVShrunkBoxV@12@ABVShrunkConvexHullNoScaleV@12@ABVPsMatTransformV@aos@shdfnd@2@ABT__m128@@AAT8@444PIAE5AAE@Z 100551c0 f   GuGJKPenetrationWrapper.obj
 0001:00056000       ?GJKRelativePenetration@Gu@physx@@YAIABVConvexHullV@12@0ABVPsMatTransformV@aos@shdfnd@2@ABT__m128@@AAT7@333PIAE4AAE@Z 10057000 f   GuGJKPenetrationWrapper.obj
 0001:00057d50       ?GJKRelativePenetration@Gu@physx@@YAIABVShrunkConvexHullV@12@0ABVPsMatTransformV@aos@shdfnd@2@ABT__m128@@AAT7@333PIAE4AAE@Z 10058d50 f   GuGJKPenetrationWrapper.obj
 0001:0005a7a0       ?GJKRelativePenetration@Gu@physx@@YAIABVShrunkConvexHullNoScaleV@12@0ABVPsMatTransformV@aos@shdfnd@2@ABT__m128@@AAT7@333PIAE4AAE@Z 1005b7a0 f   GuGJKPenetrationWrapper.obj
 0001:0005ccf0       ?GJKRelativePenetration@Gu@physx@@YAIABVShrunkConvexHullNoScaleV@12@ABVShrunkConvexHullV@12@ABVPsMatTransformV@aos@shdfnd@2@ABT__m128@@AAT8@444PIAE5AAE@Z 1005dcf0 f   GuGJKPenetrationWrapper.obj
 0001:0005f450       ?GJKRelativePenetration@Gu@physx@@YAIABVShrunkConvexHullV@12@ABVShrunkConvexHullNoScaleV@12@ABVPsMatTransformV@aos@shdfnd@2@ABT__m128@@AAT8@444PIAE5AAE@Z 10060450 f   GuGJKPenetrationWrapper.obj
 0001:00061bf0       ?GJKRelativePenetration@Gu@physx@@YAIABVTriangleV@12@ABVBoxV@12@ABVPsMatTransformV@aos@shdfnd@2@ABT__m128@@AAT8@444@Z 10062bf0 f   GuGJKPenetrationWrapper.obj
 0001:00062a10       ?GJKRelativePenetration@Gu@physx@@YAIABVTriangleV@12@ABVCapsuleV@12@ABVPsMatTransformV@aos@shdfnd@2@ABT__m128@@AAT8@444@Z 10063a10 f   GuGJKPenetrationWrapper.obj
 0001:00063830       ?GJKRelativePenetration@Gu@physx@@YAIABVTriangleV@12@ABVConvexHullV@12@ABVPsMatTransformV@aos@shdfnd@2@ABT__m128@@AAT8@444@Z 10064830 f   GuGJKPenetrationWrapper.obj
 0001:00064990       ?GJKRelativePenetration@Gu@physx@@YAIABVCapsuleV@12@0ABVPsMatTransformV@aos@shdfnd@2@ABT__m128@@AAT7@333@Z 10065990 f   GuGJKPenetrationWrapper.obj
 0001:00065770       ?GJKRelativePenetration@Gu@physx@@YAIABVCapsuleV@12@ABVBoxV@12@ABVPsMatTransformV@aos@shdfnd@2@ABT__m128@@AAT8@444@Z 10066770 f   GuGJKPenetrationWrapper.obj
 0001:00066510       ?GJKRelativePenetration@Gu@physx@@YAIABVCapsuleV@12@ABVConvexHullV@12@ABVPsMatTransformV@aos@shdfnd@2@ABT__m128@@AAT8@444@Z 10067510 f   GuGJKPenetrationWrapper.obj
 0001:000675d0       ?GJKRelativePenetration@Gu@physx@@YAIABVBoxV@12@0ABVPsMatTransformV@aos@shdfnd@2@ABT__m128@@AAT7@333@Z 100685d0 f   GuGJKPenetrationWrapper.obj
 0001:00068300       ?GJKRelativePenetration@Gu@physx@@YAIABVBoxV@12@ABVConvexHullV@12@ABVPsMatTransformV@aos@shdfnd@2@ABT__m128@@AAT8@444@Z 10069300 f   GuGJKPenetrationWrapper.obj
 0001:00069410       ?GJKRelativePenetration@Gu@physx@@YAIABVConvexHullV@12@0ABVPsMatTransformV@aos@shdfnd@2@ABT__m128@@AAT7@333@Z 1006a410 f   GuGJKPenetrationWrapper.obj
 0001:0006a760       ?GJKRelativePenetration@Gu@physx@@YAIABVShrunkConvexHullV@12@0ABVPsMatTransformV@aos@shdfnd@2@ABT__m128@@AAT7@333@Z 1006b760 f   GuGJKPenetrationWrapper.obj
 0001:0006c0c0       ?ComputeCubemapNearestOffset@physx@@YAIABVPxVec3@1@I@Z 1006d0c0 f i GuGJKPenetrationWrapper.obj
 0001:0006c160       ?closestPtPointTetrahedron@Gu@physx@@YA?AT__m128@@PIAT3@00AAI@Z 1006d160 f   GuGJKSimplex.obj
 0001:0006ca50       ?closestPtPointTetrahedron@Gu@physx@@YA?AT__m128@@PIAT3@00PIAH1AAI@Z 1006da50 f   GuGJKSimplex.obj
 0001:0006e870       ?closestPtPointSegmentTesselation@Gu@physx@@YA?AT__m128@@ABT3@00000AAIAAT3@2@Z 1006f870 f   GuGJKSimplexTesselation.obj
 0001:0006ec40       ?closestPtPointTetrahedronTesselation@Gu@physx@@YA?AT__m128@@PIAT3@00AAIAAT3@2@Z 1006fc40 f   GuGJKSimplexTesselation.obj
 0001:0006f370       ?closestPtPointTriangleTesselation@Gu@physx@@YA?AT__m128@@PIAT3@00PIAIAAIAAT3@3@Z 10070370 f   GuGJKSimplexTesselation.obj
 0001:0006feb0       ?GJKRelative@Gu@physx@@YAIABVCapsuleV@12@ABVConvexHullV@12@ABVPsMatTransformV@aos@shdfnd@2@AAT__m128@@333@Z 10070eb0 f   GuGJKWrapper.obj
 0001:0006fec0       ?GJKRelative@Gu@physx@@YAIABVCapsuleV@12@ABVBoxV@12@ABVPsMatTransformV@aos@shdfnd@2@AAT__m128@@333@Z 10070ec0 f   GuGJKWrapper.obj
 0001:0006fed0       ?GJKRelative@Gu@physx@@YAIABVBoxV@12@0ABVPsMatTransformV@aos@shdfnd@2@AAT__m128@@222@Z 10070ed0 f   GuGJKWrapper.obj
 0001:0006fee0       ?GJKRelative@Gu@physx@@YAIABVBoxV@12@ABVConvexHullV@12@ABVPsMatTransformV@aos@shdfnd@2@AAT__m128@@333@Z 10070ee0 f   GuGJKWrapper.obj
 0001:0006fef0       ?GJKRelative@Gu@physx@@YAIABVConvexHullV@12@0ABVPsMatTransformV@aos@shdfnd@2@AAT__m128@@222@Z 10070ef0 f   GuGJKWrapper.obj
 0001:0006ff00       ?GJKRelative@Gu@physx@@YAIABVTriangleV@12@ABVBoxV@12@ABVPsMatTransformV@aos@shdfnd@2@AAT__m128@@333@Z 10070f00 f   GuGJKWrapper.obj
 0001:0006ff10       ?GJKRelative@Gu@physx@@YAIABVTriangleV@12@ABVConvexHullV@12@ABVPsMatTransformV@aos@shdfnd@2@AAT__m128@@333@Z 10070f10 f   GuGJKWrapper.obj
 0001:0006ff20       ?GJKLocal@Gu@physx@@YAIABVCapsuleV@12@ABVConvexHullV@12@AAT__m128@@222@Z 10070f20 f   GuGJKWrapper.obj
 0001:0006ff30       ?GJKLocal@Gu@physx@@YAIABVTriangleV@12@ABVBoxV@12@AAT__m128@@222@Z 10070f30 f   GuGJKWrapper.obj
 0001:0006ff40       ?GJKLocal@Gu@physx@@YAIABVTriangleV@12@ABVConvexHullV@12@AAT__m128@@222@Z 10070f40 f   GuGJKWrapper.obj
 0001:0006ff50       ?GJKRelativeTesselation@Gu@physx@@YAIABVBoxV@12@ABVConvexHullV@12@ABVPsMatTransformV@aos@shdfnd@2@ABT__m128@@AAT8@444@Z 10070f50 f   GuGJKWrapper.obj
 0001:0006ff60       ?GJKRelativeTesselation@Gu@physx@@YAIABVConvexHullV@12@0ABVPsMatTransformV@aos@shdfnd@2@ABT__m128@@AAT7@333@Z 10070f60 f   GuGJKWrapper.obj
 0001:0006ff70       ?GJKLocalRayCast@Gu@physx@@YA_NAAVTriangleV@12@AAVCapsuleV@12@ABT__m128@@22AAT5@33M_N@Z 10070f70 f   GuGJKWrapper.obj
 0001:0006ffb0       ?GJKLocalRayCast@Gu@physx@@YA_NAAVTriangleV@12@AAVBoxV@12@ABT__m128@@22AAT5@33M_N@Z 10070fb0 f   GuGJKWrapper.obj
 0001:0006fff0       ?GJKLocalRayCast@Gu@physx@@YA_NAAVTriangleV@12@AAVConvexHullV@12@ABT__m128@@22AAT5@33M_N@Z 10070ff0 f   GuGJKWrapper.obj
 0001:00070030       ?GJKLocalRayCast@Gu@physx@@YA_NAAVCapsuleV@12@AAVBoxV@12@ABT__m128@@22AAT5@33M_N@Z 10071030 f   GuGJKWrapper.obj
 0001:00070070       ?GJKLocalRayCast@Gu@physx@@YA_NAAVCapsuleV@12@AAVConvexHullV@12@ABT__m128@@22AAT5@33M_N@Z 10071070 f   GuGJKWrapper.obj
 0001:000700b0       ?GJKRelativeRayCast@Gu@physx@@YA_NAAVTriangleV@12@AAVBoxV@12@ABVPsMatTransformV@aos@shdfnd@2@ABT__m128@@33AAT8@44M_N@Z 100710b0 f   GuGJKWrapper.obj
 0001:000700f0       ?GJKRelativeRayCast@Gu@physx@@YA_NAAVTriangleV@12@AAVCapsuleV@12@ABVPsMatTransformV@aos@shdfnd@2@ABT__m128@@33AAT8@44M_N@Z 100710f0 f   GuGJKWrapper.obj
 0001:00070130       ?GJKRelativeRayCast@Gu@physx@@YA_NAAVTriangleV@12@AAVConvexHullV@12@ABVPsMatTransformV@aos@shdfnd@2@ABT__m128@@33AAT8@44M_N@Z 10071130 f   GuGJKWrapper.obj
 0001:00070170       ?GJKRelativeRayCast@Gu@physx@@YA_NAAVCapsuleV@12@0ABVPsMatTransformV@aos@shdfnd@2@ABT__m128@@22AAT7@33M_N@Z 10071170 f   GuGJKWrapper.obj
 0001:000701b0       ?GJKRelativeRayCast@Gu@physx@@YA_NAAVCapsuleV@12@AAVBoxV@12@ABVPsMatTransformV@aos@shdfnd@2@ABT__m128@@33AAT8@44M_N@Z 100711b0 f   GuGJKWrapper.obj
 0001:000701f0       ?GJKRelativeRayCast@Gu@physx@@YA_NAAVCapsuleV@12@AAVConvexHullV@12@ABVPsMatTransformV@aos@shdfnd@2@ABT__m128@@33AAT8@44M_N@Z 100711f0 f   GuGJKWrapper.obj
 0001:00070230       ?GJKRelativeRayCast@Gu@physx@@YA_NAAVBoxV@12@0ABVPsMatTransformV@aos@shdfnd@2@ABT__m128@@22AAT7@33M_N@Z 10071230 f   GuGJKWrapper.obj
 0001:00070270       ?GJKRelativeRayCast@Gu@physx@@YA_NAAVBoxV@12@AAVConvexHullV@12@ABVPsMatTransformV@aos@shdfnd@2@ABT__m128@@33AAT8@44M_N@Z 10071270 f   GuGJKWrapper.obj
 0001:000702b0       ?GJKRelativeRayCast@Gu@physx@@YA_NAAVConvexHullV@12@0ABVPsMatTransformV@aos@shdfnd@2@ABT__m128@@22AAT7@33M_N@Z 100712b0 f   GuGJKWrapper.obj
 0001:000702f0       ??$_gjkLocalRayCast@VCapsuleV@Gu@physx@@VBoxV@23@@Gu@physx@@YA_NAAVCapsuleV@01@AAVBoxV@01@ABT__m128@@22AAT4@33M@Z 100712f0 f i GuGJKWrapper.obj
 0001:00071000       ??$_gjkLocalRayCast@VCapsuleV@Gu@physx@@VConvexHullV@23@@Gu@physx@@YA_NAAVCapsuleV@01@AAVConvexHullV@01@ABT__m128@@22AAT4@33M@Z 10072000 f i GuGJKWrapper.obj
 0001:00072760       ??$_gjkLocalRayCast@VTriangleV@Gu@physx@@VBoxV@23@@Gu@physx@@YA_NAAVTriangleV@01@AAVBoxV@01@ABT__m128@@22AAT4@33M@Z 10073760 f i GuGJKWrapper.obj
 0001:000734f0       ??$_gjkLocalRayCast@VTriangleV@Gu@physx@@VCapsuleV@23@@Gu@physx@@YA_NAAVTriangleV@01@AAVCapsuleV@01@ABT__m128@@22AAT4@33M@Z 100744f0 f i GuGJKWrapper.obj
 0001:000742f0       ??$_gjkLocalRayCast@VTriangleV@Gu@physx@@VConvexHullV@23@@Gu@physx@@YA_NAAVTriangleV@01@AAVConvexHullV@01@ABT__m128@@22AAT4@33M@Z 100752f0 f i GuGJKWrapper.obj
 0001:00075af0       ??$_gjkRelativeRayCast@VBoxV@Gu@physx@@V123@@Gu@physx@@YA_NAAVBoxV@01@0ABVPsMatTransformV@aos@shdfnd@1@ABT__m128@@22AAT6@33M@Z 10076af0 f i GuGJKWrapper.obj
 0001:000768c0       ??$_gjkRelativeRayCast@VBoxV@Gu@physx@@VConvexHullV@23@@Gu@physx@@YA_NAAVBoxV@01@AAVConvexHullV@01@ABVPsMatTransformV@aos@shdfnd@1@ABT__m128@@33AAT7@44M@Z 100778c0 f i GuGJKWrapper.obj
 0001:000780a0       ??$_gjkRelativeRayCast@VCapsuleV@Gu@physx@@V123@@Gu@physx@@YA_NAAVCapsuleV@01@0ABVPsMatTransformV@aos@shdfnd@1@ABT__m128@@22AAT6@33M@Z 100790a0 f i GuGJKWrapper.obj
 0001:00078f50       ??$_gjkRelativeRayCast@VCapsuleV@Gu@physx@@VBoxV@23@@Gu@physx@@YA_NAAVCapsuleV@01@AAVBoxV@01@ABVPsMatTransformV@aos@shdfnd@1@ABT__m128@@33AAT7@44M@Z 10079f50 f i GuGJKWrapper.obj
 0001:00079d30       ??$_gjkRelativeRayCast@VCapsuleV@Gu@physx@@VConvexHullV@23@@Gu@physx@@YA_NAAVCapsuleV@01@AAVConvexHullV@01@ABVPsMatTransformV@aos@shdfnd@1@ABT__m128@@33AAT7@44M@Z 1007ad30 f i GuGJKWrapper.obj
 0001:0007b560       ??$_gjkRelativeRayCast@VConvexHullV@Gu@physx@@V123@@Gu@physx@@YA_NAAVConvexHullV@01@0ABVPsMatTransformV@aos@shdfnd@1@ABT__m128@@22AAT6@33M@Z 1007c560 f i GuGJKWrapper.obj
 0001:0007d2d0       ??$_gjkRelativeRayCast@VTriangleV@Gu@physx@@VBoxV@23@@Gu@physx@@YA_NAAVTriangleV@01@AAVBoxV@01@ABVPsMatTransformV@aos@shdfnd@1@ABT__m128@@33AAT7@44M@Z 1007e2d0 f i GuGJKWrapper.obj
 0001:0007e150       ??$_gjkRelativeRayCast@VTriangleV@Gu@physx@@VCapsuleV@23@@Gu@physx@@YA_NAAVTriangleV@01@AAVCapsuleV@01@ABVPsMatTransformV@aos@shdfnd@1@ABT__m128@@33AAT7@44M@Z 1007f150 f i GuGJKWrapper.obj
 0001:0007f080       ??$_gjkRelativeRayCast@VTriangleV@Gu@physx@@VConvexHullV@23@@Gu@physx@@YA_NAAVTriangleV@01@AAVConvexHullV@01@ABVPsMatTransformV@aos@shdfnd@1@ABT__m128@@33AAT7@44M@Z 10080080 f i GuGJKWrapper.obj
 0001:000808d0       ??$gjkLocal@VCapsuleV@Gu@physx@@VConvexHullV@23@@Gu@physx@@YAIABVCapsuleV@01@ABVConvexHullV@01@AAT__m128@@222@Z 100818d0 f i GuGJKWrapper.obj
 0001:00081a90       ??$gjkLocal@VTriangleV@Gu@physx@@VBoxV@23@@Gu@physx@@YAIABVTriangleV@01@ABVBoxV@01@AAT__m128@@222@Z 10082a90 f i GuGJKWrapper.obj
 0001:000828a0       ??$gjkLocal@VTriangleV@Gu@physx@@VConvexHullV@23@@Gu@physx@@YAIABVTriangleV@01@ABVConvexHullV@01@AAT__m128@@222@Z 100838a0 f i GuGJKWrapper.obj
 0001:00083aa0       ??$gjkLocalRayCast@VCapsuleV@Gu@physx@@VBoxV@23@V123@VShrunkBoxV@23@@Gu@physx@@YA_NAAVCapsuleV@01@AAVBoxV@01@ABT__m128@@22AAT4@33M_N@Z 10084aa0 f i GuGJKWrapper.obj
 0001:00084970       ??$gjkLocalRayCast@VCapsuleV@Gu@physx@@VConvexHullV@23@V123@VShrunkConvexHullV@23@@Gu@physx@@YA_NAAVCapsuleV@01@AAVConvexHullV@01@ABT__m128@@22AAT4@33M_N@Z 10085970 f i GuGJKWrapper.obj
 0001:00085dd0       ??$gjkLocalRayCast@VTriangleV@Gu@physx@@VBoxV@23@V123@VShrunkBoxV@23@@Gu@physx@@YA_NAAVTriangleV@01@AAVBoxV@01@ABT__m128@@22AAT4@33M_N@Z 10086dd0 f i GuGJKWrapper.obj
 0001:00086d00       ??$gjkLocalRayCast@VTriangleV@Gu@physx@@VCapsuleV@23@V123@V423@@Gu@physx@@YA_NAAVTriangleV@01@AAVCapsuleV@01@ABT__m128@@22AAT4@33M_N@Z 10087d00 f i GuGJKWrapper.obj
 0001:00087c60       ??$gjkLocalRayCast@VTriangleV@Gu@physx@@VConvexHullV@23@V123@VShrunkConvexHullV@23@@Gu@physx@@YA_NAAVTriangleV@01@AAVConvexHullV@01@ABT__m128@@22AAT4@33M_N@Z 10088c60 f i GuGJKWrapper.obj
 0001:000891a0       ??$gjkRelative@VBoxV@Gu@physx@@V123@@Gu@physx@@YAIABVBoxV@01@0ABVPsMatTransformV@aos@shdfnd@1@AAT__m128@@222@Z 1008a1a0 f i GuGJKWrapper.obj
 0001:0008a000       ??$gjkRelative@VBoxV@Gu@physx@@VConvexHullV@23@@Gu@physx@@YAIABVBoxV@01@ABVConvexHullV@01@ABVPsMatTransformV@aos@shdfnd@1@AAT__m128@@333@Z 1008b000 f i GuGJKWrapper.obj
 0001:0008b200       ??$gjkRelative@VCapsuleV@Gu@physx@@VBoxV@23@@Gu@physx@@YAIABVCapsuleV@01@ABVBoxV@01@ABVPsMatTransformV@aos@shdfnd@1@AAT__m128@@333@Z 1008c200 f i GuGJKWrapper.obj
 0001:0008c090       ??$gjkRelative@VCapsuleV@Gu@physx@@VConvexHullV@23@@Gu@physx@@YAIABVCapsuleV@01@ABVConvexHullV@01@ABVPsMatTransformV@aos@shdfnd@1@AAT__m128@@333@Z 1008d090 f i GuGJKWrapper.obj
 0001:0008d2c0       ??$gjkRelative@VConvexHullV@Gu@physx@@V123@@Gu@physx@@YAIABVConvexHullV@01@0ABVPsMatTransformV@aos@shdfnd@1@AAT__m128@@222@Z 1008e2c0 f i GuGJKWrapper.obj
 0001:0008e780       ??$gjkRelative@VTriangleV@Gu@physx@@VBoxV@23@@Gu@physx@@YAIABVTriangleV@01@ABVBoxV@01@ABVPsMatTransformV@aos@shdfnd@1@AAT__m128@@333@Z 1008f780 f i GuGJKWrapper.obj
 0001:0008f620       ??$gjkRelative@VTriangleV@Gu@physx@@VConvexHullV@23@@Gu@physx@@YAIABVTriangleV@01@ABVConvexHullV@01@ABVPsMatTransformV@aos@shdfnd@1@AAT__m128@@333@Z 10090620 f i GuGJKWrapper.obj
 0001:00090860       ??$gjkRelativeRayCast@VBoxV@Gu@physx@@V123@VShrunkBoxV@23@V423@@Gu@physx@@YA_NAAVBoxV@01@0ABVPsMatTransformV@aos@shdfnd@1@ABT__m128@@22AAT6@33M_N@Z 10091860 f i GuGJKWrapper.obj
 0001:00091670       ??$gjkRelativeRayCast@VBoxV@Gu@physx@@VConvexHullV@23@VShrunkBoxV@23@VShrunkConvexHullV@23@@Gu@physx@@YA_NAAVBoxV@01@AAVConvexHullV@01@ABVPsMatTransformV@aos@shdfnd@1@ABT__m128@@33AAT7@44M_N@Z 10092670 f i GuGJKWrapper.obj
 0001:00092ad0       ??$gjkRelativeRayCast@VCapsuleV@Gu@physx@@V123@V123@V123@@Gu@physx@@YA_NAAVCapsuleV@01@0ABVPsMatTransformV@aos@shdfnd@1@ABT__m128@@22AAT6@33M_N@Z 10093ad0 f i GuGJKWrapper.obj
 0001:00093950       ??$gjkRelativeRayCast@VCapsuleV@Gu@physx@@VBoxV@23@V123@VShrunkBoxV@23@@Gu@physx@@YA_NAAVCapsuleV@01@AAVBoxV@01@ABVPsMatTransformV@aos@shdfnd@1@ABT__m128@@33AAT7@44M_N@Z 10094950 f i GuGJKWrapper.obj
 0001:000947b0       ??$gjkRelativeRayCast@VCapsuleV@Gu@physx@@VConvexHullV@23@V123@VShrunkConvexHullV@23@@Gu@physx@@YA_NAAVCapsuleV@01@AAVConvexHullV@01@ABVPsMatTransformV@aos@shdfnd@1@ABT__m128@@33AAT7@44M_N@Z 100957b0 f i GuGJKWrapper.obj
 0001:00095c80       ??$gjkRelativeRayCast@VConvexHullV@Gu@physx@@V123@VShrunkConvexHullV@23@V423@@Gu@physx@@YA_NAAVConvexHullV@01@0ABVPsMatTransformV@aos@shdfnd@1@ABT__m128@@22AAT6@33M_N@Z 10096c80 f i GuGJKWrapper.obj
 0001:00097650       ??$gjkRelativeRayCast@VTriangleV@Gu@physx@@VBoxV@23@V123@VShrunkBoxV@23@@Gu@physx@@YA_NAAVTriangleV@01@AAVBoxV@01@ABVPsMatTransformV@aos@shdfnd@1@ABT__m128@@33AAT7@44M_N@Z 10098650 f i GuGJKWrapper.obj
 0001:00098520       ??$gjkRelativeRayCast@VTriangleV@Gu@physx@@VCapsuleV@23@V123@V423@@Gu@physx@@YA_NAAVTriangleV@01@AAVCapsuleV@01@ABVPsMatTransformV@aos@shdfnd@1@ABT__m128@@33AAT7@44M_N@Z 10099520 f i GuGJKWrapper.obj
 0001:00099410       ??$gjkRelativeRayCast@VTriangleV@Gu@physx@@VConvexHullV@23@V123@VShrunkConvexHullV@23@@Gu@physx@@YA_NAAVTriangleV@01@AAVConvexHullV@01@ABVPsMatTransformV@aos@shdfnd@1@ABT__m128@@33AAT7@44M_N@Z 1009a410 f i GuGJKWrapper.obj
 0001:0009a970       ??$gjkRelativeTesselation@VBoxV@Gu@physx@@VConvexHullV@23@@Gu@physx@@YAIABVBoxV@01@ABVConvexHullV@01@ABVPsMatTransformV@aos@shdfnd@1@ABT__m128@@AAT7@444@Z 1009b970 f i GuGJKWrapper.obj
 0001:0009aa20       ??$gjkRelativeTesselation@VConvexHullV@Gu@physx@@V123@@Gu@physx@@YAIABVConvexHullV@01@0ABVPsMatTransformV@aos@shdfnd@1@ABT__m128@@AAT6@333@Z 1009ba20 f i GuGJKWrapper.obj
 0001:0009aad0       ??0?$EPASupportMapPairLocalImpl@VCapsuleV@Gu@physx@@VBoxV@23@@Gu@physx@@QAE@ABVCapsuleV@12@ABVBoxV@12@@Z 1009bad0 f i GuGJKWrapper.obj
 0001:0009aaf0       ??0?$EPASupportMapPairLocalImpl@VCapsuleV@Gu@physx@@VConvexHullV@23@@Gu@physx@@QAE@ABVCapsuleV@12@ABVConvexHullV@12@@Z 1009baf0 f i GuGJKWrapper.obj
 0001:0009ab10       ??0?$EPASupportMapPairLocalImpl@VTriangleV@Gu@physx@@VBoxV@23@@Gu@physx@@QAE@ABVTriangleV@12@ABVBoxV@12@@Z 1009bb10 f i GuGJKWrapper.obj
 0001:0009ab30       ??0?$EPASupportMapPairLocalImpl@VTriangleV@Gu@physx@@VCapsuleV@23@@Gu@physx@@QAE@ABVTriangleV@12@ABVCapsuleV@12@@Z 1009bb30 f i GuGJKWrapper.obj
 0001:0009ab50       ??0?$EPASupportMapPairLocalImpl@VTriangleV@Gu@physx@@VConvexHullV@23@@Gu@physx@@QAE@ABVTriangleV@12@ABVConvexHullV@12@@Z 1009bb50 f i GuGJKWrapper.obj
 0001:0009ab70       ??0?$EPASupportMapPairRelativeImpl@VBoxV@Gu@physx@@V123@@Gu@physx@@QAE@ABVBoxV@12@0ABVPsMatTransformV@aos@shdfnd@2@@Z 1009bb70 f i GuGJKWrapper.obj
 0001:0009aba0       ??0?$EPASupportMapPairRelativeImpl@VBoxV@Gu@physx@@VConvexHullV@23@@Gu@physx@@QAE@ABVBoxV@12@ABVConvexHullV@12@ABVPsMatTransformV@aos@shdfnd@2@@Z 1009bba0 f i GuGJKWrapper.obj
 0001:0009abd0       ??0?$EPASupportMapPairRelativeImpl@VCapsuleV@Gu@physx@@V123@@Gu@physx@@QAE@ABVCapsuleV@12@0ABVPsMatTransformV@aos@shdfnd@2@@Z 1009bbd0 f i GuGJKWrapper.obj
 0001:0009ac00       ??0?$EPASupportMapPairRelativeImpl@VCapsuleV@Gu@physx@@VBoxV@23@@Gu@physx@@QAE@ABVCapsuleV@12@ABVBoxV@12@ABVPsMatTransformV@aos@shdfnd@2@@Z 1009bc00 f i GuGJKWrapper.obj
 0001:0009ac30       ??0?$EPASupportMapPairRelativeImpl@VCapsuleV@Gu@physx@@VConvexHullV@23@@Gu@physx@@QAE@ABVCapsuleV@12@ABVConvexHullV@12@ABVPsMatTransformV@aos@shdfnd@2@@Z 1009bc30 f i GuGJKWrapper.obj
 0001:0009ac60       ??0?$EPASupportMapPairRelativeImpl@VConvexHullV@Gu@physx@@V123@@Gu@physx@@QAE@ABVConvexHullV@12@0ABVPsMatTransformV@aos@shdfnd@2@@Z 1009bc60 f i GuGJKWrapper.obj
 0001:0009ac90       ??0?$EPASupportMapPairRelativeImpl@VTriangleV@Gu@physx@@VBoxV@23@@Gu@physx@@QAE@ABVTriangleV@12@ABVBoxV@12@ABVPsMatTransformV@aos@shdfnd@2@@Z 1009bc90 f i GuGJKWrapper.obj
 0001:0009acc0       ??0?$EPASupportMapPairRelativeImpl@VTriangleV@Gu@physx@@VCapsuleV@23@@Gu@physx@@QAE@ABVTriangleV@12@ABVCapsuleV@12@ABVPsMatTransformV@aos@shdfnd@2@@Z 1009bcc0 f i GuGJKWrapper.obj
 0001:0009acf0       ??0?$EPASupportMapPairRelativeImpl@VTriangleV@Gu@physx@@VConvexHullV@23@@Gu@physx@@QAE@ABVTriangleV@12@ABVConvexHullV@12@ABVPsMatTransformV@aos@shdfnd@2@@Z 1009bcf0 f i GuGJKWrapper.obj
 0001:0009ad20       ??1SupportMap@Gu@physx@@UAE@XZ 1009bd20 f i GuGJKWrapper.obj
 0001:0009ad30       ??_E?$EPASupportMapPairLocalImpl@VTriangleV@Gu@physx@@VCapsuleV@23@@Gu@physx@@UAEPAXI@Z 1009bd30 f i GuGJKWrapper.obj
 0001:0009ad30       ??_G?$EPASupportMapPairLocalImpl@VTriangleV@Gu@physx@@VCapsuleV@23@@Gu@physx@@UAEPAXI@Z 1009bd30 f i GuGJKWrapper.obj
 0001:0009ad60       ??_G?$EPASupportMapPairRelativeImpl@VCapsuleV@Gu@physx@@V123@@Gu@physx@@UAEPAXI@Z 1009bd60 f i GuGJKWrapper.obj
 0001:0009ad60       ??_E?$EPASupportMapPairRelativeImpl@VCapsuleV@Gu@physx@@V123@@Gu@physx@@UAEPAXI@Z 1009bd60 f i GuGJKWrapper.obj
 0001:0009ad90       ??_E?$EPASupportMapPairRelativeImpl@VCapsuleV@Gu@physx@@VBoxV@23@@Gu@physx@@UAEPAXI@Z 1009bd90 f i GuGJKWrapper.obj
 0001:0009ad90       ??_G?$EPASupportMapPairRelativeImpl@VCapsuleV@Gu@physx@@VBoxV@23@@Gu@physx@@UAEPAXI@Z 1009bd90 f i GuGJKWrapper.obj
 0001:0009adc0       ??_G?$EPASupportMapPairRelativeImpl@VCapsuleV@Gu@physx@@VConvexHullV@23@@Gu@physx@@UAEPAXI@Z 1009bdc0 f i GuGJKWrapper.obj
 0001:0009adc0       ??_E?$EPASupportMapPairRelativeImpl@VCapsuleV@Gu@physx@@VConvexHullV@23@@Gu@physx@@UAEPAXI@Z 1009bdc0 f i GuGJKWrapper.obj
 0001:0009adf0       ??_E?$EPASupportMapPairRelativeImpl@VTriangleV@Gu@physx@@VBoxV@23@@Gu@physx@@UAEPAXI@Z 1009bdf0 f i GuGJKWrapper.obj
 0001:0009adf0       ??_G?$EPASupportMapPairRelativeImpl@VTriangleV@Gu@physx@@VBoxV@23@@Gu@physx@@UAEPAXI@Z 1009bdf0 f i GuGJKWrapper.obj
 0001:0009ae20       ??_E?$EPASupportMapPairRelativeImpl@VTriangleV@Gu@physx@@VCapsuleV@23@@Gu@physx@@UAEPAXI@Z 1009be20 f i GuGJKWrapper.obj
 0001:0009ae20       ??_G?$EPASupportMapPairRelativeImpl@VTriangleV@Gu@physx@@VCapsuleV@23@@Gu@physx@@UAEPAXI@Z 1009be20 f i GuGJKWrapper.obj
 0001:0009ae50       ??_E?$EPASupportMapPairRelativeImpl@VTriangleV@Gu@physx@@VConvexHullV@23@@Gu@physx@@UAEPAXI@Z 1009be50 f i GuGJKWrapper.obj
 0001:0009ae50       ??_G?$EPASupportMapPairRelativeImpl@VTriangleV@Gu@physx@@VConvexHullV@23@@Gu@physx@@UAEPAXI@Z 1009be50 f i GuGJKWrapper.obj
 0001:0009ae80       ??_G?$SupportMapLocalImpl@VConvexHullV@Gu@physx@@@Gu@physx@@UAEPAXI@Z 1009be80 f i GuGJKWrapper.obj
 0001:0009ae80       ??_E?$SupportMapLocalImpl@VConvexHullV@Gu@physx@@@Gu@physx@@UAEPAXI@Z 1009be80 f i GuGJKWrapper.obj
 0001:0009aeb0       ??_G?$SupportMapRelativeImpl@VBoxV@Gu@physx@@@Gu@physx@@UAEPAXI@Z 1009beb0 f i GuGJKWrapper.obj
 0001:0009aeb0       ??_E?$SupportMapRelativeImpl@VBoxV@Gu@physx@@@Gu@physx@@UAEPAXI@Z 1009beb0 f i GuGJKWrapper.obj
 0001:0009aee0       ??_G?$SupportMapRelativeImpl@VConvexHullV@Gu@physx@@@Gu@physx@@UAEPAXI@Z 1009bee0 f i GuGJKWrapper.obj
 0001:0009aee0       ??_E?$SupportMapRelativeImpl@VConvexHullV@Gu@physx@@@Gu@physx@@UAEPAXI@Z 1009bee0 f i GuGJKWrapper.obj
 0001:0009af10       ??_ESupportMap@Gu@physx@@UAEPAXI@Z 1009bf10 f i GuGJKWrapper.obj
 0001:0009af10       ??_GSupportMap@Gu@physx@@UAEPAXI@Z 1009bf10 f i GuGJKWrapper.obj
 0001:0009af40       ?doSupport@?$EPASupportMapPairLocalImpl@VTriangleV@Gu@physx@@VCapsuleV@23@@Gu@physx@@UBEXABT__m128@@AAT4@11@Z 1009bf40 f i GuGJKWrapper.obj
 0001:0009b050       ?doSupport@?$EPASupportMapPairRelativeImpl@VCapsuleV@Gu@physx@@V123@@Gu@physx@@UBEXABT__m128@@AAT4@11@Z 1009c050 f i GuGJKWrapper.obj
 0001:0009b190       ?doSupport@?$EPASupportMapPairRelativeImpl@VCapsuleV@Gu@physx@@VBoxV@23@@Gu@physx@@UBEXABT__m128@@AAT4@11@Z 1009c190 f i GuGJKWrapper.obj
 0001:0009b2a0       ?doSupport@?$EPASupportMapPairRelativeImpl@VCapsuleV@Gu@physx@@VConvexHullV@23@@Gu@physx@@UBEXABT__m128@@AAT4@11@Z 1009c2a0 f i GuGJKWrapper.obj
 0001:0009b700       ?doSupport@?$EPASupportMapPairRelativeImpl@VTriangleV@Gu@physx@@VBoxV@23@@Gu@physx@@UBEXABT__m128@@AAT4@11@Z 1009c700 f i GuGJKWrapper.obj
 0001:0009b850       ?doSupport@?$EPASupportMapPairRelativeImpl@VTriangleV@Gu@physx@@VCapsuleV@23@@Gu@physx@@UBEXABT__m128@@AAT4@11@Z 1009c850 f i GuGJKWrapper.obj
 0001:0009b9d0       ?doSupport@?$EPASupportMapPairRelativeImpl@VTriangleV@Gu@physx@@VConvexHullV@23@@Gu@physx@@UBEXABT__m128@@AAT4@11@Z 1009c9d0 f i GuGJKWrapper.obj
 0001:0009be70       ?doSupport@?$SupportMapLocalImpl@VConvexHullV@Gu@physx@@@Gu@physx@@UBE?AT__m128@@ABT4@@Z 1009ce70 f i GuGJKWrapper.obj
 0001:0009c210       ?doSupport@?$SupportMapRelativeImpl@VBoxV@Gu@physx@@@Gu@physx@@UBE?AT__m128@@ABT4@@Z 1009d210 f i GuGJKWrapper.obj
 0001:0009c2b0       ?doSupport@?$SupportMapRelativeImpl@VConvexHullV@Gu@physx@@@Gu@physx@@UBE?AT__m128@@ABT4@@Z 1009d2b0 f i GuGJKWrapper.obj
 0001:0009c690       ?doSupportSweep@?$SupportMapLocalImpl@VConvexHullV@Gu@physx@@@Gu@physx@@UBE?AT__m128@@ABT4@@Z 1009d690 f i GuGJKWrapper.obj
 0001:0009ca30       ?doSupportSweep@?$SupportMapRelativeImpl@VBoxV@Gu@physx@@@Gu@physx@@UBE?AT__m128@@ABT4@@Z 1009da30 f i GuGJKWrapper.obj
 0001:0009cad0       ?doSupportSweep@?$SupportMapRelativeImpl@VConvexHullV@Gu@physx@@@Gu@physx@@UBE?AT__m128@@ABT4@@Z 1009dad0 f i GuGJKWrapper.obj
 0001:0009ceb0       ?doWarmStartSupport@?$EPASupportMapPairLocalImpl@VTriangleV@Gu@physx@@VCapsuleV@23@@Gu@physx@@UBEXHHAAT__m128@@00@Z 1009deb0 f i GuGJKWrapper.obj
 0001:0009cef0       ?doWarmStartSupport@?$EPASupportMapPairRelativeImpl@VCapsuleV@Gu@physx@@V123@@Gu@physx@@UBEXHHAAT__m128@@00@Z 1009def0 f i GuGJKWrapper.obj
 0001:0009cf60       ?doWarmStartSupport@?$EPASupportMapPairRelativeImpl@VCapsuleV@Gu@physx@@VBoxV@23@@Gu@physx@@UBEXHHAAT__m128@@00@Z 1009df60 f i GuGJKWrapper.obj
 0001:0009cfe0       ?doWarmStartSupport@?$EPASupportMapPairRelativeImpl@VCapsuleV@Gu@physx@@VConvexHullV@23@@Gu@physx@@UBEXHHAAT__m128@@00@Z 1009dfe0 f i GuGJKWrapper.obj
 0001:0009d090       ?doWarmStartSupport@?$EPASupportMapPairRelativeImpl@VTriangleV@Gu@physx@@VBoxV@23@@Gu@physx@@UBEXHHAAT__m128@@00@Z 1009e090 f i GuGJKWrapper.obj
 0001:0009d110       ?doWarmStartSupport@?$EPASupportMapPairRelativeImpl@VTriangleV@Gu@physx@@VCapsuleV@23@@Gu@physx@@UBEXHHAAT__m128@@00@Z 1009e110 f i GuGJKWrapper.obj
 0001:0009d180       ?doWarmStartSupport@?$EPASupportMapPairRelativeImpl@VTriangleV@Gu@physx@@VConvexHullV@23@@Gu@physx@@UBEXHHAAT__m128@@00@Z 1009e180 f i GuGJKWrapper.obj
 0001:0009d230       ?doWarmStartSupport@?$SupportMapLocalImpl@VConvexHullV@Gu@physx@@@Gu@physx@@UBEXHAAT__m128@@@Z 1009e230 f i GuGJKWrapper.obj
 0001:0009d290       ?doWarmStartSupport@?$SupportMapRelativeImpl@VBoxV@Gu@physx@@@Gu@physx@@UBEXHAAT__m128@@@Z 1009e290 f i GuGJKWrapper.obj
 0001:0009d300       ?doWarmStartSupport@?$SupportMapRelativeImpl@VConvexHullV@Gu@physx@@@Gu@physx@@UBEXHAAT__m128@@@Z 1009e300 f i GuGJKWrapper.obj
 0001:0009d390       ?getDir@?$EPASupportMapPairLocalImpl@VTriangleV@Gu@physx@@VCapsuleV@23@@Gu@physx@@UBE?AT__m128@@XZ 1009e390 f i GuGJKWrapper.obj
 0001:0009d3b0       ?getDir@?$EPASupportMapPairRelativeImpl@VCapsuleV@Gu@physx@@V123@@Gu@physx@@UBE?AT__m128@@XZ 1009e3b0 f i GuGJKWrapper.obj
 0001:0009d3d0       ?getDir@?$EPASupportMapPairRelativeImpl@VCapsuleV@Gu@physx@@VBoxV@23@@Gu@physx@@UBE?AT__m128@@XZ 1009e3d0 f i GuGJKWrapper.obj
 0001:0009d3f0       ?getDir@?$EPASupportMapPairRelativeImpl@VCapsuleV@Gu@physx@@VConvexHullV@23@@Gu@physx@@UBE?AT__m128@@XZ 1009e3f0 f i GuGJKWrapper.obj
 0001:0009d410       ?getDir@?$EPASupportMapPairRelativeImpl@VTriangleV@Gu@physx@@VBoxV@23@@Gu@physx@@UBE?AT__m128@@XZ 1009e410 f i GuGJKWrapper.obj
 0001:0009d430       ?getDir@?$EPASupportMapPairRelativeImpl@VTriangleV@Gu@physx@@VCapsuleV@23@@Gu@physx@@UBE?AT__m128@@XZ 1009e430 f i GuGJKWrapper.obj
 0001:0009d450       ?getDir@?$EPASupportMapPairRelativeImpl@VTriangleV@Gu@physx@@VConvexHullV@23@@Gu@physx@@UBE?AT__m128@@XZ 1009e450 f i GuGJKWrapper.obj
 0001:0009d470       ?create@BoxV@Gu@physx@@QAEXABVCapsuleV@23@@Z 1009e470 f   GuVecBox.obj
 0001:0009d620       ?isInside@BoxV@Gu@physx@@QBEIABV123@@Z 1009e620 f   GuVecBox.obj
 0001:0009d830       ?rotate@BoxV@Gu@physx@@QBEXABUMat34V@aos@shdfnd@3@AAV123@@Z 1009e830 f i GuVecBox.obj
 0001:0009d930       ?intersectOBBOBB@Gu@physx@@YA_NABVPxVec3@2@0ABVPxMat33@2@001_N@Z 1009e930 f   GuIntersectionBoxBox.obj
 0001:0009e0b0       ?intersectEdgeEdge@Gu@physx@@YA_NABVPxVec3@2@0000AAMAAV32@@Z 1009f0b0 f   GuIntersectionEdgeEdge.obj
 0001:0009e3b0       ?rayAABBIntersect@Gu@physx@@YA_NABVPxVec3@2@000AAV32@@Z 1009f3b0 f   GuIntersectionRayBox.obj
 0001:0009e520       ?rayAABBIntersect2@Gu@physx@@YAIABVPxVec3@2@000AAV32@AAM@Z 1009f520 f   GuIntersectionRayBox.obj
 0001:0009e6b0       ?intersectRayAABB@Gu@physx@@YAHABVPxVec3@2@000AAM1@Z 1009f6b0 f   GuIntersectionRayBox.obj
 0001:0009e7d0       ?intersectRayAABB@Gu@physx@@YAHABVPxVec3@2@0000AAM1@Z 1009f7d0 f   GuIntersectionRayBox.obj
 0001:0009e980       ?intersectRayAABB2@Gu@physx@@YA_NABVPxVec3@2@000MAAM1@Z 1009f980 f   GuIntersectionRayBox.obj
 0001:0009eb30       ?intersectRayAABB@Gu@physx@@YAHABT__m128@@000AAT3@1@Z 1009fb30 f   GuIntersectionRayBox.obj
 0001:0009ed10       ?intersectRayAABB@Gu@physx@@YAHABT__m128@@0000AAT3@1@Z 1009fd10 f   GuIntersectionRayBox.obj
 0001:0009eee0       ?intersectRayAABB2@Gu@physx@@YA_NABT__m128@@0000AAT3@1@Z 1009fee0 f   GuIntersectionRayBox.obj
 0001:0009efb0       ?intersectRayCapsule@Gu@physx@@YAIABVPxVec3@2@0ABVCapsule@12@QAM@Z 1009ffb0 f   GuIntersectionRayCapsule.obj
 0001:0009f7f0       ?intersectRaySphereBasic@Gu@physx@@YA_NABVPxVec3@2@0M0MAAMPAV32@@Z 100a07f0 f   GuIntersectionRaySphere.obj
 0001:0009f920       ?intersectRaySphere@Gu@physx@@YA_NABVPxVec3@2@0M0MAAMPAV32@@Z 100a0920 f   GuIntersectionRaySphere.obj
 0001:0009fb30       ?intersectRayTriangleCulling@Gu@physx@@YA_NABVPxVec3@2@0000AAM11M@Z 100a0b30 f   GuIntersectionRayTriangle.obj
 0001:0009fd40       ?intersectRayTriangleNoCulling@Gu@physx@@YA_NABVPxVec3@2@0000AAM11M@Z 100a0d40 f   GuIntersectionRayTriangle.obj
 0001:0009ff70       ??0OBBTriangleTest@Gu@physx@@QAE@ABVBox@12@@Z 100a0f70 f   GuIntersectionTriangleBox.obj
 0001:000a0140       ?obbTriTest@OBBTriangleTest@Gu@physx@@QBEHABVPxVec3@3@00@Z 100a1140 f   GuIntersectionTriangleBox.obj
 0001:000a0a20       ?intersectTriangleBox@Gu@physx@@YAHABVPxVec3@2@0000@Z 100a1a20 f   GuIntersectionTriangleBox.obj
 0001:000a11e0       ?intersectTriangleBox@Gu@physx@@YA_NABT__m128@@0000@Z 100a21e0 f   GuIntersectionTriangleBox.obj
 0001:000a1ab0       ??0RTreeMidphase@Gu@physx@@QAE@XZ 100a2ab0 f   GuHybridModel.obj
 0001:000a1ad0       ??1RTreeMidphase@Gu@physx@@QAE@XZ 100a2ad0 f   GuHybridModel.obj
 0001:000a1ae0       ?exportExtraData@RTreeMidphase@Gu@physx@@QAEXAAVPxSerializationContext@3@@Z 100a2ae0 f   GuHybridModel.obj
 0001:000a1af0       ?importExtraData@RTreeMidphase@Gu@physx@@QAEXAAVPxDeserializationContext@3@@Z 100a2af0 f   GuHybridModel.obj
 0001:000a1b00       ?exportExtraData@InternalTriangleMesh@physx@@QAEXAAVPxSerializationContext@2@@Z 100a2b00 f   GuInternalTriangleMesh.obj
 0001:000a1c10       ?importExtraData@InternalTriangleMesh@physx@@QAEXAAVPxDeserializationContext@2@@Z 100a2c10 f   GuInternalTriangleMesh.obj
 0001:000a1d30       ??0InternalTriangleMesh@physx@@QAE@XZ 100a2d30 f   GuInternalTriangleMesh.obj
 0001:000a1df0       ??1InternalTriangleMesh@physx@@QAE@XZ 100a2df0 f   GuInternalTriangleMesh.obj
 0001:000a1e10       ?release@InternalTriangleMesh@physx@@QAEXXZ 100a2e10 f   GuInternalTriangleMesh.obj
 0001:000a1ef0       ?allocateVertices@InternalTriangleMesh@physx@@QAEPAVPxVec3@2@I@Z 100a2ef0 f   GuInternalTriangleMesh.obj
 0001:000a1f20       ?allocateTriangles@InternalTriangleMesh@physx@@QAEPAXI_N@Z 100a2f20 f   GuInternalTriangleMesh.obj
 0001:000a1fa0       ?allocateMaterials@InternalTriangleMesh@physx@@QAEPAGXZ 100a2fa0 f   GuInternalTriangleMesh.obj
 0001:000a2020       ?allocateFaceRemap@InternalTriangleMesh@physx@@QAEPAIXZ 100a3020 f   GuInternalTriangleMesh.obj
 0001:000a20a0       ?allocateAdjacencies@InternalTriangleMesh@physx@@QAEPAIXZ 100a30a0 f   GuInternalTriangleMesh.obj
 0001:000a2130       ?loadRTree@InternalTriangleMesh@physx@@QAE_NAAVPxInputStream@2@I@Z 100a3130 f   GuInternalTriangleMesh.obj
 0001:000a21c0       ?setupMeshInterface@InternalTriangleMesh@physx@@QAEXXZ 100a31c0 f   GuInternalTriangleMesh.obj
 0001:000a21f0       ??0MeshInterface@Gu@physx@@QAE@XZ 100a31f0 f   GuMeshInterface.obj
 0001:000a2210       ??1MeshInterface@Gu@physx@@QAE@XZ 100a3210 f   GuMeshInterface.obj
 0001:000a2220       ?SetPointers@MeshInterface@Gu@physx@@QAE_NPBX_NPBVPxVec3@3@@Z 100a3220 f   GuMeshInterface.obj
 0001:000a2270       ?IsValid@MeshInterface@Gu@physx@@QBE_NXZ 100a3270 f   GuMeshInterface.obj
 0001:000a2290       ?CheckTopology@MeshInterface@Gu@physx@@QBEIXZ 100a3290 f   GuMeshInterface.obj
 0001:000a2320       ?getTriangle@PxMeshQuery@physx@@SAXABVPxTriangleMeshGeometry@2@ABVPxTransform@2@IAAVPxTriangle@2@PAI3@Z 100a3320 f   GuMeshQuery.obj
 0001:000a2660       ?getTriangle@PxMeshQuery@physx@@SAXABVPxHeightFieldGeometry@2@ABVPxTransform@2@IAAVPxTriangle@2@PAI3@Z 100a3660 f   GuMeshQuery.obj
 0001:000a26c0       ?findOverlapTriangleMesh@PxMeshQuery@physx@@SAIABVPxGeometry@2@ABVPxTransform@2@ABVPxTriangleMeshGeometry@2@1PAIIIAA_N@Z 100a36c0 f   GuMeshQuery.obj
 0001:000a2a30       ?findOverlapHeightField@PxMeshQuery@physx@@SAIABVPxGeometry@2@ABVPxTransform@2@ABVPxHeightFieldGeometry@2@1PAIIIAA_N@Z 100a3a30 f   GuMeshQuery.obj
 0001:000a2ff0       ?sweep@PxMeshQuery@physx@@SA_NABVPxVec3@2@MABVPxGeometry@2@ABVPxTransform@2@IPBVPxTriangle@2@AAUPxSweepHit@2@V?$PxFlags@W4Enum@PxHitFlag@physx@@G@2@PBIM_N@Z 100a3ff0 f   GuMeshQuery.obj
 0001:000a3180       ??Dphysx@@YA?AVMatrix34@Cm@0@ABVPxTransform@0@ABVPxMeshScale@0@@Z 100a4180 f i GuMeshQuery.obj
 0001:000a37d0       ??_EHfTrianglesEntityReport2@?A0xc5337ded@@UAEPAXI@Z 100a47d0 f i GuMeshQuery.obj
 0001:000a37d0       ??_GHfTrianglesEntityReport2@?A0xc5337ded@@UAEPAXI@Z 100a47d0 f i GuMeshQuery.obj
 0001:000a3c90       ?poseExtent@PxBounds3@physx@@SA?AV12@ABVPxTransform@2@ABVPxVec3@2@@Z 100a4c90 f i GuMeshQuery.obj
 0001:000a3eb0       ?collideOBB@MeshRayCollider@Gu@physx@@SAXABVBox@23@_NABURTreeMidphaseData@23@AAU?$MeshHitCallback@UPxRaycastHit@physx@@@23@1@Z 100a4eb0 f   GuMidphase.obj
 0001:000a40d0       ??$collide@$00$00@MeshRayCollider@Gu@physx@@SAXABVPxVec3@2@0M_NABURTreeMidphaseData@12@AAU?$MeshHitCallback@UPxRaycastHit@physx@@@12@PBV32@@Z 100a50d0 f i GuMidphase.obj
 0001:000a4270       ??$collide@$00$0A@@MeshRayCollider@Gu@physx@@SAXABVPxVec3@2@0M_NABURTreeMidphaseData@12@AAU?$MeshHitCallback@UPxRaycastHit@physx@@@12@PBV32@@Z 100a5270 f i GuMidphase.obj
 0001:000a4410       ??$collide@$0A@$00@MeshRayCollider@Gu@physx@@SAXABVPxVec3@2@0M_NABURTreeMidphaseData@12@AAU?$MeshHitCallback@UPxRaycastHit@physx@@@12@PBV32@@Z 100a5410 f i GuMidphase.obj
 0001:000a4570       ??$collide@$0A@$0A@@MeshRayCollider@Gu@physx@@SAXABVPxVec3@2@0M_NABURTreeMidphaseData@12@AAU?$MeshHitCallback@UPxRaycastHit@physx@@@12@PBV32@@Z 100a5570 f i GuMidphase.obj
 0001:000a46d0       ??0?$RayRTreeCallback@$00$00@@QAE@ABURTreeMidphaseData@Gu@physx@@AAU?$MeshHitCallback@UPxRaycastHit@physx@@@23@IPAI2ABVPxVec3@3@3M_NPBV53@@Z 100a56d0 f i GuMidphase.obj
 0001:000a4810       ??0?$RayRTreeCallback@$00$0A@@@QAE@ABURTreeMidphaseData@Gu@physx@@AAU?$MeshHitCallback@UPxRaycastHit@physx@@@23@IPAI2ABVPxVec3@3@3M_NPBV53@@Z 100a5810 f i GuMidphase.obj
 0001:000a4950       ??0?$RayRTreeCallback@$0A@$00@@QAE@ABURTreeMidphaseData@Gu@physx@@AAU?$MeshHitCallback@UPxRaycastHit@physx@@@23@IPAI2ABVPxVec3@3@3M_NPBV53@@Z 100a5950 f i GuMidphase.obj
 0001:000a4a70       ??0?$RayRTreeCallback@$0A@$0A@@@QAE@ABURTreeMidphaseData@Gu@physx@@AAU?$MeshHitCallback@UPxRaycastHit@physx@@@23@IPAI2ABVPxVec3@3@3M_NPBV53@@Z 100a5a70 f i GuMidphase.obj
 0001:000a4b90       ??1?$RayRTreeCallback@$00$00@@UAE@XZ 100a5b90 f i GuMidphase.obj
 0001:000a4bf0       ??1?$RayRTreeCallback@$00$0A@@@UAE@XZ 100a5bf0 f i GuMidphase.obj
 0001:000a4c50       ??1?$RayRTreeCallback@$0A@$00@@UAE@XZ 100a5c50 f i GuMidphase.obj
 0001:000a4cb0       ??1?$RayRTreeCallback@$0A@$0A@@@UAE@XZ 100a5cb0 f i GuMidphase.obj
 0001:000a4d10       ??1Callback@RTree@Gu@physx@@UAE@XZ 100a5d10 f i GuMidphase.obj
 0001:000a4d20       ??1CallbackRaycast@RTree@Gu@physx@@UAE@XZ 100a5d20 f i GuMidphase.obj
 0001:000a4d27       ??_E?$RayRTreeCallback@$00$00@@W3AEPAXI@Z 100a5d27 f i GuMidphase.obj
 0001:000a4d2f       ??_E?$RayRTreeCallback@$00$0A@@@W3AEPAXI@Z 100a5d2f f i GuMidphase.obj
 0001:000a4d37       ??_E?$RayRTreeCallback@$0A@$00@@W3AEPAXI@Z 100a5d37 f i GuMidphase.obj
 0001:000a4d3f       ??_E?$RayRTreeCallback@$0A@$0A@@@W3AEPAXI@Z 100a5d3f f i GuMidphase.obj
 0001:000a4d50       ??_G?$RayRTreeCallback@$00$00@@UAEPAXI@Z 100a5d50 f i GuMidphase.obj
 0001:000a4d50       ??_E?$RayRTreeCallback@$00$00@@UAEPAXI@Z 100a5d50 f i GuMidphase.obj
 0001:000a4dc0       ??_G?$RayRTreeCallback@$00$0A@@@UAEPAXI@Z 100a5dc0 f i GuMidphase.obj
 0001:000a4dc0       ??_E?$RayRTreeCallback@$00$0A@@@UAEPAXI@Z 100a5dc0 f i GuMidphase.obj
 0001:000a4e30       ??_G?$RayRTreeCallback@$0A@$00@@UAEPAXI@Z 100a5e30 f i GuMidphase.obj
 0001:000a4e30       ??_E?$RayRTreeCallback@$0A@$00@@UAEPAXI@Z 100a5e30 f i GuMidphase.obj
 0001:000a4ea0       ??_E?$RayRTreeCallback@$0A@$0A@@@UAEPAXI@Z 100a5ea0 f i GuMidphase.obj
 0001:000a4ea0       ??_G?$RayRTreeCallback@$0A@$0A@@@UAEPAXI@Z 100a5ea0 f i GuMidphase.obj
 0001:000a4f10       ??_ECallback@RTree@Gu@physx@@UAEPAXI@Z 100a5f10 f i GuMidphase.obj
 0001:000a4f10       ??_GCallback@RTree@Gu@physx@@UAEPAXI@Z 100a5f10 f i GuMidphase.obj
 0001:000a4f40       ??_ECallbackRaycast@RTree@Gu@physx@@UAEPAXI@Z 100a5f40 f i GuMidphase.obj
 0001:000a4f40       ??_GCallbackRaycast@RTree@Gu@physx@@UAEPAXI@Z 100a5f40 f i GuMidphase.obj
 0001:000a4f70       ?processResults@?$RayRTreeCallback@$00$00@@UAE_NIPAI@Z 100a5f70 f i GuMidphase.obj
 0001:000a5310       ?processResults@?$RayRTreeCallback@$00$00@@UAE_NIPAIAAM@Z 100a6310 f i GuMidphase.obj
 0001:000a56c0       ?processResults@?$RayRTreeCallback@$00$0A@@@UAE_NIPAI@Z 100a66c0 f i GuMidphase.obj
 0001:000a5960       ?processResults@?$RayRTreeCallback@$00$0A@@@UAE_NIPAIAAM@Z 100a6960 f i GuMidphase.obj
 0001:000a5c10       ?processResults@?$RayRTreeCallback@$0A@$00@@UAE_NIPAI@Z 100a6c10 f i GuMidphase.obj
 0001:000a6220       ?processResults@?$RayRTreeCallback@$0A@$00@@UAE_NIPAIAAM@Z 100a7220 f i GuMidphase.obj
 0001:000a6830       ?processResults@?$RayRTreeCallback@$0A@$0A@@@UAE_NIPAI@Z 100a7830 f i GuMidphase.obj
 0001:000a6ad0       ?processResults@?$RayRTreeCallback@$0A@$0A@@@UAE_NIPAIAAM@Z 100a7ad0 f i GuMidphase.obj
 0001:000a6d80       ?profile@Callback@RTree@Gu@physx@@UAEXXZ 100a7d80 f i GuMidphase.obj
 0001:000a6d90       ?findOverlapSphereMesh@Gu@physx@@YAIABVSphere@12@ABVRTreeMidphase@12@ABVPxTransform@2@ABVPxMeshScale@2@PIAIIIAA_N@Z 100a7d90 f   GuOverlapTestsMesh.obj
 0001:000a6e40       ?findOverlapCapsuleMesh@Gu@physx@@YAIABVCapsule@12@ABVRTreeMidphase@12@ABVPxTransform@2@ABVPxMeshScale@2@PIAIIIAA_N@Z 100a7e40 f   GuOverlapTestsMesh.obj
 0001:000a6ef0       ?findOverlapOBBMesh@Gu@physx@@YAIABVBox@12@ABVRTreeMidphase@12@ABVPxTransform@2@ABVPxMeshScale@2@PIAIIIAA_N@Z 100a7ef0 f   GuOverlapTestsMesh.obj
 0001:000a6fa0       ?checkOverlapOBB_triangleGeom@Gu@physx@@YA_NABVPxGeometry@2@ABVPxTransform@2@ABVBox@12@@Z 100a7fa0 f   GuOverlapTestsMesh.obj
 0001:000a7020       ?checkOverlapSphere_triangleGeom@@YA_NABVPxGeometry@physx@@ABVPxTransform@2@ABVSphere@Gu@2@@Z 100a8020 f   GuOverlapTestsMesh.obj
 0001:000a70a0       ?checkOverlapCapsule_triangleGeom@@YA_NABVPxGeometry@physx@@ABVPxTransform@2@ABVCapsule@Gu@2@@Z 100a80a0 f   GuOverlapTestsMesh.obj
 0001:000a7120       ?GeomOverlapCallback_SphereMesh@@YA_NABVPxGeometry@physx@@ABVPxTransform@2@01PAUTriggerCache@Gu@2@@Z 100a8120 f   GuOverlapTestsMesh.obj
 0001:000a71d0       ?GeomOverlapCallback_CapsuleMesh@@YA_NABVPxGeometry@physx@@ABVPxTransform@2@01PAUTriggerCache@Gu@2@@Z 100a81d0 f   GuOverlapTestsMesh.obj
 0001:000a7320       ?GeomOverlapCallback_BoxMesh@@YA_NABVPxGeometry@physx@@ABVPxTransform@2@01PAUTriggerCache@Gu@2@@Z 100a8320 f   GuOverlapTestsMesh.obj
 0001:000a7520       ?GeomOverlapCallback_ConvexMesh@@YA_NABVPxGeometry@physx@@ABVPxTransform@2@01PAUTriggerCache@Gu@2@@Z 100a8520 f   GuOverlapTestsMesh.obj
 0001:000a9c00       ??0ConvexVsMeshOverlapCallback@@QAE@ABVConvexMesh@Gu@physx@@ABVPxMeshScale@3@ABVFastVertex2ShapeScaling@Cm@3@ABVPxTransform@3@3_NABVBox@23@@Z 100aac00 f i GuOverlapTestsMesh.obj
 0001:000aa750       ??1?$IntersectAnyVsMeshCallback@$00$00@@UAE@XZ 100ab750 f i GuOverlapTestsMesh.obj
 0001:000aa760       ??1?$IntersectAnyVsMeshCallback@$00$0A@@@UAE@XZ 100ab760 f i GuOverlapTestsMesh.obj
 0001:000aa770       ??1?$IntersectAnyVsMeshCallback@$01$00@@UAE@XZ 100ab770 f i GuOverlapTestsMesh.obj
 0001:000aa780       ??1?$IntersectAnyVsMeshCallback@$01$0A@@@UAE@XZ 100ab780 f i GuOverlapTestsMesh.obj
 0001:000aa790       ??1?$IntersectAnyVsMeshCallback@$0A@$00@@UAE@XZ 100ab790 f i GuOverlapTestsMesh.obj
 0001:000aa7a0       ??1?$IntersectAnyVsMeshCallback@$0A@$0A@@@UAE@XZ 100ab7a0 f i GuOverlapTestsMesh.obj
 0001:000aa7b0       ??1ConvexVsMeshOverlapCallback@@UAE@XZ 100ab7b0 f i GuOverlapTestsMesh.obj
 0001:000aa7c0       ??_E?$IntersectAnyVsMeshCallback@$00$00@@UAEPAXI@Z 100ab7c0 f i GuOverlapTestsMesh.obj
 0001:000aa7c0       ??_G?$IntersectAnyVsMeshCallback@$00$00@@UAEPAXI@Z 100ab7c0 f i GuOverlapTestsMesh.obj
 0001:000aa7f0       ??_G?$IntersectAnyVsMeshCallback@$00$0A@@@UAEPAXI@Z 100ab7f0 f i GuOverlapTestsMesh.obj
 0001:000aa7f0       ??_E?$IntersectAnyVsMeshCallback@$00$0A@@@UAEPAXI@Z 100ab7f0 f i GuOverlapTestsMesh.obj
 0001:000aa820       ??_E?$IntersectAnyVsMeshCallback@$01$00@@UAEPAXI@Z 100ab820 f i GuOverlapTestsMesh.obj
 0001:000aa820       ??_G?$IntersectAnyVsMeshCallback@$01$00@@UAEPAXI@Z 100ab820 f i GuOverlapTestsMesh.obj
 0001:000aa850       ??_G?$IntersectAnyVsMeshCallback@$01$0A@@@UAEPAXI@Z 100ab850 f i GuOverlapTestsMesh.obj
 0001:000aa850       ??_E?$IntersectAnyVsMeshCallback@$01$0A@@@UAEPAXI@Z 100ab850 f i GuOverlapTestsMesh.obj
 0001:000aa880       ??_G?$IntersectAnyVsMeshCallback@$0A@$00@@UAEPAXI@Z 100ab880 f i GuOverlapTestsMesh.obj
 0001:000aa880       ??_E?$IntersectAnyVsMeshCallback@$0A@$00@@UAEPAXI@Z 100ab880 f i GuOverlapTestsMesh.obj
 0001:000aa8b0       ??_E?$IntersectAnyVsMeshCallback@$0A@$0A@@@UAEPAXI@Z 100ab8b0 f i GuOverlapTestsMesh.obj
 0001:000aa8b0       ??_G?$IntersectAnyVsMeshCallback@$0A@$0A@@@UAEPAXI@Z 100ab8b0 f i GuOverlapTestsMesh.obj
 0001:000aa8e0       ??_EConvexVsMeshOverlapCallback@@UAEPAXI@Z 100ab8e0 f i GuOverlapTestsMesh.obj
 0001:000aa8e0       ??_GConvexVsMeshOverlapCallback@@UAEPAXI@Z 100ab8e0 f i GuOverlapTestsMesh.obj
 0001:000aa910       ?computeSweptAABBAroundOBB@Gu@physx@@YAXABVBox@12@AAVPxVec3@2@11AAM@Z 100ab910 f i GuOverlapTestsMesh.obj
 0001:000aaa90       ?processHit@?$IntersectAnyVsMeshCallback@$00$00@@UAE_NABUPxRaycastHit@physx@@ABVPxVec3@3@11AAMPBI@Z 100aba90 f i GuOverlapTestsMesh.obj
 0001:000aabd0       ?processHit@?$IntersectAnyVsMeshCallback@$00$0A@@@UAE_NABUPxRaycastHit@physx@@ABVPxVec3@3@11AAMPBI@Z 100abbd0 f i GuOverlapTestsMesh.obj
 0001:000aae90       ?processHit@?$IntersectAnyVsMeshCallback@$01$00@@UAE_NABUPxRaycastHit@physx@@ABVPxVec3@3@11AAMPBI@Z 100abe90 f i GuOverlapTestsMesh.obj
 0001:000ab110       ?processHit@?$IntersectAnyVsMeshCallback@$01$0A@@@UAE_NABUPxRaycastHit@physx@@ABVPxVec3@3@11AAMPBI@Z 100ac110 f i GuOverlapTestsMesh.obj
 0001:000ab3e0       ?processHit@?$IntersectAnyVsMeshCallback@$0A@$00@@UAE_NABUPxRaycastHit@physx@@ABVPxVec3@3@11AAMPBI@Z 100ac3e0 f i GuOverlapTestsMesh.obj
 0001:000ab510       ?processHit@?$IntersectAnyVsMeshCallback@$0A@$0A@@@UAE_NABUPxRaycastHit@physx@@ABVPxVec3@3@11AAMPBI@Z 100ac510 f i GuOverlapTestsMesh.obj
 0001:000ab7b0       ?processHit@ConvexVsMeshOverlapCallback@@UAE_NABUPxRaycastHit@physx@@ABVPxVec3@3@11AAMPBI@Z 100ac7b0 f i GuOverlapTestsMesh.obj
 0001:000aba90       ?transformBoxOrthonormal@physx@@YA?AVBox@Gu@1@ABV231@ABVPxTransform@1@@Z 100aca90 f i GuOverlapTestsMesh.obj
 0001:000abf20       ??0RTree@Gu@physx@@QAE@ABW4PxEMPTY@2@@Z 100acf20 f   GuRTree.obj
 0001:000abf30       ?exportExtraData@RTree@Gu@physx@@QAEXAAVPxSerializationContext@3@@Z 100acf30 f   GuRTree.obj
 0001:000abf60       ?importExtraData@RTree@Gu@physx@@QAEXAAVPxDeserializationContext@3@@Z 100acf60 f   GuRTree.obj
 0001:000abf90       ??0RTree@Gu@physx@@QAE@XZ  100acf90 f   GuRTree.obj
 0001:000abfc0       ?release@RTree@Gu@physx@@QAEXXZ 100acfc0 f   GuRTree.obj
 0001:000abff0       ?save@RTree@Gu@physx@@QBE_NAAVPxOutputStream@3@@Z 100acff0 f   GuRTree.obj
 0001:000ac160       ?load@RTree@Gu@physx@@QAE_NAAVPxInputStream@3@I@Z 100ad160 f   GuRTree.obj
 0001:000ac340       ?validate@RTree@Gu@physx@@QAEXXZ 100ad340 f   GuRTree.obj
 0001:000ac450       ?computeBottomLevelCount@RTree@Gu@physx@@QBEII@Z 100ad450 f   GuRTree.obj
 0001:000ac500       ?validateRecursive@RTree@Gu@physx@@IAEXIURTreeNodeQ@23@PAURTreePage@23@@Z 100ad500 f   GuRTree.obj
 0001:000ac670       ?allocate@?$AlignedAllocator@$0IA@VAllocator@shdfnd@physx@@@shdfnd@physx@@QAEPAXIPBDH@Z 100ad670 f i GuRTree.obj
 0001:000ac6c0       ?traverseAABB@RTree@Gu@physx@@QBEXABVPxVec3@3@0IPAIPAUCallback@123@@Z 100ad6c0 f   GuRTreeQueries.obj
 0001:000ac8b0       ?traverseOBB@RTree@Gu@physx@@QBEXABVBox@23@IPAIPAUCallback@123@@Z 100ad8b0 f   GuRTreeQueries.obj
 0001:000ad1d0       ??$traverseRay@$00@RTree@Gu@physx@@QBEXABVPxVec3@2@0IPAIPAUCallbackRaycast@012@PBV32@M@Z 100ae1d0 f i GuRTreeQueries.obj
 0001:000ad510       ??$traverseRay@$0A@@RTree@Gu@physx@@QBEXABVPxVec3@2@0IPAIPAUCallbackRaycast@012@PBV32@M@Z 100ae510 f i GuRTreeQueries.obj
 0001:000ad7f0       ?sweepCapsule_MeshGeom@@YA_NABVPxGeometry@physx@@ABVPxTransform@2@ABVCapsule@Gu@2@ABVPxVec3@2@MAAUPxSweepHit@2@V?$PxFlags@W4Enum@PxHitFlag@physx@@G@2@M@Z 100ae7f0 f   GuSweepsMesh.obj
 0001:000ae640       ?sweepBox_MeshGeom@@YA_NABVPxGeometry@physx@@ABVPxTransform@2@ABVBox@Gu@2@ABVPxVec3@2@MAAUPxSweepHit@2@V?$PxFlags@W4Enum@PxHitFlag@physx@@G@2@M@Z 100af640 f   GuSweepsMesh.obj
 0001:000b0310       ?sweepConvex_MeshGeom@@YA_NABVPxGeometry@physx@@ABVPxTransform@2@ABVPxConvexMeshGeometry@2@1ABVPxVec3@2@MAAUPxSweepHit@2@V?$PxFlags@W4Enum@PxHitFlag@physx@@G@2@M@Z 100b1310 f   GuSweepsMesh.obj
 0001:000b0d40       ??0ConvexVsMeshSweepCallback@@QAE@ABUConvexHullData@Gu@physx@@ABVPxMeshScale@3@ABVFastVertex2ShapeScaling@Cm@3@ABVPxTransform@3@3ABVPxVec3@3@MV?$PxFlags@W4Enum@PxHitFlag@physx@@G@3@_NM6@Z 100b1d40 f i GuSweepsMesh.obj
 0001:000b1900       ??0SweepBoxMeshHitCallback@@QAE@W4Enum@CallbackMode@Gu@physx@@ABVMatrix34Padded@@MM_NABVBox@34@ABVPxVec3@4@44ABV?$PxFlags@W4Enum@PxHitFlag@physx@@G@4@M@Z 100b2900 f i GuSweepsMesh.obj
 0001:000b1a30       ??1ConvexVsMeshSweepCallback@@UAE@XZ 100b2a30 f i GuSweepsMesh.obj
 0001:000b1a40       ??1SweepBoxMeshHitCallback@@UAE@XZ 100b2a40 f i GuSweepsMesh.obj
 0001:000b1a50       ??4PxTriangle@physx@@QAEAAV01@ABV01@@Z 100b2a50 f i GuSweepsMesh.obj
 0001:000b1a90       ??_EConvexVsMeshSweepCallback@@UAEPAXI@Z 100b2a90 f i GuSweepsMesh.obj
 0001:000b1a90       ??_GConvexVsMeshSweepCallback@@UAEPAXI@Z 100b2a90 f i GuSweepsMesh.obj
 0001:000b1ac0       ??_ESweepBoxMeshHitCallback@@UAEPAXI@Z 100b2ac0 f i GuSweepsMesh.obj
 0001:000b1ac0       ??_GSweepBoxMeshHitCallback@@UAEPAXI@Z 100b2ac0 f i GuSweepsMesh.obj
 0001:000b1af0       ??_ESweepCapsuleCallback@@UAEPAXI@Z 100b2af0 f i GuSweepsMesh.obj
 0001:000b1af0       ??_GSweepCapsuleCallback@@UAEPAXI@Z 100b2af0 f i GuSweepsMesh.obj
 0001:000b1b20       ?finalize@SweepCapsuleCallback@@QAE_NAAUPxSweepHit@physx@@ABVCapsule@Gu@3@ABVPxTriangleMeshGeometry@3@ABVPxTransform@3@_NM@Z 100b2b20 f i GuSweepsMesh.obj
 0001:000b1d00       ?processHit@ConvexVsMeshSweepCallback@@UAE_NABUPxRaycastHit@physx@@ABVPxVec3@3@11AAMPBI@Z 100b2d00 f i GuSweepsMesh.obj
 0001:000b23f0       ?processHit@SweepBoxMeshHitCallback@@UAE_NABUPxRaycastHit@physx@@ABVPxVec3@3@11AAMPBI@Z 100b33f0 f i GuSweepsMesh.obj
 0001:000b2ad0       ?processHit@SweepCapsuleCallback@@UAE_NABUPxRaycastHit@physx@@ABVPxVec3@3@11AAMPBI@Z 100b3ad0 f i GuSweepsMesh.obj
 0001:000b31b0       ?onRefCountZero@TriangleMesh@Gu@physx@@UAEXXZ 100b41b0 f   GuTriangleMesh.obj
 0001:000b3220       ?exportExtraData@TriangleMesh@Gu@physx@@UAEXAAVPxSerializationContext@3@@Z 100b4220 f   GuTriangleMesh.obj
 0001:000b3230       ?importExtraData@TriangleMesh@Gu@physx@@QAEXAAVPxDeserializationContext@3@@Z 100b4230 f   GuTriangleMesh.obj
 0001:000b3240       ?createObject@TriangleMesh@Gu@physx@@SAPAV123@AAPAEAAVPxDeserializationContext@3@@Z 100b4240 f   GuTriangleMesh.obj
 0001:000b3280       ??0TriangleMesh@Gu@physx@@QAE@XZ 100b4280 f   GuTriangleMesh.obj
 0001:000b3310       ?load@TriangleMesh@Gu@physx@@QAE_NAAVPxInputStream@3@@Z 100b4310 f   GuTriangleMesh.obj
 0001:000b3790       ?setupMeshInterface@TriangleMesh@Gu@physx@@QAEXXZ 100b4790 f   GuTriangleMesh.obj
 0001:000b37b0       ?checkMeshIndicesSize@TriangleMesh@Gu@physx@@QAEXXZ 100b47b0 f   GuTriangleMesh.obj
 0001:000b3820       ?release@TriangleMesh@Gu@physx@@UAEXXZ 100b4820 f   GuTriangleMesh.obj
 0001:000b3860       ?getReferenceCount@TriangleMesh@Gu@physx@@UBEIXZ 100b4860 f   GuTriangleMesh.obj
 0001:000b3870       ??1TriangleMesh@Gu@physx@@UAE@XZ 100b4870 f   GuTriangleMesh.obj
 0001:000b38b0       ?debugVisualize@TriangleMesh@Gu@physx@@QBEXAAVRenderOutput@Cm@3@ABVMatrix34@53@ABVPxMeshScale@3@ABVPxBounds3@3@_KMI@Z 100b48b0 f   GuTriangleMesh.obj
 0001:000b5180       ?exportExtraData@HeightField@Gu@physx@@UAEXAAVPxSerializationContext@3@@Z 100b6180 f   GuHeightField.obj
 0001:000b51b0       ?importExtraData@HeightField@Gu@physx@@QAEXAAVPxDeserializationContext@3@@Z 100b61b0 f   GuHeightField.obj
 0001:000b51e0       ?createObject@HeightField@Gu@physx@@SAPAV123@AAPAEAAVPxDeserializationContext@3@@Z 100b61e0 f   GuHeightField.obj
 0001:000b5250       ??0HeightField@Gu@physx@@QAE@PAVGuMeshFactory@2@@Z 100b6250 f   GuHeightField.obj
 0001:000b52d0       ?release@HeightField@Gu@physx@@UAEXXZ 100b62d0 f   GuHeightField.obj
 0001:000b5310       ?saveCells@HeightField@Gu@physx@@UBEIPAXI@Z 100b6310 f   GuHeightField.obj
 0001:000b5340       ?modifySamples@HeightField@Gu@physx@@UAE_NHHABVPxHeightFieldDesc@3@_N@Z 100b6340 f   GuHeightField.obj
 0001:000b5610       ?getReferenceCount@HeightField@Gu@physx@@UBEIXZ 100b6610 f   GuHeightField.obj
 0001:000b5620       ?onRefCountZero@HeightField@Gu@physx@@UAEXXZ 100b6620 f   GuHeightField.obj
 0001:000b5690       ?loadFromDesc@HeightField@Gu@physx@@QAE_NABVPxHeightFieldDesc@3@_N@Z 100b6690 f   GuHeightField.obj
 0001:000b58f0       ?load@HeightField@Gu@physx@@QAE_NAAVPxInputStream@3@@Z 100b68f0 f   GuHeightField.obj
 0001:000b5b00       ?computeCellCoordinates@HeightField@Gu@physx@@QBEIMMAAM0@Z 100b6b00 f   GuHeightField.obj
 0001:000b5c30       ?isSolidVertex@HeightField@Gu@physx@@QBE_NIIIGAA_N@Z 100b6c30 f   GuHeightField.obj
 0001:000b5d60       ?isCollisionVertexPreca@HeightField@Gu@physx@@QBE_NIIIG@Z 100b6d60 f   GuHeightField.obj
 0001:000b5de0       ?parseTrianglesForCollisionVertices@HeightField@Gu@physx@@QAEXG@Z 100b6de0 f   GuHeightField.obj
 0001:000b6130       ?computeExtreme@HeightField@Gu@physx@@QBEMIIII@Z 100b7130 f   GuHeightField.obj
 0001:000b6210       ?releaseMemory@HeightField@Gu@physx@@QAEX_N@Z 100b7210 f   GuHeightField.obj
 0001:000b6240       ??1HeightField@Gu@physx@@UAE@XZ 100b7240 f   GuHeightField.obj
 0001:000b6280       ?getVertexEdgeIndices@physx@@YAIABVHeightField@Gu@1@IIIQAUEdgeData@1@@Z 100b7280 f   GuHeightField.obj
 0001:000b6440       ?getEdgeTriangleIndices@physx@@YAIABVHeightField@Gu@1@ABUEdgeData@1@PIAI@Z 100b7440 f   GuHeightField.obj
 0001:000b6570       ??0?$BitMapBase@VAllocator@shdfnd@physx@@@Cm@physx@@QAE@XZ 100b7570 f i GuHeightField.obj
 0001:000b6580       ??1?$BitMapBase@VAllocator@shdfnd@physx@@@Cm@physx@@QAE@XZ 100b7580 f i GuHeightField.obj
 0001:000b65a0       ??_EHeightField@Gu@physx@@UAEPAXI@Z 100b75a0 f i GuHeightField.obj
 0001:000b66aa       ??_EHeightField@Gu@physx@@W7AEPAXI@Z 100b76aa f i GuHeightField.obj
 0001:000b66c0       ??_EPxHeightField@physx@@MAEPAXI@Z 100b76c0 f i GuHeightField.obj
 0001:000b6730       ?clear@?$BitMapBase@VAllocator@shdfnd@physx@@@Cm@physx@@QAEXI@Z 100b7730 f i GuHeightField.obj
 0001:000b67a0       ?isConvexVertex@HeightField@Gu@physx@@QBE_NIII@Z 100b77a0 f i GuHeightField.obj
 0001:000b6880       ?requires@HeightField@Gu@physx@@UAEXAAVPxProcessPxBaseCallback@3@@Z 100b7880 f i GuHeightField.obj
 0001:000b6890       ?computeLocalBounds@HeightFieldUtil@Gu@physx@@QBEXAAVPxBounds3@3@@Z 100b7890 f   GuHeightFieldUtil.obj
 0001:000b6b40       ?isCollisionEdge@HeightFieldUtil@Gu@physx@@QBE_NI@Z 100b7b40 f   GuHeightFieldUtil.obj
 0001:000b6c20       ?isCollisionEdge@HeightFieldUtil@Gu@physx@@QBE_NIIPIBIIII@Z 100b7c20 f   GuHeightFieldUtil.obj
 0001:000b6d00       ?isBoundaryEdge@HeightFieldUtil@Gu@physx@@QBE_NI@Z 100b7d00 f   GuHeightFieldUtil.obj
 0001:000b6da0       ?getFaceIndexAtShapePoint@HeightFieldUtil@Gu@physx@@QBEIMM@Z 100b7da0 f   GuHeightFieldUtil.obj
 0001:000b6ea0       ?getFaceIndexAtShapePointNoTest@HeightFieldUtil@Gu@physx@@QBEIMM@Z 100b7ea0 f   GuHeightFieldUtil.obj
 0001:000b6f40       ?getFaceIndexAtShapePointNoTest2@HeightFieldUtil@Gu@physx@@QBEIIMM@Z 100b7f40 f   GuHeightFieldUtil.obj
 0001:000b6fc0       ?getFaceIndexAtTriangleIndex@HeightFieldUtil@Gu@physx@@QBEII@Z 100b7fc0 f   GuHeightFieldUtil.obj
 0001:000b7010       ?getSmoothNormalAtShapePoint@HeightFieldUtil@Gu@physx@@QBE?AVPxVec3@3@MM@Z 100b8010 f   GuHeightFieldUtil.obj
 0001:000b7480       ?getVertexNormal@HeightFieldUtil@Gu@physx@@QBE?AVPxVec3@3@III@Z 100b8480 f   GuHeightFieldUtil.obj
 0001:000b77b0       ?getVertexFaceIndex@HeightFieldUtil@Gu@physx@@QBEIIII@Z 100b87b0 f   GuHeightFieldUtil.obj
 0001:000b78a0       ?getEdge@HeightFieldUtil@Gu@physx@@QBEXIIIIAAVPxVec3@3@0@Z 100b88a0 f   GuHeightFieldUtil.obj
 0001:000b7b70       ?getEdgeFaceIndex@HeightFieldUtil@Gu@physx@@QBEII@Z 100b8b70 f   GuHeightFieldUtil.obj
 0001:000b7c10       ?getEdgeFaceIndex@HeightFieldUtil@Gu@physx@@QBEIIIII@Z 100b8c10 f   GuHeightFieldUtil.obj
 0001:000b7cc0       ?getEdgeFaceIndex@HeightFieldUtil@Gu@physx@@QBEIIIPIBI@Z 100b8cc0 f   GuHeightFieldUtil.obj
 0001:000b7d60       ?findClosestPointsOnCell@HeightFieldUtil@Gu@physx@@QBEIIIVPxVec3@3@PIAV43@PIAI_N33@Z 100b8d60 f   GuHeightFieldUtil.obj
 0001:000b8490       ?findProjectionOnTriangle@HeightFieldUtil@Gu@physx@@QBE_NIIIABVPxVec3@3@AAV43@@Z 100b9490 f   GuHeightFieldUtil.obj
 0001:000b8780       ?findClosestPointOnEdge@HeightFieldUtil@Gu@physx@@QBEMIIIIABVPxVec3@3@AAV43@@Z 100b9780 f   GuHeightFieldUtil.obj
 0001:000b8a90       ?getTriangle@HeightFieldUtil@Gu@physx@@QBEIABVPxTransform@3@AAVPxTriangle@3@PAI2I_N3@Z 100b9a90 f   GuHeightFieldUtil.obj
 0001:000b9740       ?overlapAABBTriangles@HeightFieldUtil@Gu@physx@@QBE_NABVPxTransform@3@ABVPxBounds3@3@IPAV?$EntityReport@I@23@@Z 100ba740 f   GuHeightFieldUtil.obj
 0001:000b9cd0       ?getEdgeTriangleIndices@HeightField@Gu@physx@@QBEIIQAI@Z 100bacd0 f i GuHeightFieldUtil.obj
 0001:000b9de0       ?getEdgeTriangleIndices@HeightField@Gu@physx@@QBEIIQAIIII@Z 100bade0 f i GuHeightFieldUtil.obj
 0001:000b9ee0       ?getTriangleAdjacencyIndices@HeightField@Gu@physx@@QBEXIIIIAAI00@Z 100baee0 f i GuHeightFieldUtil.obj
 0001:000ba050       ?isConvexEdge@HeightField@Gu@physx@@QBE_NIIII@Z 100bb050 f i GuHeightFieldUtil.obj
 0001:000ba1b0       ?intersectHeightFieldSphere@Gu@physx@@YA_NABVHeightFieldUtil@12@ABVSphere@12@@Z 100bb1b0 f   GuOverlapTestsHF.obj
 0001:000ba550       ?intersectHeightFieldCapsule@Gu@physx@@YA_NABVHeightFieldUtil@12@ABVCapsule@12@@Z 100bb550 f   GuOverlapTestsHF.obj
 0001:000babb0       ?intersectHeightFieldBox@Gu@physx@@YA_NABVHeightFieldUtil@12@ABVBox@12@@Z 100bbbb0 f   GuOverlapTestsHF.obj
 0001:000bb8b0       ?intersectHeightFieldConvex@Gu@physx@@YA_NABVHeightFieldUtil@12@ABVPxTransform@2@ABVConvexMesh@12@1ABVPxMeshScale@2@@Z 100bc8b0 f   GuOverlapTestsHF.obj
 0001:000bce70       ?checkOverlapSphere_heightFieldGeom@Gu@physx@@YA_NABVPxGeometry@2@ABVPxTransform@2@ABVSphere@12@@Z 100bde70 f   GuOverlapTestsHF.obj
 0001:000bd1b0       ?checkOverlapOBB_heightFieldGeom@Gu@physx@@YA_NABVPxGeometry@2@ABVPxTransform@2@ABVBox@12@@Z 100be1b0 f   GuOverlapTestsHF.obj
 0001:000bd770       ?checkOverlapCapsule_heightFieldGeom@Gu@physx@@YA_NABVPxGeometry@2@ABVPxTransform@2@ABVCapsule@12@@Z 100be770 f   GuOverlapTestsHF.obj
 0001:000bdba0       ?GeomOverlapCallback_SphereHeightfield@@YA_NABVPxGeometry@physx@@ABVPxTransform@2@01PAUTriggerCache@Gu@2@@Z 100beba0 f   GuOverlapTestsHF.obj
 0001:000bdd30       ?GeomOverlapCallback_PlaneHeightfield@@YA_NABVPxGeometry@physx@@ABVPxTransform@2@01PAUTriggerCache@Gu@2@@Z 100bed30 f   GuOverlapTestsHF.obj
 0001:000bdd40       ?GeomOverlapCallback_CapsuleHeightfield@@YA_NABVPxGeometry@physx@@ABVPxTransform@2@01PAUTriggerCache@Gu@2@@Z 100bed40 f   GuOverlapTestsHF.obj
 0001:000be080       ?GeomOverlapCallback_BoxHeightfield@@YA_NABVPxGeometry@physx@@ABVPxTransform@2@01PAUTriggerCache@Gu@2@@Z 100bf080 f   GuOverlapTestsHF.obj
 0001:000be430       ?GeomOverlapCallback_ConvexHeightfield@@YA_NABVPxGeometry@physx@@ABVPxTransform@2@01PAUTriggerCache@Gu@2@@Z 100bf430 f   GuOverlapTestsHF.obj
 0001:000be490       ??$traceSegment@UTriggerTraceSegmentCallback@Gu@physx@@$0A@$0A@$0A@@HeightFieldUtil@Gu@physx@@QBEXABVPxVec3@2@0PAUTriggerTraceSegmentCallback@12@PBV32@@Z 100bf490 f i GuOverlapTestsHF.obj
 0001:000bf1e0       ?sweepCapsule_HeightFieldGeom@@YA_NABVPxGeometry@physx@@ABVPxTransform@2@ABVCapsule@Gu@2@ABVPxVec3@2@MAAUPxSweepHit@2@V?$PxFlags@W4Enum@PxHitFlag@physx@@G@2@M@Z 100c01e0 f   GuSweepsHF.obj
 0001:000bfb20       ?sweepConvex_HeightFieldGeom@@YA_NABVPxGeometry@physx@@ABVPxTransform@2@ABVPxConvexMeshGeometry@2@1ABVPxVec3@2@MAAUPxSweepHit@2@V?$PxFlags@W4Enum@PxHitFlag@physx@@G@2@M@Z 100c0b20 f   GuSweepsHF.obj
 0001:000c0750       ?sweepBox_HeightFieldGeom@@YA_NABVPxGeometry@physx@@ABVPxTransform@2@ABVBox@Gu@2@ABVPxVec3@2@MAAUPxSweepHit@2@V?$PxFlags@W4Enum@PxHitFlag@physx@@G@2@M@Z 100c1750 f   GuSweepsHF.obj
 0001:000c1540       ??$traceSegment@UBoxTraceSegmentReport@@$0A@$0A@$00@HeightFieldUtil@Gu@physx@@QBEXABVPxVec3@2@0PAUBoxTraceSegmentReport@@PBV32@@Z 100c2540 f i GuSweepsHF.obj
 0001:000c1c90       ??$traceSegment@UCapsuleTraceSegmentReport@@$0A@$0A@$00@HeightFieldUtil@Gu@physx@@QBEXABVPxVec3@2@0PAUCapsuleTraceSegmentReport@@PBV32@@Z 100c2c90 f i GuSweepsHF.obj
 0001:000c23e0       ??$traceSegment@VConvexVsHeightfieldSweep@@$0A@$0A@$00@HeightFieldUtil@Gu@physx@@QBEXABVPxVec3@2@0PAVConvexVsHeightfieldSweep@@PBV32@@Z 100c33e0 f i GuSweepsHF.obj
 0001:000c2b30       ??0ConvexVsHeightfieldSweep@@QAE@AAVHeightFieldUtil@Gu@physx@@ABUConvexHullData@23@ABVPxMeshScale@3@ABVPxTransform@3@3ABVPxVec3@3@MV?$PxFlags@W4Enum@PxHitFlag@physx@@G@3@M_N_N@Z 100c3b30 f i GuSweepsHF.obj
 0001:000c36f0       ??_EBoxTraceSegmentReport@@UAEPAXI@Z 100c46f0 f i GuSweepsHF.obj
 0001:000c36f0       ??_GBoxTraceSegmentReport@@UAEPAXI@Z 100c46f0 f i GuSweepsHF.obj
 0001:000c3720       ??_ECapsuleTraceSegmentReport@@UAEPAXI@Z 100c4720 f i GuSweepsHF.obj
 0001:000c3720       ??_GCapsuleTraceSegmentReport@@UAEPAXI@Z 100c4720 f i GuSweepsHF.obj
 0001:000c3750       ??_EConvexVsHeightfieldSweep@@UAEPAXI@Z 100c4750 f i GuSweepsHF.obj
 0001:000c3750       ??_GConvexVsHeightfieldSweep@@UAEPAXI@Z 100c4750 f i GuSweepsHF.obj
 0001:000c3780       ?init@?$OverlapTraceSegment@UBoxTraceSegmentReport@@@HeightFieldUtil@Gu@physx@@QAE_NHHHHHPAUBoxTraceSegmentReport@@PAV?$Array@IV?$ReflectionAllocator@I@shdfnd@physx@@@shdfnd@4@@Z 100c4780 f i GuSweepsHF.obj
 0001:000c3830       ?init@?$OverlapTraceSegment@UCapsuleTraceSegmentReport@@@HeightFieldUtil@Gu@physx@@QAE_NHHHHHPAUCapsuleTraceSegmentReport@@PAV?$Array@IV?$ReflectionAllocator@I@shdfnd@physx@@@shdfnd@4@@Z 100c4830 f i GuSweepsHF.obj
 0001:000c38e0       ?init@?$OverlapTraceSegment@VConvexVsHeightfieldSweep@@@HeightFieldUtil@Gu@physx@@QAE_NHHHHHPAVConvexVsHeightfieldSweep@@PAV?$Array@IV?$ReflectionAllocator@I@shdfnd@physx@@@shdfnd@4@@Z 100c48e0 f i GuSweepsHF.obj
 0001:000c3990       ?onEvent@BoxTraceSegmentReport@@UAE_NIPAI@Z 100c4990 f i GuSweepsHF.obj
 0001:000c3eb0       ?onEvent@CapsuleTraceSegmentReport@@UAE_NIPAI@Z 100c4eb0 f i GuSweepsHF.obj
 0001:000c4000       ?onEvent@ConvexVsHeightfieldSweep@@UAE_NIPAI@Z 100c5000 f i GuSweepsHF.obj
 0001:000c4570       ?prepare@?$OverlapTraceSegment@UBoxTraceSegmentReport@@@HeightFieldUtil@Gu@physx@@QAEXABVPxVec3@4@00AAM1@Z 100c5570 f i GuSweepsHF.obj
 0001:000c47e0       ?prepare@?$OverlapTraceSegment@UCapsuleTraceSegmentReport@@@HeightFieldUtil@Gu@physx@@QAEXABVPxVec3@4@00AAM1@Z 100c57e0 f i GuSweepsHF.obj
 0001:000c4a50       ?prepare@?$OverlapTraceSegment@VConvexVsHeightfieldSweep@@@HeightFieldUtil@Gu@physx@@QAEXABVPxVec3@4@00AAM1@Z 100c5a50 f i GuSweepsHF.obj
 0001:000c4cc0       ?step@?$OverlapTraceSegment@UBoxTraceSegmentReport@@@HeightFieldUtil@Gu@physx@@QAE_NHH@Z 100c5cc0 f i GuSweepsHF.obj
 0001:000c4d90       ?step@?$OverlapTraceSegment@UCapsuleTraceSegmentReport@@@HeightFieldUtil@Gu@physx@@QAE_NHH@Z 100c5d90 f i GuSweepsHF.obj
 0001:000c4e60       ?step@?$OverlapTraceSegment@VConvexVsHeightfieldSweep@@@HeightFieldUtil@Gu@physx@@QAE_NHH@Z 100c5e60 f i GuSweepsHF.obj
 0001:000c4f30       ?testVertexIndex@?$OverlapTraceSegment@UBoxTraceSegmentReport@@@HeightFieldUtil@Gu@physx@@QAE_NI@Z 100c5f30 f i GuSweepsHF.obj
 0001:000c5050       ?testVertexIndex@?$OverlapTraceSegment@UCapsuleTraceSegmentReport@@@HeightFieldUtil@Gu@physx@@QAE_NI@Z 100c6050 f i GuSweepsHF.obj
 0001:000c5170       ?testVertexIndex@?$OverlapTraceSegment@VConvexVsHeightfieldSweep@@@HeightFieldUtil@Gu@physx@@QAE_NI@Z 100c6170 f i GuSweepsHF.obj
 0001:000c5290       ?visitCells@?$OverlapTraceSegment@UBoxTraceSegmentReport@@@HeightFieldUtil@Gu@physx@@QAE_NABUOverlapLine@1234@@Z 100c6290 f i GuSweepsHF.obj
 0001:000c5370       ?visitCells@?$OverlapTraceSegment@UBoxTraceSegmentReport@@@HeightFieldUtil@Gu@physx@@QAE_NABUOverlapRectangle@1234@@Z 100c6370 f i GuSweepsHF.obj
 0001:000c5530       ?visitCells@?$OverlapTraceSegment@UCapsuleTraceSegmentReport@@@HeightFieldUtil@Gu@physx@@QAE_NABUOverlapLine@1234@@Z 100c6530 f i GuSweepsHF.obj
 0001:000c5610       ?visitCells@?$OverlapTraceSegment@UCapsuleTraceSegmentReport@@@HeightFieldUtil@Gu@physx@@QAE_NABUOverlapRectangle@1234@@Z 100c6610 f i GuSweepsHF.obj
 0001:000c57d0       ?visitCells@?$OverlapTraceSegment@VConvexVsHeightfieldSweep@@@HeightFieldUtil@Gu@physx@@QAE_NABUOverlapLine@1234@@Z 100c67d0 f i GuSweepsHF.obj
 0001:000c58b0       ?visitCells@?$OverlapTraceSegment@VConvexVsHeightfieldSweep@@@HeightFieldUtil@Gu@physx@@QAE_NABUOverlapRectangle@1234@@Z 100c68b0 f i GuSweepsHF.obj
 0001:000c5a70       ?pcmContactBoxBox@Gu@physx@@YA_NABVGeometryUnion@12@0ABVPxTransform@2@1ABMAAUCache@12@AAVContactBuffer@12@@Z 100c6a70 f   GuPCMContactBoxBox.obj
 0001:000c92f0       ?pcmContactBoxConvex@Gu@physx@@YA_NABVGeometryUnion@12@0ABVPxTransform@2@1ABMAAUCache@12@AAVContactBuffer@12@@Z 100ca2f0 f   GuPCMContactBoxConvex.obj
 0001:000ce710       ??1SupportLocal@Gu@physx@@UAE@XZ 100cf710 f i GuPCMContactBoxConvex.obj
 0001:000ce720       ??_G?$SupportLocalImpl@VBoxV@Gu@physx@@@Gu@physx@@UAEPAXI@Z 100cf720 f i GuPCMContactBoxConvex.obj
 0001:000ce720       ??_E?$SupportLocalImpl@VBoxV@Gu@physx@@@Gu@physx@@UAEPAXI@Z 100cf720 f i GuPCMContactBoxConvex.obj
 0001:000ce750       ??_E?$SupportLocalImpl@VConvexHullNoScaleV@Gu@physx@@@Gu@physx@@UAEPAXI@Z 100cf750 f i GuPCMContactBoxConvex.obj
 0001:000ce750       ??_G?$SupportLocalImpl@VConvexHullNoScaleV@Gu@physx@@@Gu@physx@@UAEPAXI@Z 100cf750 f i GuPCMContactBoxConvex.obj
 0001:000ce780       ??_E?$SupportLocalImpl@VConvexHullV@Gu@physx@@@Gu@physx@@UAEPAXI@Z 100cf780 f i GuPCMContactBoxConvex.obj
 0001:000ce780       ??_G?$SupportLocalImpl@VConvexHullV@Gu@physx@@@Gu@physx@@UAEPAXI@Z 100cf780 f i GuPCMContactBoxConvex.obj
 0001:000ce7b0       ??_GSupportLocal@Gu@physx@@UAEPAXI@Z 100cf7b0 f i GuPCMContactBoxConvex.obj
 0001:000ce7b0       ??_ESupportLocal@Gu@physx@@UAEPAXI@Z 100cf7b0 f i GuPCMContactBoxConvex.obj
 0001:000ce7e0       ?doSupport@?$SupportLocalImpl@VBoxV@Gu@physx@@@Gu@physx@@UBE?AT__m128@@ABT4@@Z 100cf7e0 f i GuPCMContactBoxConvex.obj
 0001:000ce820       ?doSupport@?$SupportLocalImpl@VBoxV@Gu@physx@@@Gu@physx@@UBEXABT__m128@@AAT4@1@Z 100cf820 f i GuPCMContactBoxConvex.obj
 0001:000ce880       ?doSupport@?$SupportLocalImpl@VConvexHullNoScaleV@Gu@physx@@@Gu@physx@@UBE?AT__m128@@ABT4@@Z 100cf880 f i GuPCMContactBoxConvex.obj
 0001:000ceba0       ?doSupport@?$SupportLocalImpl@VConvexHullNoScaleV@Gu@physx@@@Gu@physx@@UBEXABT__m128@@AAT4@1@Z 100cfba0 f i GuPCMContactBoxConvex.obj
 0001:000cf1a0       ?doSupport@?$SupportLocalImpl@VConvexHullV@Gu@physx@@@Gu@physx@@UBE?AT__m128@@ABT4@@Z 100d01a0 f i GuPCMContactBoxConvex.obj
 0001:000cf540       ?doSupport@?$SupportLocalImpl@VConvexHullV@Gu@physx@@@Gu@physx@@UBEXABT__m128@@AAT4@1@Z 100d0540 f i GuPCMContactBoxConvex.obj
 0001:000cfeb0       ?populateVerts@?$SupportLocalImpl@VBoxV@Gu@physx@@@Gu@physx@@UBEXPBEIPBVPxVec3@3@PAT__m128@@@Z 100d0eb0 f i GuPCMContactBoxConvex.obj
 0001:000cff00       ?populateVerts@?$SupportLocalImpl@VConvexHullNoScaleV@Gu@physx@@@Gu@physx@@UBEXPBEIPBVPxVec3@3@PAT__m128@@@Z 100d0f00 f i GuPCMContactBoxConvex.obj
 0001:000cff50       ?populateVerts@?$SupportLocalImpl@VConvexHullV@Gu@physx@@@Gu@physx@@UBEXPBEIPBVPxVec3@3@PAT__m128@@@Z 100d0f50 f i GuPCMContactBoxConvex.obj
 0001:000cffd0       ?pcmContactCapsuleBox@Gu@physx@@YA_NABVGeometryUnion@12@0ABVPxTransform@2@1ABMAAUCache@12@AAVContactBuffer@12@@Z 100d0fd0 f   GuPCMContactCapsuleBox.obj
 0001:000d0ef0       ?pcmContactCapsuleConvex@Gu@physx@@YA_NABVGeometryUnion@12@0ABVPxTransform@2@1ABMAAUCache@12@AAVContactBuffer@12@@Z 100d1ef0 f   GuPCMContactCapsuleConvex.obj
 0001:000d57c0       ?pcmContactCapsuleHeightField@Gu@physx@@YA_NABVGeometryUnion@12@0ABVPxTransform@2@1ABMAAUCache@12@AAVContactBuffer@12@@Z 100d67c0 f   GuPCMContactCapsuleHeightField.obj
 0001:000d6650       ??$processTriangleCache@$0BA@VPCMCapsuleVsMeshContactGeneration@Gu@physx@@@PCMMeshContactGeneration@Gu@physx@@QAE_NAAU?$TriangleCache@$0BA@@12@@Z 100d7650 f i GuPCMContactCapsuleHeightField.obj
 0001:000d66c0       ??0PCMContactPatch@Gu@physx@@QAE@XZ 100d76c0 f i GuPCMContactCapsuleHeightField.obj
 0001:000d66f0       ??0PCMMeshContactGeneration@Gu@physx@@QAE@ABT__m128@@0ABVPsTransformV@aos@shdfnd@2@1AAVMultiplePersistentContactManifold@12@AAVContactBuffer@12@@Z 100d76f0 f i GuPCMContactCapsuleHeightField.obj
 0001:000d6ab0       ??_E?$PCMHeightfieldContactGenerationCallback@UPCMCapsuleVsHeightfieldContactGenerationCallback@physx@@@Gu@physx@@UAEPAXI@Z 100d7ab0 f i GuPCMContactCapsuleHeightField.obj
 0001:000d6ab0       ??_G?$PCMHeightfieldContactGenerationCallback@UPCMCapsuleVsHeightfieldContactGenerationCallback@physx@@@Gu@physx@@UAEPAXI@Z 100d7ab0 f i GuPCMContactCapsuleHeightField.obj
 0001:000d6ae0       ??_EPCMCapsuleVsHeightfieldContactGenerationCallback@physx@@UAEPAXI@Z 100d7ae0 f i GuPCMContactCapsuleHeightField.obj
 0001:000d6ae0       ??_GPCMCapsuleVsHeightfieldContactGenerationCallback@physx@@UAEPAXI@Z 100d7ae0 f i GuPCMContactCapsuleHeightField.obj
 0001:000d6b10       ?onEvent@?$PCMHeightfieldContactGenerationCallback@UPCMCapsuleVsHeightfieldContactGenerationCallback@physx@@@Gu@physx@@UAE_NIPAI@Z 100d7b10 f i GuPCMContactCapsuleHeightField.obj
 0001:000d6ed0       ?pcmContactCapsuleMesh@Gu@physx@@YA_NABVGeometryUnion@12@0ABVPxTransform@2@1ABMAAUCache@12@AAVContactBuffer@12@@Z 100d7ed0 f   GuPCMContactCapsuleMesh.obj
 0001:000d80e0       ??_G?$PCMMeshContactGenerationCallback@UPCMCapsuleVsMeshContactGenerationCallback@physx@@@Gu@physx@@UAEPAXI@Z 100d90e0 f i GuPCMContactCapsuleMesh.obj
 0001:000d80e0       ??_E?$PCMMeshContactGenerationCallback@UPCMCapsuleVsMeshContactGenerationCallback@physx@@@Gu@physx@@UAEPAXI@Z 100d90e0 f i GuPCMContactCapsuleMesh.obj
 0001:000d8110       ??_EPCMCapsuleVsMeshContactGenerationCallback@physx@@UAEPAXI@Z 100d9110 f i GuPCMContactCapsuleMesh.obj
 0001:000d8110       ??_GPCMCapsuleVsMeshContactGenerationCallback@physx@@UAEPAXI@Z 100d9110 f i GuPCMContactCapsuleMesh.obj
 0001:000d8140       ?addTriangle@?$TriangleCache@$0BA@@Gu@physx@@QAEXPBVPxVec3@3@PBIIE@Z 100d9140 f i GuPCMContactCapsuleMesh.obj
 0001:000d81e0       ?processHit@?$PCMMeshContactGenerationCallback@UPCMCapsuleVsMeshContactGenerationCallback@physx@@@Gu@physx@@UAE_NABUPxRaycastHit@3@ABVPxVec3@3@11AAMPBI@Z 100d91e0 f i GuPCMContactCapsuleMesh.obj
 0001:000d8470       ?generateLastContacts@PCMConvexVsMeshContactGeneration@Gu@physx@@QAEXXZ 100d9470 f   GuPCMContactConvexCommon.obj
 0001:000d8690       ?addContactsToPatch@PCMConvexVsMeshContactGeneration@Gu@physx@@QAEXABT__m128@@II@Z 100d9690 f   GuPCMContactConvexCommon.obj
 0001:000d8d70       ?processTriangle@PCMConvexVsMeshContactGeneration@Gu@physx@@QAE_NPBVPxVec3@3@IEPBI@Z 100d9d70 f   GuPCMContactConvexCommon.obj
 0001:000d90f0       ?processTriangle@PCMConvexVsMeshContactGeneration@Gu@physx@@SA_NABUPolygonalData@23@PAVSupportLocal@23@PBVPxVec3@3@IEABT__m128@@_NABVPsTransformV@aos@shdfnd@3@ABVPsMatTransformV@9shdfnd@3@PAVMeshPersistentContact@23@AAI@Z 100da0f0 f   GuPCMContactConvexCommon.obj
 0001:000d9390       ?processTriangle@PCMSphereVsMeshContactGeneration@Gu@physx@@QAE_NPBVPxVec3@3@IEPBI@Z 100da390 f   GuPCMContactConvexCommon.obj
 0001:000d99c0       ?generateEEContacts@PCMCapsuleVsMeshContactGeneration@Gu@physx@@QAEXABT__m128@@000I000PAVMeshPersistentContact@23@AAI@Z 100da9c0 f   GuPCMContactConvexCommon.obj
 0001:000d9a40       ?generateEE@PCMCapsuleVsMeshContactGeneration@Gu@physx@@QAEXABT__m128@@000I00PAVMeshPersistentContact@23@AAI@Z 100daa40 f   GuPCMContactConvexCommon.obj
 0001:000d9c80       ?generateContacts@PCMCapsuleVsMeshContactGeneration@Gu@physx@@SA_NABT__m128@@0000I000PAVMeshPersistentContact@23@AAI@Z 100dac80 f   GuPCMContactConvexCommon.obj
 0001:000da0a0       ?generateEEContactsMTD@PCMCapsuleVsMeshContactGeneration@Gu@physx@@SAXABT__m128@@000I000PAVMeshPersistentContact@23@AAI@Z 100db0a0 f   GuPCMContactConvexCommon.obj
 0001:000da110       ?generateEEMTD@PCMCapsuleVsMeshContactGeneration@Gu@physx@@SAXABT__m128@@000I00PAVMeshPersistentContact@23@AAI@Z 100db110 f   GuPCMContactConvexCommon.obj
 0001:000da320       ?processTriangle@PCMCapsuleVsMeshContactGeneration@Gu@physx@@QAE_NPBVPxVec3@3@IEPBI@Z 100db320 f   GuPCMContactConvexCommon.obj
 0001:000dac40       ?processTriangle@PCMCapsuleVsMeshContactGeneration@Gu@physx@@SA_NABVTriangleV@23@IABVCapsuleV@23@ABT__m128@@EPAVMeshPersistentContact@23@AAI@Z 100dbc40 f   GuPCMContactConvexCommon.obj
 0001:000dae50       ?pcmDistanceSegmentTriangleSquared@Gu@physx@@YA?AT__m128@@ABT3@0000AAT3@11@Z 100dbe50 f   GuPCMContactConvexCommon.obj
 0001:000db730       ??_E?$SupportLocalImpl@VTriangleV@Gu@physx@@@Gu@physx@@UAEPAXI@Z 100dc730 f i GuPCMContactConvexCommon.obj
 0001:000db730       ??_G?$SupportLocalImpl@VTriangleV@Gu@physx@@@Gu@physx@@UAEPAXI@Z 100dc730 f i GuPCMContactConvexCommon.obj
 0001:000db760       ?doSupport@?$SupportLocalImpl@VTriangleV@Gu@physx@@@Gu@physx@@UBE?AT__m128@@ABT4@@Z 100dc760 f i GuPCMContactConvexCommon.obj
 0001:000db810       ?doSupport@?$SupportLocalImpl@VTriangleV@Gu@physx@@@Gu@physx@@UBEXABT__m128@@AAT4@1@Z 100dc810 f i GuPCMContactConvexCommon.obj
 0001:000db8a0       ?get@?$CacheMap@UCachedEdge@Gu@physx@@$0IA@@Gu@physx@@QBEPBUCachedEdge@23@ABU423@@Z 100dc8a0 f i GuPCMContactConvexCommon.obj
 0001:000dbec0       ?populateVerts@?$SupportLocalImpl@VTriangleV@Gu@physx@@@Gu@physx@@UBEXPBEIPBVPxVec3@3@PAT__m128@@@Z 100dcec0 f i GuPCMContactConvexCommon.obj
 0001:000dbfa0       ?pcmContactConvexConvex@Gu@physx@@YA_NABVGeometryUnion@12@0ABVPxTransform@2@1ABMAAUCache@12@AAVContactBuffer@12@@Z 100dcfa0 f   GuPCMContactConvexConvex.obj
 0001:000e7610       ?pcmContactBoxHeightField@Gu@physx@@YA_NABVGeometryUnion@12@0ABVPxTransform@2@1ABMAAUCache@12@AAVContactBuffer@12@@Z 100e8610 f   GuPCMContactConvexHeightField.obj
 0001:000e7810       ?pcmContactConvexHeightField@Gu@physx@@YA_NABVGeometryUnion@12@0ABVPxTransform@2@1ABMAAUCache@12@AAVContactBuffer@12@@Z 100e8810 f   GuPCMContactConvexHeightField.obj
 0001:000e7ef0       ?PCMContactConvexHeightfield@Gu@physx@@YA_NABUPolygonalData@12@PAVSupportLocal@12@ABT__m128@@ABVPxBounds3@2@ABVPxHeightFieldGeometry@2@ABVPxTransform@2@5MAAVContactBuffer@12@ABVFastVertex2ShapeScaling@Cm@2@_NAAVMultiplePersistentContactManifold@12@@Z 100e8ef0 f   GuPCMContactConvexHeightField.obj
 0001:000e89e0       ??$processTriangleCache@$0BA@VPCMConvexVsMeshContactGeneration@Gu@physx@@@PCMMeshContactGeneration@Gu@physx@@QAE_NAAU?$TriangleCache@$0BA@@12@@Z 100e99e0 f i GuPCMContactConvexHeightField.obj
 0001:000e8a50       ??0PCMConvexVsMeshContactGeneration@Gu@physx@@QAE@ABT__m128@@0ABVPsTransformV@aos@shdfnd@2@1AAVMultiplePersistentContactManifold@12@AAVContactBuffer@12@ABUPolygonalData@12@PAVSupportLocal@12@AAVContainer@12@ABVFastVertex2ShapeScaling@Cm@2@_N@Z 100e9a50 f i GuPCMContactConvexHeightField.obj
 0001:000e8b60       ??_G?$PCMHeightfieldContactGenerationCallback@UPCMConvexVsHeightfieldContactGenerationCallback@physx@@@Gu@physx@@UAEPAXI@Z 100e9b60 f i GuPCMContactConvexHeightField.obj
 0001:000e8b60       ??_E?$PCMHeightfieldContactGenerationCallback@UPCMConvexVsHeightfieldContactGenerationCallback@physx@@@Gu@physx@@UAEPAXI@Z 100e9b60 f i GuPCMContactConvexHeightField.obj
 0001:000e8b90       ??_G?$SupportLocalShrunkImpl@VBoxV@Gu@physx@@VShrunkBoxV@23@@Gu@physx@@UAEPAXI@Z 100e9b90 f i GuPCMContactConvexHeightField.obj
 0001:000e8b90       ??_E?$SupportLocalShrunkImpl@VBoxV@Gu@physx@@VShrunkBoxV@23@@Gu@physx@@UAEPAXI@Z 100e9b90 f i GuPCMContactConvexHeightField.obj
 0001:000e8bc0       ??_E?$SupportLocalShrunkImpl@VConvexHullNoScaleV@Gu@physx@@VShrunkConvexHullNoScaleV@23@@Gu@physx@@UAEPAXI@Z 100e9bc0 f i GuPCMContactConvexHeightField.obj
 0001:000e8bc0       ??_G?$SupportLocalShrunkImpl@VConvexHullNoScaleV@Gu@physx@@VShrunkConvexHullNoScaleV@23@@Gu@physx@@UAEPAXI@Z 100e9bc0 f i GuPCMContactConvexHeightField.obj
 0001:000e8bf0       ??_E?$SupportLocalShrunkImpl@VConvexHullV@Gu@physx@@VShrunkConvexHullV@23@@Gu@physx@@UAEPAXI@Z 100e9bf0 f i GuPCMContactConvexHeightField.obj
 0001:000e8bf0       ??_G?$SupportLocalShrunkImpl@VConvexHullV@Gu@physx@@VShrunkConvexHullV@23@@Gu@physx@@UAEPAXI@Z 100e9bf0 f i GuPCMContactConvexHeightField.obj
 0001:000e8c20       ??_EPCMConvexVsHeightfieldContactGenerationCallback@physx@@UAEPAXI@Z 100e9c20 f i GuPCMContactConvexHeightField.obj
 0001:000e8c20       ??_GPCMConvexVsHeightfieldContactGenerationCallback@physx@@UAEPAXI@Z 100e9c20 f i GuPCMContactConvexHeightField.obj
 0001:000e8c50       ?doSupport@?$SupportLocalShrunkImpl@VBoxV@Gu@physx@@VShrunkBoxV@23@@Gu@physx@@UBE?AT__m128@@ABT4@@Z 100e9c50 f i GuPCMContactConvexHeightField.obj
 0001:000e8c90       ?doSupport@?$SupportLocalShrunkImpl@VBoxV@Gu@physx@@VShrunkBoxV@23@@Gu@physx@@UBEXABT__m128@@AAT4@1@Z 100e9c90 f i GuPCMContactConvexHeightField.obj
 0001:000e8cf0       ?doSupport@?$SupportLocalShrunkImpl@VConvexHullNoScaleV@Gu@physx@@VShrunkConvexHullNoScaleV@23@@Gu@physx@@UBE?AT__m128@@ABT4@@Z 100e9cf0 f i GuPCMContactConvexHeightField.obj
 0001:000e9010       ?doSupport@?$SupportLocalShrunkImpl@VConvexHullNoScaleV@Gu@physx@@VShrunkConvexHullNoScaleV@23@@Gu@physx@@UBEXABT__m128@@AAT4@1@Z 100ea010 f i GuPCMContactConvexHeightField.obj
 0001:000e9610       ?doSupport@?$SupportLocalShrunkImpl@VConvexHullV@Gu@physx@@VShrunkConvexHullV@23@@Gu@physx@@UBE?AT__m128@@ABT4@@Z 100ea610 f i GuPCMContactConvexHeightField.obj
 0001:000e99b0       ?doSupport@?$SupportLocalShrunkImpl@VConvexHullV@Gu@physx@@VShrunkConvexHullV@23@@Gu@physx@@UBEXABT__m128@@AAT4@1@Z 100ea9b0 f i GuPCMContactConvexHeightField.obj
 0001:000ea090       ?onEvent@?$PCMHeightfieldContactGenerationCallback@UPCMConvexVsHeightfieldContactGenerationCallback@physx@@@Gu@physx@@UAE_NIPAI@Z 100eb090 f i GuPCMContactConvexHeightField.obj
 0001:000ea450       ?populateVerts@?$SupportLocalShrunkImpl@VBoxV@Gu@physx@@VShrunkBoxV@23@@Gu@physx@@UBEXPBEIPBVPxVec3@3@PAT__m128@@@Z 100eb450 f i GuPCMContactConvexHeightField.obj
 0001:000ea4a0       ?populateVerts@?$SupportLocalShrunkImpl@VConvexHullNoScaleV@Gu@physx@@VShrunkConvexHullNoScaleV@23@@Gu@physx@@UBEXPBEIPBVPxVec3@3@PAT__m128@@@Z 100eb4a0 f i GuPCMContactConvexHeightField.obj
 0001:000ea4f0       ?populateVerts@?$SupportLocalShrunkImpl@VConvexHullV@Gu@physx@@VShrunkConvexHullV@23@@Gu@physx@@UBEXPBEIPBVPxVec3@3@PAT__m128@@@Z 100eb4f0 f i GuPCMContactConvexHeightField.obj
 0001:000ea570       ?pcmContactBoxMesh@Gu@physx@@YA_NABVGeometryUnion@12@0ABVPxTransform@2@1ABMAAUCache@12@AAVContactBuffer@12@@Z 100eb570 f   GuPCMContactConvexMesh.obj
 0001:000ea7d0       ?pcmContactConvexMesh@Gu@physx@@YA_NABVGeometryUnion@12@0ABVPxTransform@2@1ABMAAUCache@12@AAVContactBuffer@12@@Z 100eb7d0 f   GuPCMContactConvexMesh.obj
 0001:000eaf10       ?PCMContactConvexMesh@Gu@physx@@YA_NABUPolygonalData@12@PAVSupportLocal@12@ABT__m128@@ABVPxBounds3@2@ABUPxTriangleMeshGeometryLL@2@ABVPxTransform@2@5MAAVContactBuffer@12@ABVFastVertex2ShapeScaling@Cm@2@7_N8AAVMultiplePersistentContactManifold@12@@Z 100ebf10 f   GuPCMContactConvexMesh.obj
 0001:000eba70       ??_G?$PCMMeshContactGenerationCallback@UPCMConvexVsMeshContactGenerationCallback@physx@@@Gu@physx@@UAEPAXI@Z 100eca70 f i GuPCMContactConvexMesh.obj
 0001:000eba70       ??_E?$PCMMeshContactGenerationCallback@UPCMConvexVsMeshContactGenerationCallback@physx@@@Gu@physx@@UAEPAXI@Z 100eca70 f i GuPCMContactConvexMesh.obj
 0001:000ebaa0       ??_EPCMConvexVsMeshContactGenerationCallback@physx@@UAEPAXI@Z 100ecaa0 f i GuPCMContactConvexMesh.obj
 0001:000ebaa0       ??_GPCMConvexVsMeshContactGenerationCallback@physx@@UAEPAXI@Z 100ecaa0 f i GuPCMContactConvexMesh.obj
 0001:000ebad0       ?processHit@?$PCMMeshContactGenerationCallback@UPCMConvexVsMeshContactGenerationCallback@physx@@@Gu@physx@@UAE_NABUPxRaycastHit@3@ABVPxVec3@3@11AAMPBI@Z 100ecad0 f i GuPCMContactConvexMesh.obj
 0001:000ebd70       ?generateFullContactManifold@Gu@physx@@YA_NAAUPolygonalData@12@0PAVSupportLocal@12@1PAVPersistentContact@12@AAIABT__m128@@4_N@Z 100ecd70 f   GuPCMContactGenBoxConvex.obj
 0001:000ed460       ?computeMTD@Gu@physx@@YA_NAAUPolygonalData@12@0PAVSupportLocal@12@1AAT__m128@@2@Z 100ee460 f   GuPCMContactGenBoxConvex.obj
 0001:000edb90       ?buildPartialHull@Gu@physx@@YAXABUPolygonalData@12@PAVSupportLocal@12@AAVSeparatingAxes@12@ABT__m128@@3@Z 100eeb90 f   GuPCMContactGenBoxConvex.obj
 0001:000ede30       ?generatedContacts@Gu@physx@@YAXAAUPolygonalData@12@0ABUHullPolygonData@12@1PAVSupportLocal@12@2ABVPsMatTransformV@aos@shdfnd@2@PAVPersistentContact@12@AAIABT__m128@@@Z 100eee30 f   GuPCMContactGenBoxConvex.obj
 0001:000ef420       ?generateFullContactManifold@Gu@physx@@YA_NABVCapsuleV@12@AAUPolygonalData@12@PAVSupportLocal@12@ABVPsMatTransformV@aos@shdfnd@2@PAVPersistentContact@12@AAIABT__m128@@AAT__m128@@_N@Z 100f0420 f   GuPCMContactGenSphereCapsule.obj
 0001:000ef740       ?generateCapsuleBoxFullContactManifold@Gu@physx@@YA_NABVCapsuleV@12@AAUPolygonalData@12@PAVSupportLocal@12@ABVPsMatTransformV@aos@shdfnd@2@PAVPersistentContact@12@AAIABT__m128@@AAT__m128@@_N@Z 100f0740 f   GuPCMContactGenSphereCapsule.obj
 0001:000efa50       ?computeMTD@Gu@physx@@YA_NABVCapsuleV@12@AAUPolygonalData@12@PAVSupportLocal@12@AAT__m128@@3@Z 100f0a50 f   GuPCMContactGenSphereCapsule.obj
 0001:000efb40       ?generateSphereFullContactManifold@Gu@physx@@YA_NABVCapsuleV@12@AAUPolygonalData@12@PAVSupportLocal@12@PAVPersistentContact@12@AAIABT__m128@@AAT7@_N@Z 100f0b40 f   GuPCMContactGenSphereCapsule.obj
 0001:000eff50       ?generatedCapsuleBoxFaceContacts@Gu@physx@@YAXABVCapsuleV@12@AAUPolygonalData@12@ABUHullPolygonData@12@PAVSupportLocal@12@ABVPsMatTransformV@aos@shdfnd@2@PAVPersistentContact@12@AAIABT__m128@@7@Z 100f0f50 f   GuPCMContactGenSphereCapsule.obj
 0001:000f0630       ?generatedContactsEEContacts@Gu@physx@@YAXABVCapsuleV@12@AAUPolygonalData@12@ABUHullPolygonData@12@PAVSupportLocal@12@ABVPsMatTransformV@aos@shdfnd@2@PAVPersistentContact@12@AAIABT__m128@@7@Z 100f1630 f   GuPCMContactGenSphereCapsule.obj
 0001:000f11d0       ?pcmContactPlaneBox@Gu@physx@@YA_NABVGeometryUnion@12@0ABVPxTransform@2@1ABMAAUCache@12@AAVContactBuffer@12@@Z 100f21d0 f   GuPCMContactPlaneBox.obj
 0001:000f1ec0       ?pcmContactPlaneCapsule@Gu@physx@@YA_NABVGeometryUnion@12@0ABVPxTransform@2@1ABMAAUCache@12@AAVContactBuffer@12@@Z 100f2ec0 f   GuPCMContactPlaneCapsule.obj
 0001:000f2760       ?pcmContactPlaneConvex@Gu@physx@@YA_NABVGeometryUnion@12@0ABVPxTransform@2@1ABMAAUCache@12@AAVContactBuffer@12@@Z 100f3760 f   GuPCMContactPlaneConvex.obj
 0001:000f32a0       ?pcmContactSphereConvex@Gu@physx@@YA_NABVGeometryUnion@12@0ABVPxTransform@2@1ABMAAUCache@12@AAVContactBuffer@12@@Z 100f42a0 f   GuPCMContactSphereConvex.obj
 0001:000f7830       ??0?$EPASupportMapPairLocalImpl@VCapsuleV@Gu@physx@@VConvexHullNoScaleV@23@@Gu@physx@@QAE@ABVCapsuleV@12@ABVConvexHullNoScaleV@12@@Z 100f8830 f i GuPCMContactSphereConvex.obj
 0001:000f7850       ??_E?$EPASupportMapPairLocalImpl@VCapsuleV@Gu@physx@@VConvexHullNoScaleV@23@@Gu@physx@@UAEPAXI@Z 100f8850 f i GuPCMContactSphereConvex.obj
 0001:000f7850       ??_G?$EPASupportMapPairLocalImpl@VCapsuleV@Gu@physx@@VConvexHullNoScaleV@23@@Gu@physx@@UAEPAXI@Z 100f8850 f i GuPCMContactSphereConvex.obj
 0001:000f78d0       ?doSupport@?$EPASupportMapPairLocalImpl@VCapsuleV@Gu@physx@@VConvexHullNoScaleV@23@@Gu@physx@@UBEXABT__m128@@AAT4@11@Z 100f88d0 f i GuPCMContactSphereConvex.obj
 0001:000f7c70       ?doWarmStartSupport@?$EPASupportMapPairLocalImpl@VCapsuleV@Gu@physx@@VConvexHullNoScaleV@23@@Gu@physx@@UBEXHHAAT__m128@@00@Z 100f8c70 f i GuPCMContactSphereConvex.obj
 0001:000f7e80       ?getDir@?$EPASupportMapPairLocalImpl@VCapsuleV@Gu@physx@@VConvexHullNoScaleV@23@@Gu@physx@@UBE?AT__m128@@XZ 100f8e80 f i GuPCMContactSphereConvex.obj
 0001:000f7ea0       ?pcmContactSphereHeightField@Gu@physx@@YA_NABVGeometryUnion@12@0ABVPxTransform@2@1ABMAAUCache@12@AAVContactBuffer@12@@Z 100f8ea0 f   GuPCMContactSphereHeightField.obj
 0001:000f88e0       ??$processTriangleCache@$0BA@VPCMSphereVsMeshContactGeneration@Gu@physx@@@PCMMeshContactGeneration@Gu@physx@@QAE_NAAU?$TriangleCache@$0BA@@12@@Z 100f98e0 f i GuPCMContactSphereHeightField.obj
 0001:000f8950       ??_E?$PCMHeightfieldContactGenerationCallback@UPCMSphereVsHeightfieldContactGenerationCallback@physx@@@Gu@physx@@UAEPAXI@Z 100f9950 f i GuPCMContactSphereHeightField.obj
 0001:000f8950       ??_G?$PCMHeightfieldContactGenerationCallback@UPCMSphereVsHeightfieldContactGenerationCallback@physx@@@Gu@physx@@UAEPAXI@Z 100f9950 f i GuPCMContactSphereHeightField.obj
 0001:000f8980       ??_EPCMSphereVsHeightfieldContactGenerationCallback@physx@@UAEPAXI@Z 100f9980 f i GuPCMContactSphereHeightField.obj
 0001:000f8980       ??_GPCMSphereVsHeightfieldContactGenerationCallback@physx@@UAEPAXI@Z 100f9980 f i GuPCMContactSphereHeightField.obj
 0001:000f89b0       ?onEvent@?$PCMHeightfieldContactGenerationCallback@UPCMSphereVsHeightfieldContactGenerationCallback@physx@@@Gu@physx@@UAE_NIPAI@Z 100f99b0 f i GuPCMContactSphereHeightField.obj
 0001:000f8d70       ?pcmContactSphereMesh@Gu@physx@@YA_NABVGeometryUnion@12@0ABVPxTransform@2@1ABMAAUCache@12@AAVContactBuffer@12@@Z 100f9d70 f   GuPCMContactSphereMesh.obj
 0001:000f9bb0       ??_E?$PCMMeshContactGenerationCallback@UPCMSphereVsMeshContactGenerationCallback@physx@@@Gu@physx@@UAEPAXI@Z 100fabb0 f i GuPCMContactSphereMesh.obj
 0001:000f9bb0       ??_G?$PCMMeshContactGenerationCallback@UPCMSphereVsMeshContactGenerationCallback@physx@@@Gu@physx@@UAEPAXI@Z 100fabb0 f i GuPCMContactSphereMesh.obj
 0001:000f9be0       ??_GPCMSphereVsMeshContactGenerationCallback@physx@@UAEPAXI@Z 100fabe0 f i GuPCMContactSphereMesh.obj
 0001:000f9be0       ??_EPCMSphereVsMeshContactGenerationCallback@physx@@UAEPAXI@Z 100fabe0 f i GuPCMContactSphereMesh.obj
 0001:000f9c10       ?processHit@?$PCMMeshContactGenerationCallback@UPCMSphereVsMeshContactGenerationCallback@physx@@@Gu@physx@@UAE_NABUPxRaycastHit@3@ABVPxVec3@3@11AAMPBI@Z 100fac10 f i GuPCMContactSphereMesh.obj
 0001:000f9ea0       ??0PCMPolygonalBox@Gu@physx@@QAE@ABVPxVec3@2@@Z 100faea0 f   GuPCMShapeConvex.obj
 0001:000fa0b0       ?getPolygonalData@PCMPolygonalBox@Gu@physx@@QBEXPIAUPolygonalData@23@@Z 100fb0b0 f   GuPCMShapeConvex.obj
 0001:000fa120       ?getPCMConvexData@Gu@physx@@YAXABVConvexHullV@12@_NAAUPolygonalData@12@@Z 100fb120 f   GuPCMShapeConvex.obj
 0001:000fa170       ?getPCMConvexData@Gu@physx@@YA_NABVGeometryUnion@12@AAVFastVertex2ShapeScaling@Cm@2@AAVPxBounds3@2@AAUPolygonalData@12@@Z 100fb170 f   GuPCMShapeConvex.obj
 0001:000fa5e0       ?generateTriangleFullContactManifold@PCMConvexVsMeshContactGeneration@Gu@physx@@QAE_NAAVTriangleV@23@IPBIEABUPolygonalData@23@PAV?$SupportLocalImpl@VTriangleV@Gu@physx@@@23@PAVSupportLocal@23@PAVMeshPersistentContact@23@AAIABT__m128@@AAT9@@Z 100fb5e0 f   GuPCMTriangleContactGen.obj
 0001:000fae40       ?generatePolyDataContactManifold@PCMConvexVsMeshContactGeneration@Gu@physx@@QAE_NAAVTriangleV@23@IIEPAVMeshPersistentContact@23@AAIABT__m128@@AAT6@@Z 100fbe40 f   GuPCMTriangleContactGen.obj
 0001:000faf40       ?generateTriangleFullContactManifold@PCMConvexVsMeshContactGeneration@Gu@physx@@SA_NAAVTriangleV@23@IEABUPolygonalData@23@PAV?$SupportLocalImpl@VTriangleV@Gu@physx@@@23@PAVSupportLocal@23@PAVMeshPersistentContact@23@AAIABT__m128@@AAT9@@Z 100fbf40 f   GuPCMTriangleContactGen.obj
 0001:000fd700       ?findRotationMatrixFromZAxis@Gu@physx@@YA?AUMat33V@aos@shdfnd@2@ABT__m128@@@Z 100fe700 f   GuPersistentContactManifold.obj
 0001:000fd970       ?replaceManifoldPoint@PersistentContactManifold@Gu@physx@@QAE_NABT__m128@@000@Z 100fe970 f   GuPersistentContactManifold.obj
 0001:000fda00       ?addManifoldPoint@PersistentContactManifold@Gu@physx@@QAEIABT__m128@@000@Z 100fea00 f   GuPersistentContactManifold.obj
 0001:000fda90       ?addManifoldPoint2@PersistentContactManifold@Gu@physx@@QAEIABT__m128@@000@Z 100fea90 f   GuPersistentContactManifold.obj
 0001:000fdb30       ?addBatchManifoldContactsCluster@PersistentContactManifold@Gu@physx@@QAEXPBVPersistentContact@23@I@Z 100feb30 f   GuPersistentContactManifold.obj
 0001:000fdba0       ?addBatchManifoldContacts2@PersistentContactManifold@Gu@physx@@QAEXPBVPersistentContact@23@I@Z 100feba0 f   GuPersistentContactManifold.obj
 0001:000fdc10       ?addBatchManifoldContacts@PersistentContactManifold@Gu@physx@@QAEXPBVPersistentContact@23@I@Z 100fec10 f   GuPersistentContactManifold.obj
 0001:000fdc80       ?reduceBatchContactsCluster@PersistentContactManifold@Gu@physx@@QAEXPBVPersistentContact@23@I@Z 100fec80 f   GuPersistentContactManifold.obj
 0001:000fe0d0       ?reduceBatchContacts2@PersistentContactManifold@Gu@physx@@QAEXPBVPersistentContact@23@I@Z 100ff0d0 f   GuPersistentContactManifold.obj
 0001:000fe2b0       ?reduceBatchContacts@PersistentContactManifold@Gu@physx@@QAEXPBVPersistentContact@23@I@Z 100ff2b0 f   GuPersistentContactManifold.obj
 0001:000fe560       ?reduceContactsForPCM@PersistentContactManifold@Gu@physx@@QAEIABT__m128@@00@Z 100ff560 f   GuPersistentContactManifold.obj
 0001:000fe920       ?reduceContactSegment@PersistentContactManifold@Gu@physx@@QAEIABT__m128@@00@Z 100ff920 f   GuPersistentContactManifold.obj
 0001:000fe9c0       ?addManifoldContactsToContactBuffer@PersistentContactManifold@Gu@physx@@QAEXAAVContactBuffer@23@ABT__m128@@ABVPsMatTransformV@aos@shdfnd@3@@Z 100ff9c0 f   GuPersistentContactManifold.obj
 0001:000fea90       ?addManifoldContactsToContactBuffer@PersistentContactManifold@Gu@physx@@QAEXAAVContactBuffer@23@ABT__m128@@ABVPsTransformV@aos@shdfnd@3@@Z 100ffa90 f   GuPersistentContactManifold.obj
 0001:000febc0       ?addManifoldContactsToContactBuffer@PersistentContactManifold@Gu@physx@@QAEXAAVContactBuffer@23@ABT__m128@@ABVPsTransformV@aos@shdfnd@3@1@Z 100ffbc0 f   GuPersistentContactManifold.obj
 0001:000fed10       ?drawManifold@PersistentContactManifold@Gu@physx@@QAEXAAVRenderOutput@Cm@3@ABVPsTransformV@aos@shdfnd@3@1@Z 100ffd10 f   GuPersistentContactManifold.obj
 0001:000fed90       ?drawManifold@PersistentContactManifold@Gu@physx@@QAEXAAVRenderOutput@Cm@3@ABVPsTransformV@aos@shdfnd@3@1ABT__m128@@@Z 100ffd90 f   GuPersistentContactManifold.obj
 0001:000fee10       ?drawManifold@PersistentContactManifold@Gu@physx@@QAEXABVPersistentContact@23@AAVRenderOutput@Cm@3@ABVPsTransformV@aos@shdfnd@3@2@Z 100ffe10 f   GuPersistentContactManifold.obj
 0001:000fee40       ?drawPoint@PersistentContactManifold@Gu@physx@@SAXAAVRenderOutput@Cm@3@ABT__m128@@MI@Z 100ffe40 f   GuPersistentContactManifold.obj
 0001:000fefd0       ?drawLine@PersistentContactManifold@Gu@physx@@SAXAAVRenderOutput@Cm@3@ABT__m128@@1I@Z 100fffd0 f   GuPersistentContactManifold.obj
 0001:000ff090       ?drawTriangle@PersistentContactManifold@Gu@physx@@SAXAAVRenderOutput@Cm@3@ABT__m128@@11I@Z 10100090 f   GuPersistentContactManifold.obj
 0001:000ff180       ?drawPolygon@PersistentContactManifold@Gu@physx@@SAXAAVRenderOutput@Cm@3@ABVPsTransformV@aos@shdfnd@3@PAT__m128@@II@Z 10100180 f   GuPersistentContactManifold.obj
 0001:000ff390       ?drawPolygon@PersistentContactManifold@Gu@physx@@SAXAAVRenderOutput@Cm@3@ABVPsMatTransformV@aos@shdfnd@3@PAT__m128@@II@Z 10100390 f   GuPersistentContactManifold.obj
 0001:000ff4e0       ?reduceBatchContactsConvex@SinglePersistentContactManifold@Gu@physx@@QAE?AT__m128@@PBVMeshPersistentContact@23@IAAUPCMContactPatch@23@@Z 101004e0 f   GuPersistentContactManifold.obj
 0001:000ffa50       ?reduceBatchContactsSphere@SinglePersistentContactManifold@Gu@physx@@QAE?AT__m128@@PBVMeshPersistentContact@23@IAAUPCMContactPatch@23@@Z 10100a50 f   GuPersistentContactManifold.obj
 0001:000ffaf0       ?reduceBatchContactsCapsule@SinglePersistentContactManifold@Gu@physx@@QAE?AT__m128@@PBVMeshPersistentContact@23@IAAUPCMContactPatch@23@@Z 10100af0 f   GuPersistentContactManifold.obj
 0001:000ffd30       ?addBatchManifoldContactsConvex@SinglePersistentContactManifold@Gu@physx@@QAE?AT__m128@@PBVMeshPersistentContact@23@IAAUPCMContactPatch@23@ABT4@@Z 10100d30 f   GuPersistentContactManifold.obj
 0001:000ffe00       ?addBatchManifoldContactsSphere@SinglePersistentContactManifold@Gu@physx@@QAE?AT__m128@@PBVMeshPersistentContact@23@IAAUPCMContactPatch@23@ABT4@@Z 10100e00 f   GuPersistentContactManifold.obj
 0001:000ffe50       ?addBatchManifoldContactsCapsule@SinglePersistentContactManifold@Gu@physx@@QAE?AT__m128@@PBVMeshPersistentContact@23@IAAUPCMContactPatch@23@ABT4@@Z 10100e50 f   GuPersistentContactManifold.obj
 0001:000fff20       ?reduceContacts@SinglePersistentContactManifold@Gu@physx@@SAIPAVMeshPersistentContact@23@I@Z 10100f20 f   GuPersistentContactManifold.obj
 0001:00100260       ?refreshContactPoints@SinglePersistentContactManifold@Gu@physx@@QAE?AT__m128@@ABVPsMatTransformV@aos@shdfnd@3@ABT4@1@Z 10101260 f   GuPersistentContactManifold.obj
 0001:00100390       ?drawManifold@SinglePersistentContactManifold@Gu@physx@@QAEXAAVRenderOutput@Cm@3@ABVPsTransformV@aos@shdfnd@3@1@Z 10101390 f   GuPersistentContactManifold.obj
 0001:00100410       ?addManifoldContactPoints@MultiplePersistentContactManifold@Gu@physx@@QAEXPAVMeshPersistentContact@23@IPAPAUPCMContactPatch@23@IABT__m128@@2E@Z 10101410 f   GuPersistentContactManifold.obj
 0001:00100890       ?addManifoldContactsToContactBuffer@MultiplePersistentContactManifold@Gu@physx@@QAE_NAAVContactBuffer@23@ABVPsTransformV@aos@shdfnd@3@@Z 10101890 f   GuPersistentContactManifold.obj
 0001:00100b20       ?addManifoldContactsToContactBuffer@MultiplePersistentContactManifold@Gu@physx@@QAE_NAAVContactBuffer@23@ABVPsTransformV@aos@shdfnd@3@1ABT__m128@@@Z 10101b20 f   GuPersistentContactManifold.obj
 0001:00100dc0       ?drawManifold@MultiplePersistentContactManifold@Gu@physx@@QAEXAAVRenderOutput@Cm@3@ABVPsTransformV@aos@shdfnd@3@1@Z 10101dc0 f   GuPersistentContactManifold.obj
 0001:00100e70       ?drawLine@MultiplePersistentContactManifold@Gu@physx@@SAXAAVRenderOutput@Cm@3@ABT__m128@@1I@Z 10101e70 f   GuPersistentContactManifold.obj
 0001:00100f30       ?drawLine@MultiplePersistentContactManifold@Gu@physx@@SAXAAVRenderOutput@Cm@3@VPxVec3@3@1I@Z 10101f30 f   GuPersistentContactManifold.obj
 0001:00100fc0       ?drawPoint@MultiplePersistentContactManifold@Gu@physx@@SAXAAVRenderOutput@Cm@3@ABT__m128@@MI@Z 10101fc0 f   GuPersistentContactManifold.obj
 0001:00101150       ?drawPolygon@MultiplePersistentContactManifold@Gu@physx@@SAXAAVRenderOutput@Cm@3@ABVPsTransformV@aos@shdfnd@3@PAT__m128@@II@Z 10102150 f   GuPersistentContactManifold.obj
 0001:00101360       ??0MeshPersistentContact@Gu@physx@@QAE@XZ 10102360 f i GuPersistentContactManifold.obj
 0001:00101370       ??0PersistentContact@Gu@physx@@QAE@XZ 10102370 f i GuPersistentContactManifold.obj
 0001:001024a0       ?computeOBBPoints@Gu@physx@@YAXPIAVPxVec3@2@ABV32@1111@Z 101034a0 f   GuBox.obj
 0001:00102770       ?create@Box@Gu@physx@@QAEXABVCapsule@23@@Z 10103770 f   GuBox.obj
 0001:001029d0       ?getBoxEdges@Gu@physx@@YAPBEXZ 101039d0 f   GuBox.obj
 0001:001029e0       ?CompleteBoxPruning@Gu@physx@@YA_NPBVPxBounds3@2@IAAV?$Array@IV?$ReflectionAllocator@I@shdfnd@physx@@@shdfnd@2@ABVAxes@12@@Z 101039e0 f   GuBoxPruning.obj
 0001:00102c40       ?BipartiteBoxPruning@Gu@physx@@YA_NPBVPxBounds3@2@I0IAAV?$Array@IV?$ReflectionAllocator@I@shdfnd@physx@@@shdfnd@2@ABVAxes@12@@Z 10103c40 f   GuBoxPruning.obj
 0001:00103120       ?GetNbHits@RadixSort@Gu@physx@@QBEIXZ 10104120 f i GuBoxPruning.obj
 0001:00103130       ?GetNbTotalCalls@RadixSort@Gu@physx@@QBEIXZ 10104130 f i GuBoxPruning.obj
 0001:00103140       ?GetRanks@RadixSort@Gu@physx@@QBEPBIXZ 10104140 f i GuBoxPruning.obj
 0001:00103150       ?GetRecyclable@RadixSort@Gu@physx@@QBEPAIXZ 10104150 f i GuBoxPruning.obj
 0001:00103160       ?allocate@?$Array@IV?$ReflectionAllocator@I@shdfnd@physx@@@shdfnd@physx@@IAEPAII@Z 10104160 f i GuBoxPruning.obj
 0001:001031d0       ?growAndPushBack@?$Array@IV?$ReflectionAllocator@I@shdfnd@physx@@@shdfnd@physx@@IAEAAIABI@Z 101041d0 f i GuBoxPruning.obj
 0001:00103260       ?computeBoxAroundCapsule@Gu@physx@@YAXABVCapsule@12@AAVBox@12@@Z 10104260 f   GuCapsule.obj
 0001:001033d0       ?computeBasis@shdfnd@physx@@YAXABVPxVec3@2@0AAV32@11@Z 101043d0 f i GuCapsule.obj
 0001:00103560       ?sweepCCTBoxTriangles@Gu@physx@@YA_NIPBVPxTriangle@2@_NABVPxBoxGeometry@2@ABVPxTransform@2@ABVPxVec3@2@MAAV62@5AAMAAIPBIMV?$PxFlags@W4Enum@PxHitFlag@physx@@G@2@@Z 10104560 f   GuCCTSweepTests.obj
 0001:001037b0       ?sweepCCTCapsule_BoxGeom@@YA_NABVPxGeometry@physx@@ABVPxTransform@2@ABVCapsule@Gu@2@ABVPxVec3@2@MAAUPxSweepHit@2@V?$PxFlags@W4Enum@PxHitFlag@physx@@G@2@M@Z 101047b0 f   GuCCTSweepTests.obj
 0001:00103ed0       ?sweepCCTBox_SphereGeom@@YA_NABVPxGeometry@physx@@ABVPxTransform@2@ABVBox@Gu@2@ABVPxVec3@2@MAAUPxSweepHit@2@V?$PxFlags@W4Enum@PxHitFlag@physx@@G@2@M@Z 10104ed0 f   GuCCTSweepTests.obj
 0001:00104140       ?sweepCCTBox_CapsuleGeom@@YA_NABVPxGeometry@physx@@ABVPxTransform@2@ABVBox@Gu@2@ABVPxVec3@2@MAAUPxSweepHit@2@V?$PxFlags@W4Enum@PxHitFlag@physx@@G@2@M@Z 10105140 f   GuCCTSweepTests.obj
 0001:001044e0       ?sweepCCTBox_BoxGeom@@YA_NABVPxGeometry@physx@@ABVPxTransform@2@ABVBox@Gu@2@ABVPxVec3@2@MAAUPxSweepHit@2@V?$PxFlags@W4Enum@PxHitFlag@physx@@G@2@M@Z 101054e0 f   GuCCTSweepTests.obj
 0001:00104750       ?sweepCCTBox_HeightFieldGeom@@YA_NABVPxGeometry@physx@@ABVPxTransform@2@ABVBox@Gu@2@ABVPxVec3@2@MAAUPxSweepHit@2@V?$PxFlags@W4Enum@PxHitFlag@physx@@G@2@M@Z 10105750 f   GuCCTSweepTests.obj
 0001:00104ae0       ??0Capsule@Gu@physx@@QAE@ABV012@@Z 10105ae0 f i GuCCTSweepTests.obj
 0001:00104b20       ??_GLocalReport@?1??sweepCCTBox_HeightFieldGeom@@YA_NABVPxGeometry@physx@@ABVPxTransform@3@ABVBox@Gu@3@ABVPxVec3@3@MAAUPxSweepHit@3@V?$PxFlags@W4Enum@PxHitFlag@physx@@G@3@M@Z@UAEPAXI@Z 10105b20 f i GuCCTSweepTests.obj
 0001:00104b20       ??_ELocalReport@?1??sweepCCTBox_HeightFieldGeom@@YA_NABVPxGeometry@physx@@ABVPxTransform@3@ABVBox@Gu@3@ABVPxVec3@3@MAAUPxSweepHit@3@V?$PxFlags@W4Enum@PxHitFlag@physx@@G@3@M@Z@UAEPAXI@Z 10105b20 f i GuCCTSweepTests.obj
 0001:001058e0       ??0Container@Gu@physx@@QAE@XZ 101068e0 f   GuContainer.obj
 0001:00105900       ??0Container@Gu@physx@@QAE@ABV012@@Z 10106900 f   GuContainer.obj
 0001:00105950       ??0Container@Gu@physx@@QAE@IM@Z 10106950 f   GuContainer.obj
 0001:00105990       ??1Container@Gu@physx@@QAE@XZ 10106990 f   GuContainer.obj
 0001:001059a0       ?Contains@Container@Gu@physx@@QBE_NIPAI@Z 101069a0 f   GuContainer.obj
 0001:001059e0       ?Delete@Container@Gu@physx@@QAE_NI@Z 101069e0 f   GuContainer.obj
 0001:00105a30       ?DeleteKeepingOrder@Container@Gu@physx@@QAE_NI@Z 10106a30 f   GuContainer.obj
 0001:00105a80       ??4Container@Gu@physx@@QAEXABV012@@Z 10106a80 f   GuContainer.obj
 0001:00105ac0       ?InitSharedBuffers@Container@Gu@physx@@QAEXIPAI_N@Z 10106ac0 f   GuContainerMemoryMgmt.obj
 0001:00105b30       ?Empty@Container@Gu@physx@@QAEAAV123@XZ 10106b30 f   GuContainerMemoryMgmt.obj
 0001:00105b70       ?SetSize@Container@Gu@physx@@QAE_NI@Z 10106b70 f   GuContainerMemoryMgmt.obj
 0001:00105c30       ?Refit@Container@Gu@physx@@QAE_NXZ 10106c30 f   GuContainerMemoryMgmt.obj
 0001:00105cb0       ?Resize@Container@Gu@physx@@AAE_NI@Z 10106cb0 f   GuContainerMemoryMgmt.obj
 0001:00105dd0       ??$?_UI@@YAPAXIV?$ReflectionAllocator@I@shdfnd@physx@@PBDH@Z 10106dd0 f i GuContainerMemoryMgmt.obj
 0001:00105e30       ?convertToPxMat44@Debug@Gu@physx@@SA?AVPxMat44@3@ABVMatrix34@Cm@3@@Z 10106e30 f   GuDebug.obj
 0001:00105ed0       ?convertToPxMat44@Debug@Gu@physx@@SA?AVPxMat44@3@ABVPxTransform@3@@Z 10106ed0 f   GuDebug.obj
 0001:00106060       ?visualize@Debug@Gu@physx@@SAXABVPxBoxGeometry@3@AAVRenderOutput@Cm@3@ABVMatrix34@63@ABVPxBounds3@3@_KMI@Z 10107060 f   GuDebug.obj
 0001:001061f0       ?visualize@Debug@Gu@physx@@SAXABVPxSphereGeometry@3@AAVRenderOutput@Cm@3@ABVMatrix34@63@ABVPxBounds3@3@_KMI@Z 101071f0 f   GuDebug.obj
 0001:00106430       ?visualize@Debug@Gu@physx@@SAXABVPxPlaneGeometry@3@AAVRenderOutput@Cm@3@ABVMatrix34@63@ABVPxBounds3@3@_KMI@Z 10107430 f   GuDebug.obj
 0001:001065c0       ?visualize@Debug@Gu@physx@@SAXABVPxCapsuleGeometry@3@AAVRenderOutput@Cm@3@ABVMatrix34@63@ABVPxBounds3@3@_KMI@Z 101075c0 f   GuDebug.obj
 0001:00106680       ?visualize@Debug@Gu@physx@@SAXABVPxConvexMeshGeometry@3@AAVRenderOutput@Cm@3@ABVMatrix34@63@ABVPxBounds3@3@_KMI@Z 10107680 f   GuDebug.obj
 0001:001066b0       ?visualize@Debug@Gu@physx@@SAXABVPxTriangleMeshGeometry@3@AAVRenderOutput@Cm@3@ABVMatrix34@63@ABVPxBounds3@3@_KMI@Z 101076b0 f   GuDebug.obj
 0001:001066f0       ?visualize@Debug@Gu@physx@@SAXABVPxHeightFieldGeometry@3@AAVRenderOutput@Cm@3@ABVMatrix34@63@ABVPxBounds3@3@_KMI@Z 101076f0 f   GuDebug.obj
 0001:00106e00       ?sweep@PxGeometryQuery@physx@@SA_NABVPxVec3@2@MABVPxGeometry@2@ABVPxTransform@2@12AAUPxSweepHit@2@V?$PxFlags@W4Enum@PxHitFlag@physx@@G@2@M@Z 10107e00 f   GuGeometryQuery.obj
 0001:00107250       ?overlap@PxGeometryQuery@physx@@SA_NABVPxGeometry@2@ABVPxTransform@2@01@Z 10108250 f   GuGeometryQuery.obj
 0001:001072c0       ?raycast@PxGeometryQuery@physx@@SAIABVPxVec3@2@0ABVPxGeometry@2@ABVPxTransform@2@MV?$PxFlags@W4Enum@PxHitFlag@physx@@G@2@IPIAUPxRaycastHit@2@_N@Z 101082c0 f   GuGeometryQuery.obj
 0001:00107330       ?computePenetration@PxGeometryQuery@physx@@SA_NAAVPxVec3@2@AAMABVPxGeometry@2@ABVPxTransform@2@23@Z 10108330 f   GuGeometryQuery.obj
 0001:00107410       ?pointDistance@PxGeometryQuery@physx@@SAMABVPxVec3@2@ABVPxGeometry@2@ABVPxTransform@2@PAV32@@Z 10108410 f   GuGeometryQuery.obj
 0001:00107aa0       ?getWorldBounds@PxGeometryQuery@physx@@SA?AVPxBounds3@2@ABVPxGeometry@2@ABVPxTransform@2@M@Z 10108aa0 f   GuGeometryQuery.obj
 0001:00107be0       ?set@GeometryUnion@Gu@physx@@QAEXABVPxGeometry@3@@Z 10108be0 f   GuGeometryUnion.obj
 0001:00107ce0       ??4PxConvexMeshGeometry@physx@@QAEAAV01@ABV01@@Z 10108ce0 f i GuGeometryUnion.obj
 0001:00107d20       ??4PxHeightFieldGeometry@physx@@QAEAAV01@ABV01@@Z 10108d20 f i GuGeometryUnion.obj
 0001:00107d60       ??4PxTriangleMeshGeometry@physx@@QAEAAV01@ABV01@@Z 10108d60 f i GuGeometryUnion.obj
 0001:00107dc0       ?computeBoxPoints@Gu@physx@@YAXABVPxBounds3@2@PIAVPxVec3@2@@Z 10108dc0 f   GuGeomUtilsInternal.obj
 0001:00107e60       ?computeBoundsAroundVertices@Gu@physx@@YAXAAVPxBounds3@2@IPIBVPxVec3@2@@Z 10108e60 f   GuGeomUtilsInternal.obj
 0001:00107f30       ?getPlane@Gu@physx@@YA?AVPxPlane@2@ABVPxTransform@2@@Z 10108f30 f   GuGeomUtilsInternal.obj
 0001:00107fe0       ?getCapsuleTransform@Gu@physx@@YA?AVPxTransform@2@ABVCapsule@12@AAM@Z 10108fe0 f   GuGeomUtilsInternal.obj
 0001:00108230       ?computeSweptBox@Gu@physx@@YAXAAVBox@12@ABVPxVec3@2@1ABVPxMat33@2@1M@Z 10109230 f   GuGeomUtilsInternal.obj
 0001:001086f0       ??1GuMeshFactory@physx@@MAE@XZ 101096f0 f   GuMeshFactory.obj
 0001:00108780       ?release@GuMeshFactory@physx@@QAEXXZ 10109780 f   GuMeshFactory.obj
 0001:001087e0       ?addTriangleMesh@GuMeshFactory@physx@@QAEXPAVTriangleMesh@Gu@2@_N@Z 101097e0 f   GuMeshFactory.obj
 0001:00108840       ?createTriangleMesh@GuMeshFactory@physx@@QAEPAVPxTriangleMesh@2@AAVPxInputStream@2@@Z 10109840 f   GuMeshFactory.obj
 0001:00108920       ?removeTriangleMesh@GuMeshFactory@physx@@QAE_NAAVPxTriangleMesh@2@@Z 10109920 f   GuMeshFactory.obj
 0001:00108960       ?getNbTriangleMeshes@GuMeshFactory@physx@@QBEIXZ 10109960 f   GuMeshFactory.obj
 0001:00108980       ?getTriangleMeshes@GuMeshFactory@physx@@QBEIPAPAVPxTriangleMesh@2@II@Z 10109980 f   GuMeshFactory.obj
 0001:001089e0       ?addConvexMesh@GuMeshFactory@physx@@QAEXPAVConvexMesh@Gu@2@_N@Z 101099e0 f   GuMeshFactory.obj
 0001:00108a40       ?createConvexMesh@GuMeshFactory@physx@@QAEPAVPxConvexMesh@2@AAVPxInputStream@2@@Z 10109a40 f   GuMeshFactory.obj
 0001:00108b20       ?removeConvexMesh@GuMeshFactory@physx@@QAE_NAAVPxConvexMesh@2@@Z 10109b20 f   GuMeshFactory.obj
 0001:00108b60       ?getNbConvexMeshes@GuMeshFactory@physx@@QBEIXZ 10109b60 f   GuMeshFactory.obj
 0001:00108b80       ?getConvexMeshes@GuMeshFactory@physx@@QBEIPAPAVPxConvexMesh@2@II@Z 10109b80 f   GuMeshFactory.obj
 0001:00108be0       ?addHeightField@GuMeshFactory@physx@@QAEXPAVHeightField@Gu@2@_N@Z 10109be0 f   GuMeshFactory.obj
 0001:00108c40       ?createHeightField@GuMeshFactory@physx@@QAEPAVPxHeightField@2@ABVPxHeightFieldDesc@2@@Z 10109c40 f   GuMeshFactory.obj
 0001:00108d20       ?createHeightField@GuMeshFactory@physx@@QAEPAVPxHeightField@2@AAVPxInputStream@2@@Z 10109d20 f   GuMeshFactory.obj
 0001:00108e00       ?removeHeightField@GuMeshFactory@physx@@QAE_NAAVPxHeightField@2@@Z 10109e00 f   GuMeshFactory.obj
 0001:00108e40       ?getNbHeightFields@GuMeshFactory@physx@@QBEIXZ 10109e40 f   GuMeshFactory.obj
 0001:00108e60       ?getHeightFields@GuMeshFactory@physx@@QBEIPAPAVPxHeightField@2@II@Z 10109e60 f   GuMeshFactory.obj
 0001:00108ec0       ?addFactoryListener@GuMeshFactory@physx@@QAEXAAVGuMeshFactoryListener@2@@Z 10109ec0 f   GuMeshFactory.obj
 0001:00108f20       ?removeFactoryListener@GuMeshFactory@physx@@QAEXAAVGuMeshFactoryListener@2@@Z 10109f20 f   GuMeshFactory.obj
 0001:00108f80       ?notifyFactoryListener@GuMeshFactory@physx@@QAEXPBVPxBase@2@G_N@Z 10109f80 f   GuMeshFactory.obj
 0001:00108fd0       ?allocate@?$Array@PAVGuMeshFactoryListener@physx@@V?$ReflectionAllocator@PAVGuMeshFactoryListener@physx@@@shdfnd@2@@shdfnd@physx@@IAEPAPAVGuMeshFactoryListener@3@I@Z 10109fd0 f i GuMeshFactory.obj
 0001:00109040       ?create@?$HashBase@PAVConvexMesh@Gu@physx@@PAV123@U?$Hash@PAVConvexMesh@Gu@physx@@@shdfnd@3@UGetKey@?$HashSetBase@PAVConvexMesh@Gu@physx@@U?$Hash@PAVConvexMesh@Gu@physx@@@shdfnd@3@VAllocator@53@$00@internal@53@VAllocator@53@$00@internal@shdfnd@physx@@QAEPAPAVConvexMesh@Gu@4@ABQAV564@AA_N@Z 1010a040 f i GuMeshFactory.obj
 0001:00109170       ?create@?$HashBase@PAVHeightField@Gu@physx@@PAV123@U?$Hash@PAVHeightField@Gu@physx@@@shdfnd@3@UGetKey@?$HashSetBase@PAVHeightField@Gu@physx@@U?$Hash@PAVHeightField@Gu@physx@@@shdfnd@3@VAllocator@53@$00@internal@53@VAllocator@53@$00@internal@shdfnd@physx@@QAEPAPAVHeightField@Gu@4@ABQAV564@AA_N@Z 1010a170 f i GuMeshFactory.obj
 0001:001092a0       ?create@?$HashBase@PAVTriangleMesh@Gu@physx@@PAV123@U?$Hash@PAVTriangleMesh@Gu@physx@@@shdfnd@3@UGetKey@?$HashSetBase@PAVTriangleMesh@Gu@physx@@U?$Hash@PAVTriangleMesh@Gu@physx@@@shdfnd@3@VAllocator@53@$00@internal@53@VAllocator@53@$00@internal@shdfnd@physx@@QAEPAPAVTriangleMesh@Gu@4@ABQAV564@AA_N@Z 1010a2a0 f i GuMeshFactory.obj
 0001:001093d0       ?erase@?$HashBase@PAVConvexMesh@Gu@physx@@PAV123@U?$Hash@PAVConvexMesh@Gu@physx@@@shdfnd@3@UGetKey@?$HashSetBase@PAVConvexMesh@Gu@physx@@U?$Hash@PAVConvexMesh@Gu@physx@@@shdfnd@3@VAllocator@53@$00@internal@53@VAllocator@53@$00@internal@shdfnd@physx@@QAE_NABQAVConvexMesh@Gu@4@@Z 1010a3d0 f i GuMeshFactory.obj
 0001:00109480       ?erase@?$HashBase@PAVHeightField@Gu@physx@@PAV123@U?$Hash@PAVHeightField@Gu@physx@@@shdfnd@3@UGetKey@?$HashSetBase@PAVHeightField@Gu@physx@@U?$Hash@PAVHeightField@Gu@physx@@@shdfnd@3@VAllocator@53@$00@internal@53@VAllocator@53@$00@internal@shdfnd@physx@@QAE_NABQAVHeightField@Gu@4@@Z 1010a480 f i GuMeshFactory.obj
 0001:00109530       ?erase@?$HashBase@PAVTriangleMesh@Gu@physx@@PAV123@U?$Hash@PAVTriangleMesh@Gu@physx@@@shdfnd@3@UGetKey@?$HashSetBase@PAVTriangleMesh@Gu@physx@@U?$Hash@PAVTriangleMesh@Gu@physx@@@shdfnd@3@VAllocator@53@$00@internal@53@VAllocator@53@$00@internal@shdfnd@physx@@QAE_NABQAVTriangleMesh@Gu@4@@Z 1010a530 f i GuMeshFactory.obj
 0001:001095e0       ?growAndPushBack@?$Array@PAVGuMeshFactoryListener@physx@@V?$ReflectionAllocator@PAVGuMeshFactoryListener@physx@@@shdfnd@2@@shdfnd@physx@@IAEAAPAVGuMeshFactoryListener@3@ABQAV43@@Z 1010a5e0 f i GuMeshFactory.obj
 0001:00109670       ?replaceWithLast@?$HashBase@PAVConvexMesh@Gu@physx@@PAV123@U?$Hash@PAVConvexMesh@Gu@physx@@@shdfnd@3@UGetKey@?$HashSetBase@PAVConvexMesh@Gu@physx@@U?$Hash@PAVConvexMesh@Gu@physx@@@shdfnd@3@VAllocator@53@$00@internal@53@VAllocator@53@$00@internal@shdfnd@physx@@AAEXI@Z 1010a670 f i GuMeshFactory.obj
 0001:00109700       ?replaceWithLast@?$HashBase@PAVHeightField@Gu@physx@@PAV123@U?$Hash@PAVHeightField@Gu@physx@@@shdfnd@3@UGetKey@?$HashSetBase@PAVHeightField@Gu@physx@@U?$Hash@PAVHeightField@Gu@physx@@@shdfnd@3@VAllocator@53@$00@internal@53@VAllocator@53@$00@internal@shdfnd@physx@@AAEXI@Z 1010a700 f i GuMeshFactory.obj
 0001:00109790       ?replaceWithLast@?$HashBase@PAVTriangleMesh@Gu@physx@@PAV123@U?$Hash@PAVTriangleMesh@Gu@physx@@@shdfnd@3@UGetKey@?$HashSetBase@PAVTriangleMesh@Gu@physx@@U?$Hash@PAVTriangleMesh@Gu@physx@@@shdfnd@3@VAllocator@53@$00@internal@53@VAllocator@53@$00@internal@shdfnd@physx@@AAEXI@Z 1010a790 f i GuMeshFactory.obj
 0001:00109830       ?getBinaryMetaData@HeightField@Gu@physx@@SAXAAVPxOutputStream@3@@Z 1010a830 f   GuMetaData.obj
 0001:00109b40       ?getBinaryMetaData@BigConvexData@physx@@SAXAAVPxOutputStream@2@@Z 1010ab40 f   GuMetaData.obj
 0001:00109d80       ?getBinaryMetaData@ConvexMesh@Gu@physx@@SAXAAVPxOutputStream@3@@Z 1010ad80 f   GuMetaData.obj
 0001:0010a2c0       ?getBinaryMetaData@MeshInterface@Gu@physx@@SAXAAVPxOutputStream@3@@Z 1010b2c0 f   GuMetaData.obj
 0001:0010a470       ?getBinaryMetaData@RTree@Gu@physx@@SAXAAVPxOutputStream@3@@Z 1010b470 f   GuMetaData.obj
 0001:0010a840       ?getBinaryMetaData@RTreeMidphase@Gu@physx@@SAXAAVPxOutputStream@3@@Z 1010b840 f   GuMetaData.obj
 0001:0010a970       ?getBinaryMetaData@InternalTriangleMesh@physx@@SAXAAVPxOutputStream@2@@Z 1010b970 f   GuMetaData.obj
 0001:0010acd0       ?getBinaryMetaData@TriangleMesh@Gu@physx@@SAXAAVPxOutputStream@3@@Z 1010bcd0 f   GuMetaData.obj
 0001:0010ae40       ?getBinaryMetaData@MaterialIndicesStruct@physx@@SAXAAVPxOutputStream@2@@Z 1010be40 f   GuMetaData.obj
 0001:0010afb0       ?getBinaryMetaData@GeometryUnion@Gu@physx@@SAXAAVPxOutputStream@3@@Z 1010bfb0 f   GuMetaData.obj
 0001:0010d4a0       ?computeMTD_SphereSphere@Gu@physx@@YA_NAAVPxVec3@2@AAMABVSphere@12@2@Z 1010e4a0 f   GuMTD.obj
 0001:0010d580       ?computeMTD_SphereCapsule@Gu@physx@@YA_NAAVPxVec3@2@AAMABVSphere@12@ABVCapsule@12@@Z 1010e580 f   GuMTD.obj
 0001:0010d6c0       ?computeMTD_SphereBox@Gu@physx@@YA_NAAVPxVec3@2@AAMABVSphere@12@ABVBox@12@@Z 1010e6c0 f   GuMTD.obj
 0001:0010dc10       ?computeMTD_CapsuleCapsule@Gu@physx@@YA_NAAVPxVec3@2@AAMABVCapsule@12@2@Z 1010ec10 f   GuMTD.obj
 0001:0010ddb0       ?computeMTD_CapsuleBox@Gu@physx@@YA_NAAVPxVec3@2@AAMABVCapsule@12@ABVBox@12@@Z 1010edb0 f   GuMTD.obj
 0001:0010dfe0       ?computeMTD_BoxBox@Gu@physx@@YA_NAAVPxVec3@2@AAMABVBox@12@2@Z 1010efe0 f   GuMTD.obj
 0001:0010ee60       ?computeMTD_SphereConvex@Gu@physx@@YA_NAAVPxVec3@2@AAMABVSphere@12@ABVPxConvexMeshGeometry@2@ABVPxTransform@2@@Z 1010fe60 f   GuMTD.obj
 0001:0010f1f0       ?computeMTD_BoxConvex@Gu@physx@@YA_NAAVPxVec3@2@AAMABVBox@12@ABVPxConvexMeshGeometry@2@ABVPxTransform@2@@Z 101101f0 f   GuMTD.obj
 0001:0010f920       ?computeMTD_CapsuleConvex@Gu@physx@@YA_NAAVPxVec3@2@AAMABVCapsule@12@ABVPxTransform@2@ABVPxConvexMeshGeometry@2@3@Z 10110920 f   GuMTD.obj
 0001:00110340       ?computeMTD_ConvexConvex@Gu@physx@@YA_NAAVPxVec3@2@AAMABVPxConvexMeshGeometry@2@ABVPxTransform@2@23@Z 10111340 f   GuMTD.obj
 0001:00110ec0       ?computeMTD_SpherePlane@Gu@physx@@YA_NAAVPxVec3@2@AAMABVSphere@12@ABVPxPlane@2@@Z 10111ec0 f   GuMTD.obj
 0001:00110f40       ?computeMTD_PlaneBox@Gu@physx@@YA_NAAVPxVec3@2@AAMABVPxPlane@2@ABVBox@12@@Z 10111f40 f   GuMTD.obj
 0001:00111120       ?computeMTD_PlaneCapsule@Gu@physx@@YA_NAAVPxVec3@2@AAMABVPxPlane@2@ABVCapsule@12@@Z 10112120 f   GuMTD.obj
 0001:001111e0       ?computeMTD_PlaneConvex@Gu@physx@@YA_NAAVPxVec3@2@AAMABVPxPlane@2@ABVPxConvexMeshGeometry@2@ABVPxTransform@2@@Z 101121e0 f   GuMTD.obj
 0001:001114f0       ?computeMTD_SphereMesh@Gu@physx@@YA_NAAVPxVec3@2@AAMABVSphere@12@ABVPxTriangleMeshGeometry@2@ABVPxTransform@2@@Z 101124f0 f   GuMTD.obj
 0001:00111610       ?computeMTD_BoxMesh@Gu@physx@@YA_NAAVPxVec3@2@AAMABVBox@12@ABVPxTriangleMeshGeometry@2@ABVPxTransform@2@@Z 10112610 f   GuMTD.obj
 0001:00111760       ?computeMTD_CapsuleMesh@Gu@physx@@YA_NAAVPxVec3@2@AAMABVCapsule@12@ABVPxTriangleMeshGeometry@2@ABVPxTransform@2@@Z 10112760 f   GuMTD.obj
 0001:00111870       ?computeMTD_ConvexMesh@Gu@physx@@YA_NAAVPxVec3@2@AAMABVPxConvexMeshGeometry@2@ABVPxTransform@2@ABVPxTriangleMeshGeometry@2@3@Z 10112870 f   GuMTD.obj
 0001:00111940       ?computeMTD_SphereHeightField@Gu@physx@@YA_NAAVPxVec3@2@AAMABVSphere@12@ABVPxHeightFieldGeometry@2@ABVPxTransform@2@@Z 10112940 f   GuMTD.obj
 0001:00111a60       ?computeMTD_CapsuleHeightField@Gu@physx@@YA_NAAVPxVec3@2@AAMABVCapsule@12@ABVPxHeightFieldGeometry@2@ABVPxTransform@2@@Z 10112a60 f   GuMTD.obj
 0001:00111b70       ?computeMTD_BoxHeightField@Gu@physx@@YA_NAAVPxVec3@2@AAMABVBox@12@ABVPxHeightFieldGeometry@2@ABVPxTransform@2@@Z 10112b70 f   GuMTD.obj
 0001:00111cc0       ?computeMTD_ConvexHeightField@Gu@physx@@YA_NAAVPxVec3@2@AAMABVPxConvexMeshGeometry@2@ABVPxTransform@2@ABVPxHeightFieldGeometry@2@3@Z 10112cc0 f   GuMTD.obj
 0001:00111d90       ?pointConvexDistance@@YA_NAAVPxVec3@physx@@0AAMABV12@PBVConvexMesh@Gu@2@ABVPxMeshScale@2@ABVPxTransform@2@@Z 10112d90 f   GuMTD.obj
 0001:001141e0       ??0ContactPoint@Gu@physx@@QAE@XZ 101151e0 f i GuMTD.obj
 0001:00114b90       ?computeBounds@GeometryUnion@Gu@physx@@QBEXAAVPxBounds3@3@ABVPxTransform@3@MPIBV43@@Z 10115b90 f   GuObjectBounds.obj
 0001:001150f0       ?computeBoundsWithCCDThreshold@GeometryUnion@Gu@physx@@QBEMAAVPxVec3@3@0ABVPxTransform@3@PIBVPxBounds3@3@@Z 101160f0 f   GuObjectBounds.obj
 0001:00115640       ??0PxBounds3@physx@@QAE@ABV01@@Z 10116640 f i GuObjectBounds.obj
 0001:001162e0       ?intersectPlaneBox@Gu@physx@@YA_NABVPxPlane@2@ABVBox@12@@Z 101172e0 f   GuOverlapTests.obj
 0001:00116370       ?intersectPlaneCapsule@Gu@physx@@YA_NABVCapsule@12@ABVPxPlane@2@@Z 10117370 f   GuOverlapTests.obj
 0001:001163f0       ?intersectSphereSphere@Gu@physx@@YA_NABVSphere@12@0@Z 101173f0 f   GuOverlapTests.obj
 0001:00116450       ?intersectSphereCapsule@Gu@physx@@YA_NABVSphere@12@ABVCapsule@12@@Z 10117450 f   GuOverlapTests.obj
 0001:00116490       ?intersectSphereBox@Gu@physx@@YA_NABVSphere@12@ABVBox@12@@Z 10117490 f   GuOverlapTests.obj
 0001:00116670       ?intersectBoxCapsule@Gu@physx@@YA_NABVBox@12@ABVCapsule@12@@Z 10117670 f   GuOverlapTests.obj
 0001:001166c0       ?intersectSphereConvex@Gu@physx@@YA_NABVSphere@12@ABVConvexMesh@12@ABVPxMeshScale@2@ABVPxTransform@2@PAVPxVec3@2@@Z 101176c0 f   GuOverlapTests.obj
 0001:001170d0       ?intersectCapsuleConvex@Gu@physx@@YA_NABVPxCapsuleGeometry@2@ABVPxTransform@2@ABVConvexMesh@12@ABVPxMeshScale@2@1PAVPxVec3@2@@Z 101180d0 f   GuOverlapTests.obj
 0001:00117b00       ?intersectBoxConvex@Gu@physx@@YA_NABVPxBoxGeometry@2@ABVPxTransform@2@ABVConvexMesh@12@ABVPxMeshScale@2@1PAVPxVec3@2@@Z 10118b00 f   GuOverlapTests.obj
 0001:00118560       ?checkOverlapSphere_boxGeom@Gu@physx@@YA_NABVPxGeometry@2@ABVPxTransform@2@ABVSphere@12@@Z 10119560 f   GuOverlapTests.obj
 0001:001186f0       ?checkOverlapSphere_sphereGeom@Gu@physx@@YA_NABVPxGeometry@2@ABVPxTransform@2@ABVSphere@12@@Z 101196f0 f   GuOverlapTests.obj
 0001:00118750       ?checkOverlapSphere_capsuleGeom@Gu@physx@@YA_NABVPxGeometry@2@ABVPxTransform@2@ABVSphere@12@@Z 10119750 f   GuOverlapTests.obj
 0001:00118870       ?checkOverlapSphere_planeGeom@Gu@physx@@YA_NABVPxGeometry@2@ABVPxTransform@2@ABVSphere@12@@Z 10119870 f   GuOverlapTests.obj
 0001:001188d0       ?checkOverlapSphere_convexGeom@Gu@physx@@YA_NABVPxGeometry@2@ABVPxTransform@2@ABVSphere@12@@Z 101198d0 f   GuOverlapTests.obj
 0001:00118ad0       ?checkOverlapOBB_boxGeom@Gu@physx@@YA_NABVPxGeometry@2@ABVPxTransform@2@ABVBox@12@@Z 10119ad0 f   GuOverlapTests.obj
 0001:00118c20       ?checkOverlapOBB_sphereGeom@Gu@physx@@YA_NABVPxGeometry@2@ABVPxTransform@2@ABVBox@12@@Z 10119c20 f   GuOverlapTests.obj
 0001:00118c70       ?checkOverlapOBB_capsuleGeom@Gu@physx@@YA_NABVPxGeometry@2@ABVPxTransform@2@ABVBox@12@@Z 10119c70 f   GuOverlapTests.obj
 0001:00118d90       ?checkOverlapOBB_planeGeom@Gu@physx@@YA_NABVPxGeometry@2@ABVPxTransform@2@ABVBox@12@@Z 10119d90 f   GuOverlapTests.obj
 0001:00118dc0       ?checkOverlapOBB_convexGeom@Gu@physx@@YA_NABVPxGeometry@2@ABVPxTransform@2@ABVBox@12@@Z 10119dc0 f   GuOverlapTests.obj
 0001:00119020       ?checkOverlapCapsule_boxGeom@Gu@physx@@YA_NABVPxGeometry@2@ABVPxTransform@2@ABVCapsule@12@@Z 1011a020 f   GuOverlapTests.obj
 0001:001191e0       ?checkOverlapCapsule_sphereGeom@Gu@physx@@YA_NABVPxGeometry@2@ABVPxTransform@2@ABVCapsule@12@@Z 1011a1e0 f   GuOverlapTests.obj
 0001:00119250       ?checkOverlapCapsule_capsuleGeom@Gu@physx@@YA_NABVPxGeometry@2@ABVPxTransform@2@ABVCapsule@12@@Z 1011a250 f   GuOverlapTests.obj
 0001:001193c0       ?checkOverlapCapsule_planeGeom@Gu@physx@@YA_NABVPxGeometry@2@ABVPxTransform@2@ABVCapsule@12@@Z 1011a3c0 f   GuOverlapTests.obj
 0001:00119460       ?checkOverlapCapsule_convexGeom@Gu@physx@@YA_NABVPxGeometry@2@ABVPxTransform@2@ABVCapsule@12@@Z 1011a460 f   GuOverlapTests.obj
 0001:001196b0       ?GetGeomOverlapMethodTable@Gu@physx@@YAPAY06P6A_NABVPxGeometry@2@ABVPxTransform@2@01PAUTriggerCache@12@@ZXZ 1011a6b0 f   GuOverlapTests.obj
 0001:001196c0       ?registerHeightFields@Gu@physx@@YAXXZ 1011a6c0 f   GuOverlapTests.obj
 0001:0011c1d0       ?GetRaycastFuncTable@Gu@physx@@YAAAY06P6AIABVPxGeometry@2@ABVPxTransform@2@ABVPxVec3@2@2MV?$PxFlags@W4Enum@PxHitFlag@physx@@G@2@IPIAUPxRaycastHit@2@_NP6A_NAAU72@PAX@Z7@ZXZ 1011d1d0 f   GuRaycastTests.obj
 0001:0011c1e0       ?raycast_box@@YAIABVPxGeometry@physx@@ABVPxTransform@2@ABVPxVec3@2@2MV?$PxFlags@W4Enum@PxHitFlag@physx@@G@2@IPIAUPxRaycastHit@2@_NP6A_NAAU62@PAX@Z7@Z 1011d1e0 f   GuRaycastTests.obj
 0001:0011c7e0       ?raycast_sphere@@YAIABVPxGeometry@physx@@ABVPxTransform@2@ABVPxVec3@2@2MV?$PxFlags@W4Enum@PxHitFlag@physx@@G@2@IPIAUPxRaycastHit@2@_NP6A_NAAU62@PAX@Z7@Z 1011d7e0 f   GuRaycastTests.obj
 0001:0011c960       ?raycast_capsule@@YAIABVPxGeometry@physx@@ABVPxTransform@2@ABVPxVec3@2@2MV?$PxFlags@W4Enum@PxHitFlag@physx@@G@2@IPIAUPxRaycastHit@2@_NP6A_NAAU62@PAX@Z7@Z 1011d960 f   GuRaycastTests.obj
 0001:0011cc90       ?raycast_plane@@YAIABVPxGeometry@physx@@ABVPxTransform@2@ABVPxVec3@2@2MV?$PxFlags@W4Enum@PxHitFlag@physx@@G@2@IPIAUPxRaycastHit@2@_NP6A_NAAU62@PAX@Z7@Z 1011dc90 f   GuRaycastTests.obj
 0001:0011cde0       ?raycast_convexMesh@@YAIABVPxGeometry@physx@@ABVPxTransform@2@ABVPxVec3@2@2MV?$PxFlags@W4Enum@PxHitFlag@physx@@G@2@IPIAUPxRaycastHit@2@_NP6A_NAAU62@PAX@Z7@Z 1011dde0 f   GuRaycastTests.obj
 0001:0011d8d0       ?raycast_triangleMesh@@YAIABVPxGeometry@physx@@ABVPxTransform@2@ABVPxVec3@2@2MV?$PxFlags@W4Enum@PxHitFlag@physx@@G@2@IPIAUPxRaycastHit@2@_NP6A_NAAU62@PAX@Z7@Z 1011e8d0 f   GuRaycastTests.obj
 0001:0011e0b0       ?raycast_heightField@@YAIABVPxGeometry@physx@@ABVPxTransform@2@ABVPxVec3@2@2MV?$PxFlags@W4Enum@PxHitFlag@physx@@G@2@IPIAUPxRaycastHit@2@_NP6A_NAAU62@PAX@Z7@Z 1011f0b0 f   GuRaycastTests.obj
 0001:0011e920       ??$traceSegment@VRayCastCallback@Gu@physx@@$0A@$0A@$0A@@HeightFieldUtil@Gu@physx@@QBEXABVPxVec3@2@0PAVRayCastCallback@12@PBV32@@Z 1011f920 f i GuRaycastTests.obj
 0001:0011f450       ??Dphysx@@YA?AVMatrix34@Cm@0@ABVPxMeshScale@0@ABVPxTransform@0@@Z 10120450 f i GuRaycastTests.obj
 0001:0011fb00       ??_ERayMeshColliderCallback@@UAEPAXI@Z 10120b00 f i GuRaycastTests.obj
 0001:0011fb00       ??_GRayMeshColliderCallback@@UAEPAXI@Z 10120b00 f i GuRaycastTests.obj
 0001:0011fb30       ?processHit@RayMeshColliderCallback@@UAE_NABUPxRaycastHit@physx@@ABVPxVec3@3@11AAMPBI@Z 10120b30 f i GuRaycastTests.obj
 0001:00120160       ?transform@PxMeshScale@physx@@QBE?AVPxVec3@2@ABV32@@Z 10121160 f i GuRaycastTests.obj
 0001:00120390       ??0RadixSort@Gu@physx@@QAE@XZ 10121390 f   GuRevisitedRadix.obj
 0001:001203d0       ??1RadixSort@Gu@physx@@UAE@XZ 101213d0 f   GuRevisitedRadix.obj
 0001:001203e0       ?Sort@RadixSort@Gu@physx@@QAEAAV123@PBIIW4RadixHint@23@@Z 101213e0 f   GuRevisitedRadix.obj
 0001:00120950       ?Sort@RadixSort@Gu@physx@@QAEAAV123@PBMI@Z 10121950 f   GuRevisitedRadix.obj
 0001:00120fa0       ?SetBuffers@RadixSort@Gu@physx@@QAE_NPAI00PAPAI@Z 10121fa0 f   GuRevisitedRadix.obj
 0001:00120ff0       ??_ERadixSort@Gu@physx@@UAEPAXI@Z 10121ff0 f i GuRevisitedRadix.obj
 0001:00121060       ??_GRadixSort@Gu@physx@@UAEPAXI@Z 10122060 f i GuRevisitedRadix.obj
 0001:00121090       ??0RadixSortBuffered@Gu@physx@@QAE@XZ 10122090 f   GuRevisitedRadixBuffered.obj
 0001:001210b0       ??1RadixSortBuffered@Gu@physx@@UAE@XZ 101220b0 f   GuRevisitedRadixBuffered.obj
 0001:00121100       ?Sort@RadixSortBuffered@Gu@physx@@QAEAAV123@PBIIW4RadixHint@23@@Z 10122100 f   GuRevisitedRadixBuffered.obj
 0001:00121170       ?Sort@RadixSortBuffered@Gu@physx@@QAEAAV123@PBMI@Z 10122170 f   GuRevisitedRadixBuffered.obj
 0001:001211e0       ?Resize@RadixSortBuffered@Gu@physx@@AAE_NI@Z 101221e0 f   GuRevisitedRadixBuffered.obj
 0001:00121250       ??_ERadixSortBuffered@Gu@physx@@UAEPAXI@Z 10122250 f i GuRevisitedRadixBuffered.obj
 0001:00121330       ??_GRadixSortBuffered@Gu@physx@@UAEPAXI@Z 10122330 f i GuRevisitedRadixBuffered.obj
 0001:00121390       ?CheckResize@RadixSortBuffered@Gu@physx@@AAEXI@Z 10122390 f i GuRevisitedRadixBuffered.obj
 0001:001213c0       ?writeChunk@physx@@YAXCCCCAAVPxOutputStream@1@@Z 101223c0 f   GuSerialize.obj
 0001:00121400       ?readChunk@physx@@YAXAAC000AAVPxInputStream@1@@Z 10122400 f   GuSerialize.obj
 0001:00121440       ?readWord@physx@@YAG_NAAVPxInputStream@1@@Z 10122440 f   GuSerialize.obj
 0001:00121470       ?readDword@physx@@YAI_NAAVPxInputStream@1@@Z 10122470 f   GuSerialize.obj
 0001:001214b0       ?readFloat@physx@@YAM_NAAVPxInputStream@1@@Z 101224b0 f   GuSerialize.obj
 0001:001214f0       ?writeWord@physx@@YAXG_NAAVPxOutputStream@1@@Z 101224f0 f   GuSerialize.obj
 0001:00121520       ?writeDword@physx@@YAXI_NAAVPxOutputStream@1@@Z 10122520 f   GuSerialize.obj
 0001:00121550       ?writeFloat@physx@@YAXM_NAAVPxOutputStream@1@@Z 10122550 f   GuSerialize.obj
 0001:00121580       ?readFloatBuffer@physx@@YA_NPAMI_NAAVPxInputStream@1@@Z 10122580 f   GuSerialize.obj
 0001:001215e0       ?writeWordBuffer@physx@@YAXPBGI_NAAVPxOutputStream@1@@Z 101225e0 f   GuSerialize.obj
 0001:00121630       ?writeFloatBuffer@physx@@YAXPBMI_NAAVPxOutputStream@1@@Z 10122630 f   GuSerialize.obj
 0001:00121690       ?writeHeader@physx@@YA_NCCCCI_NAAVPxOutputStream@1@@Z 10122690 f   GuSerialize.obj
 0001:00121770       ?readHeader@physx@@YA_NCCCCAAIAA_NAAVPxInputStream@1@@Z 10122770 f   GuSerialize.obj
 0001:00121850       ?computeMaxIndex@physx@@YAIPBII@Z 10122850 f   GuSerialize.obj
 0001:00121880       ?computeMaxIndex@physx@@YAGPBGI@Z 10122880 f   GuSerialize.obj
 0001:001218b0       ?storeIndices@physx@@YAXIIPBIAAVPxOutputStream@1@_N@Z 101228b0 f   GuSerialize.obj
 0001:00121950       ?readIndices@physx@@YAXIIPAIAAVPxInputStream@1@_N@Z 10122950 f   GuSerialize.obj
 0001:001219f0       ?WriteHeader@Gu@physx@@YA_NEEEEI_NAAVPxOutputStream@2@@Z 101229f0 f   GuSerialize.obj
 0001:00121ad0       ?ReadHeader@Gu@physx@@YA_NEEEEAAIAA_NAAVPxInputStream@2@@Z 10122ad0 f   GuSerialize.obj
 0001:00121bc0       ?StoreIndices@Gu@physx@@YAXIIPBIAAVPxOutputStream@2@_N@Z 10122bc0 f   GuSerialize.obj
 0001:00121c90       ?ReadIndices@Gu@physx@@YAXIIPAIAAVPxInputStream@2@_N@Z 10122c90 f   GuSerialize.obj
 0001:00121d30       ?StoreIndices@Gu@physx@@YAXGIPBGAAVPxOutputStream@2@_N@Z 10122d30 f   GuSerialize.obj
 0001:00121dc0       ?ReadIndices@Gu@physx@@YAXGIPAGAAVPxInputStream@2@_N@Z 10122dc0 f   GuSerialize.obj
 0001:00121eb0       ?computeCapsule_TriangleMeshMTD@Gu@physx@@YA_NABVPxTriangleMeshGeometry@2@ABVPxTransform@2@AAVCapsuleV@12@MM_NAAUPxSweepHit@2@@Z 10122eb0 f   GuSweepMTD.obj
 0001:00122660       ?computeCapsule_HeightFieldMTD@Gu@physx@@YA_NABVPxHeightFieldGeometry@2@ABVPxTransform@2@AAVCapsuleV@12@MM_NIAAUPxSweepHit@2@@Z 10123660 f   GuSweepMTD.obj
 0001:00122cc0       ?computeBox_TriangleMeshMTD@Gu@physx@@YA_NABVPxTriangleMeshGeometry@2@ABVPxTransform@2@ABVBox@12@1MM_NAAUPxSweepHit@2@@Z 10123cc0 f   GuSweepMTD.obj
 0001:00123920       ?computeBox_HeightFieldMTD@Gu@physx@@YA_NABVPxHeightFieldGeometry@2@ABVPxTransform@2@ABVBox@12@1MM_NIAAUPxSweepHit@2@@Z 10124920 f   GuSweepMTD.obj
 0001:00124820       ?computeConvex_TriangleMeshMTD@Gu@physx@@YA_NABVPxTriangleMeshGeometry@2@ABVPxTransform@2@ABVPxConvexMeshGeometry@2@1MM_NAAUPxSweepHit@2@@Z 10125820 f   GuSweepMTD.obj
 0001:00125da0       ?computeConvex_HeightFieldMTD@Gu@physx@@YA_NABVPxHeightFieldGeometry@2@ABVPxTransform@2@ABVPxConvexMeshGeometry@2@1MM_NIAAUPxSweepHit@2@@Z 10126da0 f   GuSweepMTD.obj
 0001:00127400       ?computeSphere_SphereMTD@Gu@physx@@YA_NABVSphere@12@0AAUPxSweepHit@2@@Z 10128400 f   GuSweepMTD.obj
 0001:001274d0       ?computeSphere_CapsuleMTD@Gu@physx@@YA_NABVSphere@12@ABVCapsule@12@AAUPxSweepHit@2@@Z 101284d0 f   GuSweepMTD.obj
 0001:00127600       ?computeCapsule_CapsuleMTD@Gu@physx@@YA_NABVCapsule@12@0AAUPxSweepHit@2@@Z 10128600 f   GuSweepMTD.obj
 0001:00127780       ?computePlane_CapsuleMTD@Gu@physx@@YA_NABVPxPlane@2@ABVCapsule@12@AAUPxSweepHit@2@@Z 10128780 f   GuSweepMTD.obj
 0001:00127880       ?computePlane_BoxMTD@Gu@physx@@YA_NABVPxPlane@2@ABVBox@12@AAUPxSweepHit@2@@Z 10128880 f   GuSweepMTD.obj
 0001:00127aa0       ?computePlane_ConvexMTD@Gu@physx@@YA_NABVPxPlane@2@ABVPxConvexMeshGeometry@2@ABVPxTransform@2@AAUPxSweepHit@2@@Z 10128aa0 f   GuSweepMTD.obj
 0001:00127f20       ?calculateMTD@@YA_NABVCapsuleV@Gu@physx@@ABT__m128@@_NPBUMTDTriangle@@IIPAVMeshPersistentContact@23@AAIAAT4@6656@Z 10128f20 f   GuSweepMTD.obj
 0001:00128100       ?calculateMTD@@YA_NABUPolygonalData@Gu@physx@@PAVSupportLocal@23@AAVPsTransformV@aos@shdfnd@3@ABVPsMatTransformV@673@_NABT__m128@@PBUMTDTriangle@@IIPAVMeshPersistentContact@23@AAIAAT9@9989@Z 10129100 f   GuSweepMTD.obj
 0001:00128230       ??0MTDTriangle@@QAE@XZ     10129230 f i GuSweepMTD.obj
 0001:00128240       ??1MTDTriangle@@QAE@XZ     10129240 f i GuSweepMTD.obj
 0001:00128250       ??_GMeshMTDGenerationCallback@@UAEPAXI@Z 10129250 f i GuSweepMTD.obj
 0001:00128250       ??_EMeshMTDGenerationCallback@@UAEPAXI@Z 10129250 f i GuSweepMTD.obj
 0001:00128280       ??_GMidPhaseQueryLocalReport@@UAEPAXI@Z 10129280 f i GuSweepMTD.obj
 0001:00128280       ??_EMidPhaseQueryLocalReport@@UAEPAXI@Z 10129280 f i GuSweepMTD.obj
 0001:00128340       ?onEvent@MidPhaseQueryLocalReport@@UAE_NIPAI@Z 10129340 f i GuSweepMTD.obj
 0001:00128390       ?processHit@MeshMTDGenerationCallback@@UAE_NABUPxRaycastHit@physx@@ABVPxVec3@3@11AAMPBI@Z 10129390 f i GuSweepMTD.obj
 0001:001283d0       ?SweepCapsuleTriangles@Gu@physx@@YA_NIPBVPxTriangle@2@_NABVPxCapsuleGeometry@2@ABVPxTransform@2@ABVPxVec3@2@MPBIAAV62@6AAMAAIMV?$PxFlags@W4Enum@PxHitFlag@physx@@G@2@@Z 101293d0 f   GuSweepSharedTests.obj
 0001:00128540       ?sweepCapsule_SphereGeom@@YA_NABVPxGeometry@physx@@ABVPxTransform@2@ABVCapsule@Gu@2@ABVPxVec3@2@MAAUPxSweepHit@2@V?$PxFlags@W4Enum@PxHitFlag@physx@@G@2@M@Z 10129540 f   GuSweepSharedTests.obj
 0001:001286c0       ?sweepCapsule_PlaneGeom@@YA_NABVPxGeometry@physx@@ABVPxTransform@2@ABVCapsule@Gu@2@ABVPxVec3@2@MAAUPxSweepHit@2@V?$PxFlags@W4Enum@PxHitFlag@physx@@G@2@M@Z 101296c0 f   GuSweepSharedTests.obj
 0001:00128970       ?sweepCapsule_CapsuleGeom@@YA_NABVPxGeometry@physx@@ABVPxTransform@2@ABVCapsule@Gu@2@ABVPxVec3@2@MAAUPxSweepHit@2@V?$PxFlags@W4Enum@PxHitFlag@physx@@G@2@M@Z 10129970 f   GuSweepSharedTests.obj
 0001:00128b10       ?sweepCapsule_ConvexGeom@@YA_NABVPxGeometry@physx@@ABVPxTransform@2@ABVCapsule@Gu@2@ABVPxVec3@2@MAAUPxSweepHit@2@V?$PxFlags@W4Enum@PxHitFlag@physx@@G@2@M@Z 10129b10 f   GuSweepSharedTests.obj
 0001:00129940       ?sweepBox_PlaneGeom@@YA_NABVPxGeometry@physx@@ABVPxTransform@2@ABVBox@Gu@2@ABVPxVec3@2@MAAUPxSweepHit@2@V?$PxFlags@W4Enum@PxHitFlag@physx@@G@2@M@Z 1012a940 f   GuSweepSharedTests.obj
 0001:00129cd0       ?sweepBox_ConvexGeom@@YA_NABVPxGeometry@physx@@ABVPxTransform@2@ABVBox@Gu@2@ABVPxVec3@2@MAAUPxSweepHit@2@V?$PxFlags@W4Enum@PxHitFlag@physx@@G@2@M@Z 1012acd0 f   GuSweepSharedTests.obj
 0001:0012ab10       ?sweepConvex_SphereGeom@@YA_NABVPxGeometry@physx@@ABVPxTransform@2@ABVPxConvexMeshGeometry@2@1ABVPxVec3@2@MAAUPxSweepHit@2@V?$PxFlags@W4Enum@PxHitFlag@physx@@G@2@M@Z 1012bb10 f   GuSweepSharedTests.obj
 0001:0012b820       ?sweepConvex_PlaneGeom@@YA_NABVPxGeometry@physx@@ABVPxTransform@2@ABVPxConvexMeshGeometry@2@1ABVPxVec3@2@MAAUPxSweepHit@2@V?$PxFlags@W4Enum@PxHitFlag@physx@@G@2@M@Z 1012c820 f   GuSweepSharedTests.obj
 0001:0012bbf0       ?sweepConvex_CapsuleGeom@@YA_NABVPxGeometry@physx@@ABVPxTransform@2@ABVPxConvexMeshGeometry@2@1ABVPxVec3@2@MAAUPxSweepHit@2@V?$PxFlags@W4Enum@PxHitFlag@physx@@G@2@M@Z 1012cbf0 f   GuSweepSharedTests.obj
 0001:0012bde0       ?sweepConvex_BoxGeom@@YA_NABVPxGeometry@physx@@ABVPxTransform@2@ABVPxConvexMeshGeometry@2@1ABVPxVec3@2@MAAUPxSweepHit@2@V?$PxFlags@W4Enum@PxHitFlag@physx@@G@2@M@Z 1012cde0 f   GuSweepSharedTests.obj
 0001:0012c070       ?sweepConvex_ConvexGeom@@YA_NABVPxGeometry@physx@@ABVPxTransform@2@ABVPxConvexMeshGeometry@2@1ABVPxVec3@2@MAAUPxSweepHit@2@V?$PxFlags@W4Enum@PxHitFlag@physx@@G@2@M@Z 1012d070 f   GuSweepSharedTests.obj
 0001:0012d790       ?GetGeomSweepFuncs@Gu@physx@@YAABUGeomSweepFuncs@12@XZ 1012e790 f   GuSweepTests.obj
 0001:0012d7a0       ?SweepBoxTriangles@Gu@physx@@YA_NIPBVPxTriangle@2@_NABVPxBoxGeometry@2@ABVPxTransform@2@ABVPxVec3@2@MAAV62@5AAMAAIPBIMV?$PxFlags@W4Enum@PxHitFlag@physx@@G@2@@Z 1012e7a0 f   GuSweepTests.obj
 0001:0012e2b0       ?sweepCapsule_BoxGeom@@YA_NABVPxGeometry@physx@@ABVPxTransform@2@ABVCapsule@Gu@2@ABVPxVec3@2@MAAUPxSweepHit@2@V?$PxFlags@W4Enum@PxHitFlag@physx@@G@2@M@Z 1012f2b0 f   GuSweepTests.obj
 0001:0012eb90       ?sweepBox_SphereGeom@@YA_NABVPxGeometry@physx@@ABVPxTransform@2@ABVBox@Gu@2@ABVPxVec3@2@MAAUPxSweepHit@2@V?$PxFlags@W4Enum@PxHitFlag@physx@@G@2@M@Z 1012fb90 f   GuSweepTests.obj
 0001:0012f1d0       ?sweepBox_CapsuleGeom@@YA_NABVPxGeometry@physx@@ABVPxTransform@2@ABVBox@Gu@2@ABVPxVec3@2@MAAUPxSweepHit@2@V?$PxFlags@W4Enum@PxHitFlag@physx@@G@2@M@Z 101301d0 f   GuSweepTests.obj
 0001:0012fa50       ?sweepBox_BoxGeom@@YA_NABVPxGeometry@physx@@ABVPxTransform@2@ABVBox@Gu@2@ABVPxVec3@2@MAAUPxSweepHit@2@V?$PxFlags@W4Enum@PxHitFlag@physx@@G@2@M@Z 10130a50 f   GuSweepTests.obj
 0001:001302fc       _CloseHandle@4             101312fc f   kernel32:KERNEL32.dll
 0001:00130302       _MapViewOfFile@20          10131302 f   kernel32:KERNEL32.dll
 0001:00130308       _UnmapViewOfFile@4         10131308 f   kernel32:KERNEL32.dll
 0001:0013030e       _CreateFileMappingA@24     1013130e f   kernel32:KERNEL32.dll
 0001:00130314       _OpenFileMappingA@12       10131314 f   kernel32:KERNEL32.dll
 0001:0013031a       _FreeLibrary@4             1013131a f   kernel32:KERNEL32.dll
 0001:00130320       _GetProcAddress@8          10131320 f   kernel32:KERNEL32.dll
 0001:00130326       _LoadLibraryA@4            10131326 f   kernel32:KERNEL32.dll
 0001:0013032c       _InitializeCriticalSection@4 1013132c f   kernel32:KERNEL32.dll
 0001:00130332       _EnterCriticalSection@4    10131332 f   kernel32:KERNEL32.dll
 0001:00130338       _LeaveCriticalSection@4    10131338 f   kernel32:KERNEL32.dll
 0001:0013033e       _TryEnterCriticalSection@4 1013133e f   kernel32:KERNEL32.dll
 0001:00130344       _DeleteCriticalSection@4   10131344 f   kernel32:KERNEL32.dll
 0001:0013034a       _GetCurrentThread@0        1013134a f   kernel32:KERNEL32.dll
 0001:00130350       _GetCurrentThreadId@0      10131350 f   kernel32:KERNEL32.dll
 0001:00130356       _OutputDebugStringA@4      10131356 f   kernel32:KERNEL32.dll
 0001:0013035c       _InitializeSListHead@4     1013135c f   kernel32:KERNEL32.dll
 0001:00130362       _InterlockedPopEntrySList@4 10131362 f   kernel32:KERNEL32.dll
 0001:00130368       _InterlockedPushEntrySList@8 10131368 f   kernel32:KERNEL32.dll
 0001:0013036e       _InterlockedFlushSList@4   1013136e f   kernel32:KERNEL32.dll
 0001:00130374       _SetEvent@4                10131374 f   kernel32:KERNEL32.dll
 0001:0013037a       _ResetEvent@4              1013137a f   kernel32:KERNEL32.dll
 0001:00130380       _WaitForSingleObject@8     10131380 f   kernel32:KERNEL32.dll
 0001:00130386       _CreateEventA@16           10131386 f   kernel32:KERNEL32.dll
 0001:0013038c       _RaiseException@16         1013138c f   kernel32:KERNEL32.dll
 0001:00130392       _GetLastError@0            10131392 f   kernel32:KERNEL32.dll
 0001:00130398       _Sleep@4                   10131398 f   kernel32:KERNEL32.dll
 0001:0013039e       _SwitchToThread@0          1013139e f   kernel32:KERNEL32.dll
 0001:001303a4       _CreateThread@24           101313a4 f   kernel32:KERNEL32.dll
 0001:001303aa       _SetThreadPriority@8       101313aa f   kernel32:KERNEL32.dll
 0001:001303b0       _GetThreadPriority@4       101313b0 f   kernel32:KERNEL32.dll
 0001:001303b6       _ExitThread@4              101313b6 f   kernel32:KERNEL32.dll
 0001:001303bc       _TerminateThread@8         101313bc f   kernel32:KERNEL32.dll
 0001:001303c2       _ResumeThread@4            101313c2 f   kernel32:KERNEL32.dll
 0001:001303c8       _TlsAlloc@0                101313c8 f   kernel32:KERNEL32.dll
 0001:001303ce       _TlsGetValue@4             101313ce f   kernel32:KERNEL32.dll
 0001:001303d4       _TlsSetValue@8             101313d4 f   kernel32:KERNEL32.dll
 0001:001303da       _TlsFree@4                 101313da f   kernel32:KERNEL32.dll
 0001:001303e0       _GetModuleHandleA@4        101313e0 f   kernel32:KERNEL32.dll
 0001:001303e6       _SetThreadAffinityMask@8   101313e6 f   kernel32:KERNEL32.dll
 0001:001303ec       _QueryPerformanceCounter@4 101313ec f   kernel32:KERNEL32.dll
 0001:001303f2       _QueryPerformanceFrequency@4 101313f2 f   kernel32:KERNEL32.dll
 0001:001303f8       ??3@YAXPAXI@Z              101313f8 f   LIBCMT:delete_scalar_size.obj
 0001:00130406       ??_V@YAXPAXI@Z             10131406 f   LIBCMT:delete_array_size.obj
 0001:00130414       ?__scrt_initialize_type_info@@YAXXZ 10131414 f   LIBCMT:tncleanup.obj
 0001:00130420       ?__scrt_uninitialize_type_info@@YAXXZ 10131420 f   LIBCMT:tncleanup.obj
 0001:0013042c       ??1type_info@@UAE@XZ       1013142c f   LIBCMT:std_type_info_static.obj
 0001:00130433       ??_Etype_info@@UAEPAXI@Z   10131433 f i LIBCMT:std_type_info_static.obj
 0001:00130433       ??_Gtype_info@@UAEPAXI@Z   10131433 f i LIBCMT:std_type_info_static.obj
 0001:00130456       ??3@YAXPAX@Z               10131456 f   LIBCMT:delete_scalar.obj
 0001:0013045b       ??_V@YAXPAX@Z              1013145b f   LIBCMT:delete_array.obj
 0001:00130460       __alloca_probe_16          10131460 f   LIBCMT:alloca16.obj
 0001:00130476       __alloca_probe_8           10131476     LIBCMT:alloca16.obj
 0001:00130490       __allmul                   10131490 f   LIBCMT:llmul.obj
 0001:001304d0       __aulldiv                  101314d0 f   LIBCMT:ulldiv.obj
 0001:00130540       __ftoui3                   10131540 f   LIBCMT:_ftol3_.obj
 0001:0013054f       __ftoul3                   1013154f f   LIBCMT:_ftol3_.obj
 0001:0013055e       __ftol3                    1013155e f   LIBCMT:_ftol3_.obj
 0001:0013056b       __ftol3_NaN                1013156b f   LIBCMT:_ftol3_.obj
 0001:00130583       __ftol3_work               10131583 f   LIBCMT:_ftol3_.obj
 0001:00130609       __ftol3_common             10131609 f   LIBCMT:_ftol3_.obj
 0001:001306cb       __ftol3_arg_error          101316cb f   LIBCMT:_ftol3_.obj
 0001:001306dd       __ftol3_except             101316dd f   LIBCMT:_ftol3_.obj
 0001:00130721       __dtoui3                   10131721 f   LIBCMT:_ftol3_.obj
 0001:00130730       __dtoul3                   10131730 f   LIBCMT:_ftol3_.obj
 0001:0013073f       __dtol3                    1013173f f   LIBCMT:_ftol3_.obj
 0001:0013074c       __dtol3_NaN                1013174c f   LIBCMT:_ftol3_.obj
 0001:00130769       __dtol3_work               10131769 f   LIBCMT:_ftol3_.obj
 0001:00130850       __ultod3                   10131850 f   LIBCMT:_ftol3_.obj
 0001:00130890       __ltod3                    10131890 f   LIBCMT:_ftol3_.obj
 0001:001308b7       ??$__crt_fast_decode_pointer@PAP6AXXZ@@YAPAP6AXXZQAP6AXXZ@Z 101318b7 f i LIBCMT:utility.obj
 0001:001308cb       ??$__crt_fast_encode_pointer@PAP6AXXZ@@YAPAP6AXXZQAP6AXXZ@Z 101318cb f i LIBCMT:utility.obj
 0001:001308e8       ?__crt_rotate_pointer_value@@YAIIH@Z 101318e8 f i LIBCMT:utility.obj
 0001:0013096c       _NtCurrentTeb              1013196c f i LIBCMT:utility.obj
 0001:00130973       ___scrt_acquire_startup_lock 10131973 f   LIBCMT:utility.obj
 0001:001309a8       ___scrt_dllmain_after_initialize_c 101319a8 f   LIBCMT:utility.obj
 0001:001309c0       ___scrt_dllmain_before_initialize_c 101319c0 f   LIBCMT:utility.obj
 0001:001309ce       ___scrt_dllmain_crt_thread_attach 101319ce f   LIBCMT:utility.obj
 0001:001309ed       ___scrt_dllmain_crt_thread_detach 101319ed f   LIBCMT:utility.obj
 0001:001309fa       ___scrt_dllmain_exception_filter 101319fa f   LIBCMT:utility.obj
 0001:00130a2d       ___scrt_dllmain_uninitialize_c 10131a2d f   LIBCMT:utility.obj
 0001:00130a50       ___scrt_dllmain_uninitialize_critical 10131a50 f   LIBCMT:utility.obj
 0001:00130a5d       ___scrt_initialize_crt     10131a5d f   LIBCMT:utility.obj
 0001:00130a96       ___scrt_initialize_onexit_tables 10131a96 f   LIBCMT:utility.obj
 0001:00130b2d       ___scrt_is_nonwritable_in_current_image 10131b2d f   LIBCMT:utility.obj
 0001:00130bba       ___scrt_release_startup_lock 10131bba f   LIBCMT:utility.obj
 0001:00130bd7       ___scrt_uninitialize_crt   10131bd7 f   LIBCMT:utility.obj
 0001:00130bff       __onexit                   10131bff f   LIBCMT:utility.obj
 0001:00130c3a       _at_quick_exit             10131c3a f   LIBCMT:utility.obj
 0001:00130c6b       _atexit                    10131c6b f   LIBCMT:utility.obj
 0001:00130c80       __alloca_probe             10131c80 f   LIBCMT:chkstk.obj
 0001:00130c80       __chkstk                   10131c80 f   LIBCMT:chkstk.obj
 0001:00130cad       ??_U@YAPAXI@Z              10131cad f   LIBCMT:new_array.obj
 0001:00130fcb       __CRT_INIT@12              10131fcb f   LIBCMT:dll_dllmain.obj
 0001:00130fd4       __DllMainCRTStartup@12     10131fd4 f   LIBCMT:dll_dllmain.obj
 0001:00130ff7       ___isa_available_init      10131ff7 f   LIBCMT:_cpu_disp_.obj
 0001:00131198       ___scrt_is_ucrt_dll_in_use 10132198 f   LIBCMT:ucrt_detection.obj
 0001:001311a4       ___scrt_fastfail           101321a4 f   LIBCMT:utility_desktop.obj
 0001:001312bf       ___scrt_get_show_window_mode 101322bf f   LIBCMT:utility_desktop.obj
 0001:001312f2       ___scrt_initialize_winrt   101322f2 f   LIBCMT:utility_desktop.obj
 0001:001312f5       ___scrt_is_managed_app     101322f5 f   LIBCMT:utility_desktop.obj
 0001:00131339       ___scrt_set_unhandled_exception_filter 10132339 f   LIBCMT:utility_desktop.obj
 0001:00131345       ___scrt_unhandled_exception_filter@4 10132345 f   LIBCMT:utility_desktop.obj
 0001:00131386       __crt_debugger_hook        10132386 f   LIBCMT:utility_desktop.obj
 0001:0013138e       @_guard_check_icall@4      1013238e f i LIBCMT:checkcfg.obj
 0001:001313a0       __SEH_prolog4              101323a0 f   LIBCMT:_sehprolg4_.obj
 0001:001313e6       __SEH_epilog4              101323e6 f   LIBCMT:_sehprolg4_.obj
 0001:001313fb       ??2@YAPAXI@Z               101323fb f   LIBCMT:new_scalar.obj
 0001:0013142e       ___security_init_cookie    1013242e f   LIBCMT:gs_support.obj
 0001:001314ca       _DllMain@12                101324ca f   LIBCMT:dll_dllmain_stub.obj
 0001:001314d0       ___local_stdio_scanf_options 101324d0 f i LIBCMT:default_local_stdio_options.obj
 0001:001314d6       ___scrt_initialize_default_local_stdio_options 101324d6 f   LIBCMT:default_local_stdio_options.obj
 0001:001314f3       ___scrt_get_dyn_tls_init_callback 101324f3 f   LIBCMT:dyn_tls_init.obj
 0001:001314f9       __RTC_Initialize           101324f9 f   LIBCMT:_initsect_.obj
 0001:00131524       __RTC_Terminate            10132524 f   LIBCMT:_initsect_.obj
 0001:0013154f       @_guard_check_icall_nop@4  1013254f f i LIBCMT:guard_support.obj
 0001:00131550       __guard_icall_checks_enforced 10132550 f i LIBCMT:guard_support.obj
 0001:00131562       @__security_check_cookie@4 10132562 f   LIBCMT:_secchk_.obj
 0001:00131573       ??0bad_alloc@std@@AAE@QBD@Z 10132573 f i LIBCMT:throw_bad_alloc.obj
 0001:00131590       ??0bad_alloc@std@@QAE@ABV01@@Z 10132590 f i LIBCMT:throw_bad_alloc.obj
 0001:001315b1       ??0bad_alloc@std@@QAE@XZ   101325b1 f i LIBCMT:throw_bad_alloc.obj
 0001:001315c9       ??0bad_array_new_length@std@@QAE@ABV01@@Z 101325c9 f i LIBCMT:throw_bad_alloc.obj
 0001:001315ea       ??0bad_array_new_length@std@@QAE@XZ 101325ea f i LIBCMT:throw_bad_alloc.obj
 0001:00131602       ??0exception@std@@QAE@ABV01@@Z 10132602 f i LIBCMT:throw_bad_alloc.obj
 0001:0013162e       ??0exception@std@@QAE@QBDH@Z 1013262e f i LIBCMT:throw_bad_alloc.obj
 0001:0013164b       ??1bad_alloc@std@@UAE@XZ   1013264b f i LIBCMT:throw_bad_alloc.obj
 0001:0013165c       ??1bad_array_new_length@std@@UAE@XZ 1013265c f i LIBCMT:throw_bad_alloc.obj
 0001:0013166d       ??1exception@std@@UAE@XZ   1013266d f i LIBCMT:throw_bad_alloc.obj
 0001:0013167e       ??_Ebad_alloc@std@@UAEPAXI@Z 1013267e f i LIBCMT:throw_bad_alloc.obj
 0001:0013167e       ??_Gbad_alloc@std@@UAEPAXI@Z 1013267e f i LIBCMT:throw_bad_alloc.obj
 0001:001316ab       ??_Ebad_array_new_length@std@@UAEPAXI@Z 101326ab f i LIBCMT:throw_bad_alloc.obj
 0001:001316ab       ??_Gbad_array_new_length@std@@UAEPAXI@Z 101326ab f i LIBCMT:throw_bad_alloc.obj
 0001:001316d8       ??_Gexception@std@@UAEPAXI@Z 101326d8 f i LIBCMT:throw_bad_alloc.obj
 0001:001316d8       ??_Eexception@std@@UAEPAXI@Z 101326d8 f i LIBCMT:throw_bad_alloc.obj
 0001:00131705       ?__scrt_throw_std_bad_alloc@@YAXXZ 10132705 f   LIBCMT:throw_bad_alloc.obj
 0001:00131722       ?__scrt_throw_std_bad_array_new_length@@YAXXZ 10132722 f   LIBCMT:throw_bad_alloc.obj
 0001:0013173f       ?what@exception@std@@UBEPBDXZ 1013273f f i LIBCMT:throw_bad_alloc.obj
 0001:0013174c       ___raise_securityfailure   1013274c f   LIBCMT:gs_report.obj
 0001:00131774       ___report_gsfailure        10132774 f   LIBCMT:gs_report.obj
 0001:0013186f       ___report_rangecheckfailure 1013286f f   LIBCMT:gs_report.obj
 0001:0013187b       ___report_securityfailure  1013287b f   LIBCMT:gs_report.obj
 0001:0013194b       ___report_securityfailureEx 1013294b f   LIBCMT:gs_report.obj
 0001:00131a62       ___WSAFDIsSet@8            10132a62 f   Ws2_32:WS2_32.dll
 0001:00131a68       _accept@12                 10132a68 f   Ws2_32:WS2_32.dll
 0001:00131a6e       _bind@12                   10132a6e f   Ws2_32:WS2_32.dll
 0001:00131a74       _closesocket@4             10132a74 f   Ws2_32:WS2_32.dll
 0001:00131a7a       _connect@12                10132a7a f   Ws2_32:WS2_32.dll
 0001:00131a80       _ioctlsocket@12            10132a80 f   Ws2_32:WS2_32.dll
 0001:00131a86       _getsockopt@20             10132a86 f   Ws2_32:WS2_32.dll
 0001:00131a8c       _htonl@4                   10132a8c f   Ws2_32:WS2_32.dll
 0001:00131a92       _htons@4                   10132a92 f   Ws2_32:WS2_32.dll
 0001:00131a98       _inet_addr@4               10132a98 f   Ws2_32:WS2_32.dll
 0001:00131a9e       _listen@8                  10132a9e f   Ws2_32:WS2_32.dll
 0001:00131aa4       _recv@16                   10132aa4 f   Ws2_32:WS2_32.dll
 0001:00131aaa       _select@20                 10132aaa f   Ws2_32:WS2_32.dll
 0001:00131ab0       _send@16                   10132ab0 f   Ws2_32:WS2_32.dll
 0001:00131ab6       _setsockopt@20             10132ab6 f   Ws2_32:WS2_32.dll
 0001:00131abc       _socket@12                 10132abc f   Ws2_32:WS2_32.dll
 0001:00131ac2       _gethostbyaddr@12          10132ac2 f   Ws2_32:WS2_32.dll
 0001:00131ac8       _gethostbyname@4           10132ac8 f   Ws2_32:WS2_32.dll
 0001:00131ace       _WSAStartup@8              10132ace f   Ws2_32:WS2_32.dll
 0001:00131ad4       _WSACleanup@0              10132ad4 f   Ws2_32:WS2_32.dll
 0001:00131ada       _WSAGetLastError@0         10132ada f   Ws2_32:WS2_32.dll
 0001:00131ae0       _WSASendDisconnect@8       10132ae0 f   Ws2_32:WS2_32.dll
 0001:00131ae6       ??$__crt_fast_decode_pointer@P6AXXZ@@YAP6AXXZQ6AXXZ@Z 10132ae6 f i libvcruntime:purevirt.obj
 0001:00131afa       ??$__crt_fast_encode_pointer@P6AXXZ@@YAP6AXXZQ6AXXZ@Z 10132afa f i libvcruntime:purevirt.obj
 0001:00131b17       ??$__crt_interlocked_compare_exchange_pointer@$$A6AXXZ$$T$$T@@YAP6AXXZPDS6AXXZ$$T1@Z 10132b17 f i libvcruntime:purevirt.obj
 0001:00131b29       ??$__crt_interlocked_exchange_pointer@$$A6AXXZP6AXXZ@@YAP6AXXZPDS6AXXZQ6AXXZ@Z 10132b29 f i libvcruntime:purevirt.obj
 0001:00131b36       ??$__crt_interlocked_read_pointer@$$A6AXXZ@@YAP6AXXZPDS6AXXZ@Z 10132b36 f i libvcruntime:purevirt.obj
 0001:00131b46       __get_purecall_handler     10132b46 f   libvcruntime:purevirt.obj
 0001:00131b65       __purecall                 10132b65 f   libvcruntime:purevirt.obj
 0001:00131b80       __set_purecall_handler     10132b80 f   libvcruntime:purevirt.obj
 0001:00131bb3       ??$?RD@__crt_internal_free_policy@@QBEXQBD@Z 10132bb3 f i libvcruntime:std_type_info.obj
 0001:00131bc3       ??$?RX@__crt_internal_free_policy@@QBEXQBX@Z 10132bc3 f i libvcruntime:std_type_info.obj
 0001:00131bd3       ??$__crt_interlocked_compare_exchange_pointer@$$CBD$$T$$T@@YAPBDPDSBD$$T1@Z 10132bd3 f i libvcruntime:std_type_info.obj
 0001:00131be5       ??$__crt_interlocked_compare_exchange_pointer@$$CBDPAD$$T@@YAPBDPDSBDQAD$$T@Z 10132be5 f i libvcruntime:std_type_info.obj
 0001:00131bf7       ??$__crt_interlocked_read_pointer@$$CBD@@YAPBDPDSBD@Z 10132bf7 f i libvcruntime:std_type_info.obj
 0001:00131c07       ??0?$__crt_unique_heap_ptr@DU__crt_internal_free_policy@@@@QAE@QAD@Z 10132c07 f i libvcruntime:std_type_info.obj
 0001:00131c15       ??0?$__crt_unique_heap_ptr@XU__crt_internal_free_policy@@@@QAE@QAX@Z 10132c15 f i libvcruntime:std_type_info.obj
 0001:00131c23       ??1?$__crt_unique_heap_ptr@DU__crt_internal_free_policy@@@@QAE@XZ 10132c23 f i libvcruntime:std_type_info.obj
 0001:00131c33       ??1?$__crt_unique_heap_ptr@XU__crt_internal_free_policy@@@@QAE@XZ 10132c33 f i libvcruntime:std_type_info.obj
 0001:00131c4f       ??B?$__crt_unique_heap_ptr@DU__crt_internal_free_policy@@@@QBE_NXZ 10132c4f f i libvcruntime:std_type_info.obj
 0001:00131c57       ??B?$__crt_unique_heap_ptr@XU__crt_internal_free_policy@@@@QBE_NXZ 10132c57 f i libvcruntime:std_type_info.obj
 0001:00131c7f       ?detach@?$__crt_unique_heap_ptr@XU__crt_internal_free_policy@@@@QAEPAXXZ 10132c7f f i libvcruntime:std_type_info.obj
 0001:00131c85       ?get@?$__crt_unique_heap_ptr@DU__crt_internal_free_policy@@@@QBEPADXZ 10132c85 f i libvcruntime:std_type_info.obj
 0001:00131c88       ?get@?$__crt_unique_heap_ptr@XU__crt_internal_free_policy@@@@QBEPAXXZ 10132c88 f i libvcruntime:std_type_info.obj
 0001:00131c8b       ?is_valid@?$__crt_unique_heap_ptr@DU__crt_internal_free_policy@@@@QBE_NXZ 10132c8b f i libvcruntime:std_type_info.obj
 0001:00131c93       ?is_valid@?$__crt_unique_heap_ptr@XU__crt_internal_free_policy@@@@QBE_NXZ 10132c93 f i libvcruntime:std_type_info.obj
 0001:00131c9b       ?release@?$__crt_unique_heap_ptr@DU__crt_internal_free_policy@@@@QAEXXZ 10132c9b f i libvcruntime:std_type_info.obj
 0001:00131cab       ?release@?$__crt_unique_heap_ptr@XU__crt_internal_free_policy@@@@QAEXXZ 10132cab f i libvcruntime:std_type_info.obj
 0001:00131cbb       ___std_type_info_compare   10132cbb f   libvcruntime:std_type_info.obj
 0001:00131cf7       ___std_type_info_destroy_list 10132cf7 f   libvcruntime:std_type_info.obj
 0001:00131d1a       ___std_type_info_hash      10132d1a f   libvcruntime:std_type_info.obj
 0001:00131d40       ___std_type_info_name      10132d40 f   libvcruntime:std_type_info.obj
 0001:00131e10       _memcpy                    10132e10 f   libvcruntime:memcpy.obj
 0001:00132390       _memset                    10133390 f   libvcruntime:memset.obj
 0001:001324f8       __except_handler3          101334f8 f   libvcruntime:_exsup3_.obj
 0001:00132601       __seh_longjmp_unwind@4     10133601 f   libvcruntime:_exsup3_.obj
 0001:00132630       _memmove                   10133630 f   libvcruntime:memmove.obj
 0001:00132bb0       _strchr                    10133bb0 f   libvcruntime:strchr.obj
 0001:00132c1e       ___from_strstr_to_strchr   10133c1e     libvcruntime:strchr.obj
 0001:00132ce0       _strstr                    10133ce0 f   libvcruntime:strstr.obj
 0001:00132f43       ___vcrt_initialize         10133f43 f   libvcruntime:initialization.obj
 0001:00132f71       ___vcrt_thread_attach      10133f71 f   libvcruntime:initialization.obj
 0001:00132f7c       ___vcrt_thread_detach      10133f7c f   libvcruntime:initialization.obj
 0001:00132f87       ___vcrt_uninitialize       10133f87 f   libvcruntime:initialization.obj
 0001:00132fab       ___vcrt_uninitialize_critical 10133fab f   libvcruntime:initialization.obj
 0001:00133000       __except_handler4          10134000 f   libvcruntime:_chandler4_.obj
 0001:00133195       _EventDataDescCreate       10134195 f i libvcruntime:telemetry.obj
 0001:001331b0       _HRESULT_FROM_WIN32        101341b0 f i libvcruntime:telemetry.obj
 0001:001331c4       ___telemetry_main_invoke_trigger 101341c4 f   libvcruntime:telemetry.obj
 0001:00133260       ___telemetry_main_return_trigger 10134260 f   libvcruntime:telemetry.obj
 0001:001332fc       ___vcrt_initialize_telemetry_provider 101342fc f   libvcruntime:telemetry.obj
 0001:0013330f       ___vcrt_uninitialize_telemetry_provider 1013430f f   libvcruntime:telemetry.obj
 0001:0013331b       ??$?RD@__crt_public_free_policy@@QBEXQBD@Z 1013431b f i libvcruntime:std_exception.obj
 0001:0013332b       ??0?$__crt_unique_heap_ptr@DU__crt_public_free_policy@@@@QAE@QAD@Z 1013432b f i libvcruntime:std_exception.obj
 0001:00133339       ??1?$__crt_unique_heap_ptr@DU__crt_public_free_policy@@@@QAE@XZ 10134339 f i libvcruntime:std_exception.obj
 0001:00133349       ??B?$__crt_unique_heap_ptr@DU__crt_public_free_policy@@@@QBE_NXZ 10134349 f i libvcruntime:std_exception.obj
 0001:00133351       ?detach@?$__crt_unique_heap_ptr@DU__crt_public_free_policy@@@@QAEPADXZ 10134351 f i libvcruntime:std_exception.obj
 0001:00133357       ?get@?$__crt_unique_heap_ptr@DU__crt_public_free_policy@@@@QBEPADXZ 10134357 f i libvcruntime:std_exception.obj
 0001:0013335a       ?is_valid@?$__crt_unique_heap_ptr@DU__crt_public_free_policy@@@@QBE_NXZ 1013435a f i libvcruntime:std_exception.obj
 0001:00133362       ?release@?$__crt_unique_heap_ptr@DU__crt_public_free_policy@@@@QAEXXZ 10134362 f i libvcruntime:std_exception.obj
 0001:00133372       ___std_exception_copy      10134372 f   libvcruntime:std_exception.obj
 0001:001333d5       ___std_exception_destroy   101343d5 f   libvcruntime:std_exception.obj
 0001:001333f4       __CxxThrowException@8      101343f4 f   libvcruntime:throw.obj
 0001:00133462       ??$?B$$A6AXXZ@__crt_fast_encoded_nullptr_t@@QBEP6AXXZXZ 10134462 f i libvcruntime:purevirt_data.obj
 0001:0013347a       ?__crt_fast_encode_pointer@@YA?AU__crt_fast_encoded_nullptr_t@@$$T@Z 1013447a f i libvcruntime:purevirt_data.obj
 0001:00133485       ___vcrt_initialize_pure_virtual_call_handler 10134485 f   libvcruntime:purevirt_data.obj
 0001:001334a2       ??0Block@_HeapManager@@QAE@XZ 101344a2 f i libvcruntime:undname.obj
 0001:001334a8       ??0DName@@QAE@AAPBDD@Z     101344a8 f   libvcruntime:undname.obj
 0001:00133561       ??0DName@@QAE@ABV0@@Z      10134561 f i libvcruntime:undname.obj
 0001:00133577       ??0DName@@QAE@D@Z          10134577 f   libvcruntime:undname.obj
 0001:001335a3       ??0DName@@QAE@PAV0@@Z      101345a3 f   libvcruntime:undname.obj
 0001:001335f0       ??0DName@@QAE@PBD@Z        101345f0 f   libvcruntime:undname.obj
 0001:0013362a       ??0DName@@QAE@W4DNameStatus@@@Z 1013462a f   libvcruntime:undname.obj
 0001:0013366d       ??0DName@@QAE@XZ           1013466d f i libvcruntime:undname.obj
 0001:0013367e       ??0DName@@QAE@_J@Z         1013467e f   libvcruntime:undname.obj
 0001:00133713       ??0DName@@QAE@_K@Z         10134713 f   libvcruntime:undname.obj
 0001:00133782       ??0DNameNode@@IAE@XZ       10134782 f   libvcruntime:undname.obj
 0001:0013378b       ??0DNameStatusNode@@AAE@W4DNameStatus@@@Z 1013478b f   libvcruntime:undname.obj
 0001:001337ae       ??0Replicator@@QAE@XZ      101347ae f i libvcruntime:undname.obj
 0001:001337b4       ??0UnDecorator@@QAE@PADPBDHP6APADJ@ZK@Z 101347b4 f i libvcruntime:undname.obj
 0001:0013381d       ??0charNode@@QAE@D@Z       1013481d f   libvcruntime:undname.obj
 0001:00133832       ??0pDNameNode@@QAE@PAVDName@@@Z 10134832 f   libvcruntime:undname.obj
 0001:0013385a       ??0pairNode@@QAE@PAVDNameNode@@0@Z 1013485a f   libvcruntime:undname.obj
 0001:00133879       ??0pcharNode@@QAE@PBDH@Z   10134879 f   libvcruntime:undname.obj
 0001:001338d2       ??2@YAPAXIAAV_HeapManager@@H@Z 101348d2 f i libvcruntime:undname.obj
 0001:001338e7       ??4DName@@QAEAAV0@ABV0@@Z  101348e7 f   libvcruntime:undname.obj
 0001:001338fd       ??4DName@@QAEAAV0@D@Z      101348fd f i libvcruntime:undname.obj
 0001:00133929       ??4DName@@QAEAAV0@PAV0@@Z  10134929 f   libvcruntime:undname.obj
 0001:00133972       ??4DName@@QAEAAV0@PBD@Z    10134972 f   libvcruntime:undname.obj
 0001:001339a4       ??4DName@@QAEAAV0@W4DNameStatus@@@Z 101349a4 f   libvcruntime:undname.obj
 0001:001339d9       ??AReplicator@@QBE?AVDName@@H@Z 101349d9 f   libvcruntime:undname.obj
 0001:00133a15       ??BUnDecorator@@QAEPADXZ   10134a15 f i libvcruntime:undname.obj
 0001:00133b90       ??H@YA?AVDName@@DABV0@@Z   10134b90 f i libvcruntime:undname.obj
 0001:00133bb4       ??H@YA?AVDName@@PBDABV0@@Z 10134bb4 f i libvcruntime:undname.obj
 0001:00133bd8       ??H@YA?AVDName@@W4DNameStatus@@ABV0@@Z 10134bd8 f i libvcruntime:undname.obj
 0001:00133bfc       ??HDName@@QBE?AV0@ABV0@@Z  10134bfc f   libvcruntime:undname.obj
 0001:00133c1e       ??HDName@@QBE?AV0@D@Z      10134c1e f   libvcruntime:undname.obj
 0001:00133c40       ??HDName@@QBE?AV0@PAV0@@Z  10134c40 f   libvcruntime:undname.obj
 0001:00133c62       ??HDName@@QBE?AV0@PBD@Z    10134c62 f   libvcruntime:undname.obj
 0001:00133c84       ??HDName@@QBE?AV0@W4DNameStatus@@@Z 10134c84 f   libvcruntime:undname.obj
 0001:00133ca6       ??YDName@@QAEAAV0@ABV0@@Z  10134ca6 f   libvcruntime:undname.obj
 0001:00133ce9       ??YDName@@QAEAAV0@D@Z      10134ce9 f   libvcruntime:undname.obj
 0001:00133d39       ??YDName@@QAEAAV0@PAV0@@Z  10134d39 f   libvcruntime:undname.obj
 0001:00133d9e       ??YDName@@QAEAAV0@PBD@Z    10134d9e f   libvcruntime:undname.obj
 0001:00133dff       ??YDName@@QAEAAV0@W4DNameStatus@@@Z 10134dff f   libvcruntime:undname.obj
 0001:00133e3f       ??YReplicator@@QAEAAV0@ABVDName@@@Z 10134e3f f   libvcruntime:undname.obj
 0001:00133e89       ??_5DName@@QAEAAV0@ABV0@@Z 10134e89 f   libvcruntime:undname.obj
 0001:00133ea5       ?Constructor@_HeapManager@@QAEXP6APAXI@ZP6AXPAX@Z@Z 10134ea5 f i libvcruntime:undname.obj
 0001:00133ec2       ?Destructor@_HeapManager@@QAEXXZ 10134ec2 f i libvcruntime:undname.obj
 0001:00133efb       ?UScore@UnDecorator@@SAPBDW4Tokens@@@Z 10134efb f   libvcruntime:undname.obj
 0001:00133f18       ?append@DName@@AAEXPAVDNameNode@@@Z 10134f18 f   libvcruntime:undname.obj
 0001:00133f5e       ?composeDeclaration@UnDecorator@@CA?AVDName@@ABV2@@Z 10134f5e f i libvcruntime:undname.obj
 0001:00134c80       ?doAccessSpecifiers@UnDecorator@@SAHXZ 10135c80 f i libvcruntime:undname.obj
 0001:00134c8e       ?doAllocationLanguage@UnDecorator@@SAHXZ 10135c8e f i libvcruntime:undname.obj
 0001:00134c9c       ?doAllocationModel@UnDecorator@@SAHXZ 10135c9c f i libvcruntime:undname.obj
 0001:00134caa       ?doEcsu@UnDecorator@@SAHXZ 10135caa f i libvcruntime:undname.obj
 0001:00134cb8       ?doEllipsis@UnDecorator@@SAHXZ 10135cb8 f i libvcruntime:undname.obj
 0001:00134cc6       ?doFunctionReturns@UnDecorator@@SAHXZ 10135cc6 f i libvcruntime:undname.obj
 0001:00134cd4       ?doMSKeywords@UnDecorator@@SAHXZ 10135cd4 f i libvcruntime:undname.obj
 0001:00134ce1       ?doMemberTypes@UnDecorator@@SAHXZ 10135ce1 f i libvcruntime:undname.obj
 0001:00134cef       ?doNameOnly@UnDecorator@@SAHXZ 10135cef f i libvcruntime:undname.obj
 0001:00134cfa       ?doNoIdentCharCheck@UnDecorator@@SAHXZ 10135cfa f i libvcruntime:undname.obj
 0001:00134d05       ?doPchar@DName@@AAEXPBDH@Z 10135d05 f   libvcruntime:undname.obj
 0001:00134d8f       ?doPtr64@UnDecorator@@SAHXZ 10135d8f f i libvcruntime:undname.obj
 0001:00134d9d       ?doRestrictionSpec@UnDecorator@@SAHXZ 10135d9d f i libvcruntime:undname.obj
 0001:00134dab       ?doThisTypes@UnDecorator@@SAHXZ 10135dab f i libvcruntime:undname.obj
 0001:00134dbd       ?doThrowTypes@UnDecorator@@SAHXZ 10135dbd f i libvcruntime:undname.obj
 0001:00134dcb       ?doTypeOnly@UnDecorator@@SAHXZ 10135dcb f i libvcruntime:undname.obj
 0001:00134dd6       ?doUnderScore@UnDecorator@@SAHXZ 10135dd6 f i libvcruntime:undname.obj
 0001:00134de1       ?getArgumentList@UnDecorator@@CA?AVDName@@XZ 10135de1 f   libvcruntime:undname.obj
 0001:00134eed       ?getArgumentTypes@UnDecorator@@CA?AVDName@@XZ 10135eed f   libvcruntime:undname.obj
 0001:00134fcd       ?getArrayType@UnDecorator@@CA?AVDName@@ABV2@@Z 10135fcd f i libvcruntime:undname.obj
 0001:001351cf       ?getBasedType@UnDecorator@@CA?AVDName@@XZ 101361cf f   libvcruntime:undname.obj
 0001:00135268       ?getBasicDataType@UnDecorator@@CA?AVDName@@ABV2@@Z 10136268 f   libvcruntime:undname.obj
 0001:00135653       ?getCallIndex@UnDecorator@@CA?AVDName@@XZ 10136653 f i libvcruntime:undname.obj
 0001:00135667       ?getCallingConvention@UnDecorator@@CA?AVDName@@XZ 10136667 f   libvcruntime:undname.obj
 0001:00135726       ?getDataIndirectType@UnDecorator@@CA?AVDName@@ABV2@PBD0H@Z 10136726 f   libvcruntime:undname.obj
 0001:00135d48       ?getDataIndirectType@UnDecorator@@CA?AVDName@@XZ 10136d48 f i libvcruntime:undname.obj
 0001:00135d81       ?getDataType@UnDecorator@@CA?AVDName@@PAV2@@Z 10136d81 f   libvcruntime:undname.obj
 0001:00135e53       ?getDecoratedName@UnDecorator@@CA?AVDName@@XZ 10136e53 f   libvcruntime:undname.obj
 0001:0013609f       ?getDimension@UnDecorator@@CA?AVDName@@_N@Z 1013709f f   libvcruntime:undname.obj
 0001:001361d6       ?getDispatchTarget@UnDecorator@@CA?AVDName@@XZ 101371d6 f   libvcruntime:undname.obj
 0001:00136231       ?getDisplacement@UnDecorator@@CA?AVDName@@XZ 10137231 f i libvcruntime:undname.obj
 0001:00136245       ?getECSUDataType@UnDecorator@@CA?AVDName@@XZ 10137245 f   libvcruntime:undname.obj
 0001:00136362       ?getECSUName@UnDecorator@@CA?AVDName@@XZ 10137362 f i libvcruntime:undname.obj
 0001:00136373       ?getEnumType@UnDecorator@@CA?AVDName@@XZ 10137373 f i libvcruntime:undname.obj
 0001:0013645f       ?getExtendedDataIndirectType@UnDecorator@@CA?AVDName@@AAPBDAA_NH@Z 1013745f f   libvcruntime:undname.obj
 0001:00136608       ?getExternalDataType@UnDecorator@@CA?AVDName@@ABV2@@Z 10137608 f i libvcruntime:undname.obj
 0001:00136681       ?getFunctionIndirectType@UnDecorator@@CA?AVDName@@ABV2@@Z 10137681 f   libvcruntime:undname.obj
 0001:00136a8a       ?getGuardNumber@UnDecorator@@CA?AVDName@@XZ 10137a8a f i libvcruntime:undname.obj
 0001:00136a9e       ?getLastChar@DName@@QBEDXZ 10137a9e f i libvcruntime:undname.obj
 0001:00136abd       ?getLastChar@DNameStatusNode@@UBEDXZ 10137abd f i libvcruntime:undname.obj
 0001:00136ac9       ?getLastChar@charNode@@UBEDXZ 10137ac9 f i libvcruntime:undname.obj
 0001:00136acd       ?getLastChar@pDNameNode@@UBEDXZ 10137acd f i libvcruntime:undname.obj
 0001:00136adb       ?getLastChar@pairNode@@UBEDXZ 10137adb f i libvcruntime:undname.obj
 0001:00136b0e       ?getLastChar@pcharNode@@UBEDXZ 10137b0e f i libvcruntime:undname.obj
 0001:00136b20       ?getLexicalFrame@UnDecorator@@CA?AVDName@@XZ 10137b20 f i libvcruntime:undname.obj
 0001:00136b5d       ?getMemory@_HeapManager@@QAEPAXIH@Z 10137b5d f   libvcruntime:undname.obj
 0001:00136beb       ?getNumberOfDimensions@UnDecorator@@CAHXZ 10137beb f   libvcruntime:undname.obj
 0001:00136c4c       ?getOperatorName@UnDecorator@@CA?AVDName@@_NPA_N@Z 10137c4c f i libvcruntime:undname.obj
 0001:00137272       ?getPointerType@UnDecorator@@CA?AVDName@@ABV2@0@Z 10138272 f i libvcruntime:undname.obj
 0001:00137290       ?getPointerTypeArray@UnDecorator@@CA?AVDName@@ABV2@0@Z 10138290 f i libvcruntime:undname.obj
 0001:001372ae       ?getPrimaryDataType@UnDecorator@@CA?AVDName@@ABV2@@Z 101382ae f   libvcruntime:undname.obj
 0001:00137489       ?getPtrRefDataType@UnDecorator@@CA?AVDName@@ABV2@H@Z 10138489 f   libvcruntime:undname.obj
 0001:0013758b       ?getPtrRefType@UnDecorator@@CA?AVDName@@ABV2@0PBD@Z 1013858b f   libvcruntime:undname.obj
 0001:00137687       ?getReferenceType@UnDecorator@@CA?AVDName@@ABV2@0PBD@Z 10138687 f i libvcruntime:undname.obj
 0001:001376a3       ?getRestrictionSpec@UnDecorator@@CA?AVDName@@XZ 101386a3 f   libvcruntime:undname.obj
 0001:00137795       ?getReturnType@UnDecorator@@CA?AVDName@@PAV2@@Z 10138795 f   libvcruntime:undname.obj
 0001:001377c4       ?getScope@UnDecorator@@CA?AVDName@@XZ 101387c4 f   libvcruntime:undname.obj
 0001:00137ba2       ?getScopedName@UnDecorator@@CA?AVDName@@XZ 10138ba2 f   libvcruntime:undname.obj
 0001:00137c9d       ?getSignedDimension@UnDecorator@@CA?AVDName@@XZ 10138c9d f   libvcruntime:undname.obj
 0001:00137cf0       ?getStorageConvention@UnDecorator@@CA?AVDName@@XZ 10138cf0 f i libvcruntime:undname.obj
 0001:00137d01       ?getString@DName@@QBEPADPAD0@Z 10138d01 f i libvcruntime:undname.obj
 0001:00137d2d       ?getString@DName@@QBEPADPADH@Z 10138d2d f i libvcruntime:undname.obj
 0001:00137d83       ?getString@DNameStatusNode@@UBEPADPAD0@Z 10138d83 f i libvcruntime:undname.obj
 0001:00137daa       ?getString@charNode@@UBEPADPAD0@Z 10138daa f i libvcruntime:undname.obj
 0001:00137dbf       ?getString@pDNameNode@@UBEPADPAD0@Z 10138dbf f i libvcruntime:undname.obj
 0001:00137dd6       ?getString@pairNode@@UBEPADPAD0@Z 10138dd6 f i libvcruntime:undname.obj
 0001:00137e1a       ?getString@pcharNode@@UBEPADPAD0@Z 10138e1a f i libvcruntime:undname.obj
 0001:00137e35       ?getStringEncoding@UnDecorator@@CA?AVDName@@PADH@Z 10138e35 f   libvcruntime:undname.obj
 0001:00137ed8       ?getStringHelper@@YAPADPAD00H@Z 10138ed8 f i libvcruntime:undname.obj
 0001:00137f0f       ?getSymbolName@UnDecorator@@CA?AVDName@@XZ 10138f0f f i libvcruntime:undname.obj
 0001:00137f57       ?getTemplateArgumentList@UnDecorator@@CA?AVDName@@XZ 10138f57 f   libvcruntime:undname.obj
 0001:00138204       ?getTemplateConstant@UnDecorator@@CA?AVDName@@XZ 10139204 f   libvcruntime:undname.obj
 0001:00138548       ?getTemplateName@UnDecorator@@CA?AVDName@@_N@Z 10139548 f   libvcruntime:undname.obj
 0001:0013869e       ?getThisType@UnDecorator@@CA?AVDName@@XZ 1013969e f i libvcruntime:undname.obj
 0001:001386d8       ?getThrowTypes@UnDecorator@@CA?AVDName@@XZ 101396d8 f   libvcruntime:undname.obj
 0001:00138762       ?getTypeEncoding@UnDecorator@@CAHXZ 10139762 f i libvcruntime:undname.obj
 0001:00138c62       ?getVCallThunkType@UnDecorator@@CA?AVDName@@XZ 10139c62 f i libvcruntime:undname.obj
 0001:00138c9d       ?getVbTableType@UnDecorator@@CA?AVDName@@ABV2@@Z 10139c9d f i libvcruntime:undname.obj
 0001:00138cb2       ?getVdispMapType@UnDecorator@@CA?AVDName@@ABV2@@Z 10139cb2 f i libvcruntime:undname.obj
 0001:00138d08       ?getVfTableType@UnDecorator@@CA?AVDName@@ABV2@@Z 10139d08 f i libvcruntime:undname.obj
 0001:00138e6d       ?getZName@UnDecorator@@CA?AVDName@@_N0@Z 10139e6d f   libvcruntime:undname.obj
 0001:001390ad       ?haveTemplateParameters@UnDecorator@@SAHXZ 1013a0ad f i libvcruntime:undname.obj
 0001:001390b8       ?isArray@DName@@QBEHXZ     1013a0b8 f i libvcruntime:undname.obj
 0001:001390c2       ?isComArray@DName@@QBEHXZ  1013a0c2 f i libvcruntime:undname.obj
 0001:001390cc       ?isEmpty@DName@@QBEHXZ     1013a0cc f i libvcruntime:undname.obj
 0001:001390d4       ?isFull@Replicator@@QBEHXZ 1013a0d4 f i libvcruntime:undname.obj
 0001:001390dd       ?isNoTE@DName@@QBEHXZ      1013a0dd f i libvcruntime:undname.obj
 0001:001390e7       ?isPinPtr@DName@@QBEHXZ    1013a0e7 f i libvcruntime:undname.obj
 0001:001390f1       ?isPtrRef@DName@@QBEHXZ    1013a0f1 f i libvcruntime:undname.obj
 0001:001390fb       ?isUDC@DName@@QBEHXZ       1013a0fb f i libvcruntime:undname.obj
 0001:0013910c       ?isUDTThunk@DName@@QBEHXZ  1013a10c f i libvcruntime:undname.obj
 0001:0013911d       ?isVCallThunk@DName@@QBEHXZ 1013a11d f i libvcruntime:undname.obj
 0001:00139127       ?isValid@DName@@QBEHXZ     1013a127 f i libvcruntime:undname.obj
 0001:00139131       ?length@DName@@QBEHXZ      1013a131 f i libvcruntime:undname.obj
 0001:0013914f       ?length@DNameStatusNode@@UBEHXZ 1013a14f f i libvcruntime:undname.obj
 0001:00139153       ?length@charNode@@UBEHXZ   1013a153 f i libvcruntime:undname.obj
 0001:00139157       ?length@pDNameNode@@UBEHXZ 1013a157 f i libvcruntime:undname.obj
 0001:00139165       ?length@pairNode@@UBEHXZ   1013a165 f i libvcruntime:undname.obj
 0001:001391af       ?length@pcharNode@@UBEHXZ  1013a1af f i libvcruntime:undname.obj
 0001:001391b3       ?make@DNameStatusNode@@SAPAV1@W4DNameStatus@@@Z 1013a1b3 f i libvcruntime:undname.obj
 0001:00139239       ?setIsArray@DName@@QAEXXZ  1013a239 f i libvcruntime:undname.obj
 0001:00139241       ?setIsComArray@DName@@QAEXXZ 1013a241 f i libvcruntime:undname.obj
 0001:00139249       ?setIsNoTE@DName@@QAEXXZ   1013a249 f i libvcruntime:undname.obj
 0001:00139251       ?setIsPinPtr@DName@@QAEXXZ 1013a251 f i libvcruntime:undname.obj
 0001:00139259       ?setIsUDC@DName@@QAEXXZ    1013a259 f i libvcruntime:undname.obj
 0001:00139266       ?setIsVCallThunk@DName@@QAEXXZ 1013a266 f i libvcruntime:undname.obj
 0001:0013926e       ?setPtrRef@DName@@QAEAAV1@XZ 1013a26e f i libvcruntime:undname.obj
 0001:00139278       ?status@DName@@QBE?AW4DNameStatus@@XZ 1013a278 f i libvcruntime:undname.obj
 0001:001392e4       ___unDName                 1013a2e4 f   libvcruntime:undname.obj
 0001:00139379       ___unDNameEx               1013a379 f   libvcruntime:undname.obj
 0001:0013940e       __vsprintf_s_l             1013a40e f i libvcruntime:undname.obj
 0001:0013943b       _sprintf_s                 1013a43b f i libvcruntime:undname.obj
 0001:00139457       _CallDestructExceptionObject 1013a457 f   libvcruntime:_calldtor_.obj
 0001:001394a0       __global_unwind2           1013a4a0 f   libvcruntime:_exsup_.obj
 0001:00139505       __local_unwind2            1013a505 f   libvcruntime:_exsup_.obj
 0001:00139589       __abnormal_termination     1013a589 f   libvcruntime:_exsup_.obj
 0001:001395ac       __NLG_Notify1              1013a5ac f   libvcruntime:_exsup_.obj
 0001:001395b5       __NLG_Notify               1013a5b5 f   libvcruntime:_exsup_.obj
 0001:001395cc       __NLG_Dispatch2            1013a5cc     libvcruntime:_exsup_.obj
 0001:001395cc       __NLG_Dispatch             1013a5cc     libvcruntime:_exsup_.obj
 0001:001395d4       __NLG_Call                 1013a5d4 f   libvcruntime:_exsup_.obj
 0001:001395d6       __NLG_Return2              1013a5d6     libvcruntime:_exsup_.obj
 0001:001396a0       __ValidateEH3RN            1013a6a0 f   libvcruntime:_eh3valid_.obj
 0001:00139a04       ___except_validate_context_record 1013aa04 f   libvcruntime:jbcxrval.obj
 0001:00139a05       ___except_validate_jump_buffer 1013aa05 f   libvcruntime:jbcxrval.obj
 0001:00139a06       ??$?RU__vcrt_ptd@@@__crt_internal_free_policy@@QBEXQBU__vcrt_ptd@@@Z 1013aa06 f i libvcruntime:per_thread_data.obj
 0001:00139a16       ??0?$__crt_unique_heap_ptr@U__vcrt_ptd@@U__crt_internal_free_policy@@@@QAE@QAU__vcrt_ptd@@@Z 1013aa16 f i libvcruntime:per_thread_data.obj
 0001:00139a24       ??1?$__crt_unique_heap_ptr@U__vcrt_ptd@@U__crt_internal_free_policy@@@@QAE@XZ 1013aa24 f i libvcruntime:per_thread_data.obj
 0001:00139a34       ??B?$__crt_unique_heap_ptr@U__vcrt_ptd@@U__crt_internal_free_policy@@@@QBE_NXZ 1013aa34 f i libvcruntime:per_thread_data.obj
 0001:00139a3c       ?detach@?$__crt_unique_heap_ptr@U__vcrt_ptd@@U__crt_internal_free_policy@@@@QAEPAU__vcrt_ptd@@XZ 1013aa3c f i libvcruntime:per_thread_data.obj
 0001:00139a42       ?get@?$__crt_unique_heap_ptr@U__vcrt_ptd@@U__crt_internal_free_policy@@@@QBEPAU__vcrt_ptd@@XZ 1013aa42 f i libvcruntime:per_thread_data.obj
 0001:00139a45       ?is_valid@?$__crt_unique_heap_ptr@U__vcrt_ptd@@U__crt_internal_free_policy@@@@QBE_NXZ 1013aa45 f i libvcruntime:per_thread_data.obj
 0001:00139a4d       ?release@?$__crt_unique_heap_ptr@U__vcrt_ptd@@U__crt_internal_free_policy@@@@QAEXXZ 1013aa4d f i libvcruntime:per_thread_data.obj
 0001:00139a77       ___vcrt_freefls@4          1013aa77 f   libvcruntime:per_thread_data.obj
 0001:00139a93       ___vcrt_freeptd            1013aa93 f   libvcruntime:per_thread_data.obj
 0001:00139ac9       ___vcrt_getptd             1013aac9 f   libvcruntime:per_thread_data.obj
 0001:00139ad7       ___vcrt_getptd_noexit      1013aad7 f   libvcruntime:per_thread_data.obj
 0001:00139b4f       ___vcrt_initialize_ptd     1013ab4f f   libvcruntime:per_thread_data.obj
 0001:00139b82       ___vcrt_uninitialize_ptd   1013ab82 f   libvcruntime:per_thread_data.obj
 0001:00139b9d       ___vcrt_initialize_locks   1013ab9d f   libvcruntime:locks.obj
 0001:00139bd9       ___vcrt_lock               1013abd9 f   libvcruntime:locks.obj
 0001:00139bee       ___vcrt_uninitialize_locks 1013abee f   libvcruntime:locks.obj
 0001:00139c1d       ___vcrt_unlock             1013ac1d f   libvcruntime:locks.obj
 0001:00139c32       ??$?BX@__crt_fast_encoded_nullptr_t@@QBEPAXXZ 1013ac32 f i libvcruntime:winapi_downlevel.obj
 0001:00139c4a       ??$__crt_fast_decode_pointer@PAX@@YAPAXQAX@Z 1013ac4a f i libvcruntime:winapi_downlevel.obj
 0001:00139c5e       ??$__crt_fast_encode_pointer@PAX@@YAPAXQAX@Z 1013ac5e f i libvcruntime:winapi_downlevel.obj
 0001:00139c7b       ??$__crt_interlocked_compare_exchange_pointer@UHINSTANCE__@@$$T$$T@@YAPAUHINSTANCE__@@PDSAU0@$$T1@Z 1013ac7b f i libvcruntime:winapi_downlevel.obj
 0001:00139c8d       ??$__crt_interlocked_compare_exchange_pointer@X$$T$$T@@YAPAXPDSAX$$T1@Z 1013ac8d f i libvcruntime:winapi_downlevel.obj
 0001:00139c9f       ??$__crt_interlocked_exchange_pointer@UHINSTANCE__@@PAU1@@@YAPAUHINSTANCE__@@PDSAU0@QAU0@@Z 1013ac9f f i libvcruntime:winapi_downlevel.obj
 0001:00139cac       ??$__crt_interlocked_exchange_pointer@UHINSTANCE__@@PAX@@YAPAUHINSTANCE__@@PDSAU0@QAX@Z 1013acac f i libvcruntime:winapi_downlevel.obj
 0001:00139cb9       ??$__crt_interlocked_exchange_pointer@XPAX@@YAPAXPDSAXQAX@Z 1013acb9 f i libvcruntime:winapi_downlevel.obj
 0001:00139cc6       ??$__crt_interlocked_read_pointer@UHINSTANCE__@@@@YAPAUHINSTANCE__@@PDSAU0@@Z 1013acc6 f i libvcruntime:winapi_downlevel.obj
 0001:00139cd6       ??$__crt_interlocked_read_pointer@X@@YAPAXPDSAX@Z 1013acd6 f i libvcruntime:winapi_downlevel.obj
 0001:00139f7e       ___vcrt_EventRegister      1013af7e f   libvcruntime:winapi_downlevel.obj
 0001:00139fbe       ___vcrt_EventSetInformation 1013afbe f   libvcruntime:winapi_downlevel.obj
 0001:0013a001       ___vcrt_EventUnregister    1013b001 f   libvcruntime:winapi_downlevel.obj
 0001:0013a03b       ___vcrt_EventWriteTransfer 1013b03b f   libvcruntime:winapi_downlevel.obj
 0001:0013a084       ___vcrt_FlsAlloc           1013b084 f   libvcruntime:winapi_downlevel.obj
 0001:0013a0be       ___vcrt_FlsFree            1013b0be f   libvcruntime:winapi_downlevel.obj
 0001:0013a0f8       ___vcrt_FlsGetValue        1013b0f8 f   libvcruntime:winapi_downlevel.obj
 0001:0013a132       ___vcrt_FlsSetValue        1013b132 f   libvcruntime:winapi_downlevel.obj
 0001:0013a16f       ___vcrt_InitializeCriticalSectionEx 1013b16f f   libvcruntime:winapi_downlevel.obj
 0001:0013a1b5       ___vcrt_initialize_winapi_thunks 1013b1b5 f   libvcruntime:winapi_downlevel.obj
 0001:0013a1d9       ___vcrt_uninitialize_winapi_thunks 1013b1d9 f   libvcruntime:winapi_downlevel.obj
 0001:0013a210       __local_unwind4            1013b210 f   libvcruntime:_exsup4_.obj
 0001:0013a2e6       __seh_longjmp_unwind4@4    1013b2e6 f   libvcruntime:_exsup4_.obj
 0001:0013a30e       @_EH4_CallFilterFunc@8     1013b30e f   libvcruntime:_exsup4_.obj
 0001:0013a325       @_EH4_TransferToHandler@8  1013b325 f   libvcruntime:_exsup4_.obj
 0001:0013a33e       @_EH4_GlobalUnwind2@8      1013b33e f   libvcruntime:_exsup4_.obj
 0001:0013a357       @_EH4_LocalUnwind@16       1013b357 f   libvcruntime:_exsup4_.obj
 0001:0013a4b4       ___control87_2             1013b4b4 f   libucrt:ieee87.obj
 0001:0013a95e       ___fpreset_sse2            1013b95e f   libucrt:ieee87.obj
 0001:0013ab3b       __clearfp                  1013bb3b f   libucrt:ieee87.obj
 0001:0013ac19       __control87                1013bc19 f   libucrt:ieee87.obj
 0001:0013af1b       __controlfp                1013bf1b f   libucrt:ieee87.obj
 0001:0013af35       __fpreset                  1013bf35 f   libucrt:ieee87.obj
 0001:0013b000       __invoke_watson_if_error   1013c000 f i libucrt:ieee87.obj
 0001:0013b022       __set_controlfp            1013c022 f   libucrt:ieee87.obj
 0001:0013b09a       __statusfp                 1013c09a f   libucrt:ieee87.obj
 0001:0013b136       __statusfp2                1013c136 f   libucrt:ieee87.obj
 0001:0013b19a       __controlfp_s              1013c19a f   libucrt:contrlfp.obj
 0001:0013b1f9       ??$?RV<lambda_1fb4243d5e107ad4daf16ff362ca4a34>@@AAV<lambda_55f9cbce55698c0319f95c01c080475b>@@V<lambda_d740392b9cecdfa14abfd902a66ab607>@@@?$__crt_seh_guarded_call@H@@QAEH$$QAV<lambda_1fb4243d5e107ad4daf16ff362ca4a34>@@AAV<lambda_55f9cbce55698c0319f95c01c080475b>@@$$QAV<lambda_d740392b9cecdfa14abfd902a66ab607>@@@Z 1013c1f9 f i libucrt:puts.obj
 0001:0013b24a       ??$__acrt_lock_stream_and_call@V<lambda_55f9cbce55698c0319f95c01c080475b>@@@@YAHQAU_iobuf@@$$QAV<lambda_55f9cbce55698c0319f95c01c080475b>@@@Z 1013c24a f i libucrt:puts.obj
 0001:0013b272       ??$__crt_interlocked_read@J@@YAJPDJ@Z 1013c272 f i libucrt:puts.obj
 0001:0013b2be       ??0__acrt_stdio_temporary_buffering_guard@@QAE@QAU_iobuf@@@Z 1013c2be f i libucrt:puts.obj
 0001:0013b2dc       ??0__crt_stdio_stream@@QAE@QAU_iobuf@@@Z 1013c2dc f i libucrt:puts.obj
 0001:0013b2ec       ??1__acrt_stdio_temporary_buffering_guard@@QAE@XZ 1013c2ec f i libucrt:puts.obj
 0001:0013b36f       ?__crt_interlocked_read_32@@YAHPDH@Z 1013c36f f i libucrt:puts.obj
 0001:0013b37b       ?get_flags@__crt_stdio_stream@@QBEJXZ 1013c37b f i libucrt:puts.obj
 0001:0013b381       ?is_string_backed@__crt_stdio_stream@@QBE_NXZ 1013c381 f i libucrt:puts.obj
 0001:0013b38d       ?public_stream@__crt_stdio_stream@@QBEPAU_iobuf@@XZ 1013c38d f i libucrt:puts.obj
 0001:0013b390       _puts                      1013c390 f   libucrt:puts.obj
 0001:0013b46f       ??$?0ABV?$stream_output_adapter@D@__crt_stdio_output@@AB_KABQBDABQAU__crt_locale_pointers@@ABQAD@?$format_validation_base@DV?$stream_output_adapter@D@__crt_stdio_output@@@__crt_stdio_output@@IAE@ABV?$stream_output_adapter@D@1@AB_KABQBDABQAU__crt_locale_pointers@@ABQAD@Z 1013c46f f i libucrt:output.obj
 0001:0013b492       ??$?0ABV?$stream_output_adapter@D@__crt_stdio_output@@AB_KABQBDABQAU__crt_locale_pointers@@ABQAD@?$positional_parameter_base@DV?$stream_output_adapter@D@__crt_stdio_output@@@__crt_stdio_output@@IAE@ABV?$stream_output_adapter@D@1@AB_KABQBDABQAU__crt_locale_pointers@@ABQAD@Z 1013c492 f i libucrt:output.obj
 0001:0013b4da       ??$?0ABV?$stream_output_adapter@D@__crt_stdio_output@@AB_KABQBDABQAU__crt_locale_pointers@@ABQAD@?$standard_base@DV?$stream_output_adapter@D@__crt_stdio_output@@@__crt_stdio_output@@IAE@ABV?$stream_output_adapter@D@1@AB_KABQBDABQAU__crt_locale_pointers@@ABQAD@Z 1013c4da f i libucrt:output.obj
 0001:0013b50f       ??$?0ABV?$stream_output_adapter@_W@__crt_stdio_output@@AB_KABQB_WABQAU__crt_locale_pointers@@ABQAD@?$format_validation_base@_WV?$stream_output_adapter@_W@__crt_stdio_output@@@__crt_stdio_output@@IAE@ABV?$stream_output_adapter@_W@1@AB_KABQB_WABQAU__crt_locale_pointers@@ABQAD@Z 1013c50f f i libucrt:output.obj
 0001:0013b532       ??$?0ABV?$stream_output_adapter@_W@__crt_stdio_output@@AB_KABQB_WABQAU__crt_locale_pointers@@ABQAD@?$positional_parameter_base@_WV?$stream_output_adapter@_W@__crt_stdio_output@@@__crt_stdio_output@@IAE@ABV?$stream_output_adapter@_W@1@AB_KABQB_WABQAU__crt_locale_pointers@@ABQAD@Z 1013c532 f i libucrt:output.obj
 0001:0013b57a       ??$?0ABV?$stream_output_adapter@_W@__crt_stdio_output@@AB_KABQB_WABQAU__crt_locale_pointers@@ABQAD@?$standard_base@_WV?$stream_output_adapter@_W@__crt_stdio_output@@@__crt_stdio_output@@IAE@ABV?$stream_output_adapter@_W@1@AB_KABQB_WABQAU__crt_locale_pointers@@ABQAD@Z 1013c57a f i libucrt:output.obj
 0001:0013b5af       ??$?0ABV?$string_output_adapter@D@__crt_stdio_output@@AB_KABQBDABQAU__crt_locale_pointers@@ABQAD@?$format_validation_base@DV?$string_output_adapter@D@__crt_stdio_output@@@__crt_stdio_output@@IAE@ABV?$string_output_adapter@D@1@AB_KABQBDABQAU__crt_locale_pointers@@ABQAD@Z 1013c5af f i libucrt:output.obj
 0001:0013b5d2       ??$?0ABV?$string_output_adapter@D@__crt_stdio_output@@AB_KABQBDABQAU__crt_locale_pointers@@ABQAD@?$positional_parameter_base@DV?$string_output_adapter@D@__crt_stdio_output@@@__crt_stdio_output@@IAE@ABV?$string_output_adapter@D@1@AB_KABQBDABQAU__crt_locale_pointers@@ABQAD@Z 1013c5d2 f i libucrt:output.obj
 0001:0013b61a       ??$?0ABV?$string_output_adapter@D@__crt_stdio_output@@AB_KABQBDABQAU__crt_locale_pointers@@ABQAD@?$standard_base@DV?$string_output_adapter@D@__crt_stdio_output@@@__crt_stdio_output@@IAE@ABV?$string_output_adapter@D@1@AB_KABQBDABQAU__crt_locale_pointers@@ABQAD@Z 1013c61a f i libucrt:output.obj
 0001:0013b64f       ??$?0ABV?$string_output_adapter@_W@__crt_stdio_output@@AB_KABQB_WABQAU__crt_locale_pointers@@ABQAD@?$format_validation_base@_WV?$string_output_adapter@_W@__crt_stdio_output@@@__crt_stdio_output@@IAE@ABV?$string_output_adapter@_W@1@AB_KABQB_WABQAU__crt_locale_pointers@@ABQAD@Z 1013c64f f i libucrt:output.obj
 0001:0013b672       ??$?0ABV?$string_output_adapter@_W@__crt_stdio_output@@AB_KABQB_WABQAU__crt_locale_pointers@@ABQAD@?$positional_parameter_base@_WV?$string_output_adapter@_W@__crt_stdio_output@@@__crt_stdio_output@@IAE@ABV?$string_output_adapter@_W@1@AB_KABQB_WABQAU__crt_locale_pointers@@ABQAD@Z 1013c672 f i libucrt:output.obj
 0001:0013b6ba       ??$?0ABV?$string_output_adapter@_W@__crt_stdio_output@@AB_KABQB_WABQAU__crt_locale_pointers@@ABQAD@?$standard_base@_WV?$string_output_adapter@_W@__crt_stdio_output@@@__crt_stdio_output@@IAE@ABV?$string_output_adapter@_W@1@AB_KABQB_WABQAU__crt_locale_pointers@@ABQAD@Z 1013c6ba f i libucrt:output.obj
 0001:0013b6ef       ??$?RV<lambda_2293f24e3ce1ad6fe22ccfb9dec07671>@@AAV<lambda_2565fc715a641e539f44ad02d6823606>@@V<lambda_d3217f279b832965d9ca670dc2993570>@@@?$__crt_seh_guarded_call@H@@QAEH$$QAV<lambda_2293f24e3ce1ad6fe22ccfb9dec07671>@@AAV<lambda_2565fc715a641e539f44ad02d6823606>@@$$QAV<lambda_d3217f279b832965d9ca670dc2993570>@@@Z 1013c6ef f i libucrt:output.obj
 0001:0013b740       ??$?RV<lambda_4d4ac866be0fa3c441830420fabdd2cb>@@AAV<lambda_63a10c2dc8dbb9e4dd1890be52af7c93>@@V<lambda_002af9fa0f8fe472b648c51882d4fc32>@@@?$__crt_seh_guarded_call@H@@QAEH$$QAV<lambda_4d4ac866be0fa3c441830420fabdd2cb>@@AAV<lambda_63a10c2dc8dbb9e4dd1890be52af7c93>@@$$QAV<lambda_002af9fa0f8fe472b648c51882d4fc32>@@@Z 1013c740 f i libucrt:output.obj
 0001:0013b791       ??$?RV<lambda_5be909dfbae0a631386585770cd7b676>@@AAV<lambda_e516058a9c289d98c8ca9fea99247804>@@V<lambda_afe2e0cdc5e0ecf6f0d6f5e2f8985e38>@@@?$__crt_seh_guarded_call@H@@QAEH$$QAV<lambda_5be909dfbae0a631386585770cd7b676>@@AAV<lambda_e516058a9c289d98c8ca9fea99247804>@@$$QAV<lambda_afe2e0cdc5e0ecf6f0d6f5e2f8985e38>@@@Z 1013c791 f i libucrt:output.obj
 0001:0013b7e2       ??$?RV<lambda_823d65812123d985753d53e2a8c25d20>@@AAV<lambda_0a97c9e57da7be065955385c79108ff2>@@V<lambda_4d2973f3ad2d226f00468307185dca1b>@@@?$__crt_seh_guarded_call@H@@QAEH$$QAV<lambda_823d65812123d985753d53e2a8c25d20>@@AAV<lambda_0a97c9e57da7be065955385c79108ff2>@@$$QAV<lambda_4d2973f3ad2d226f00468307185dca1b>@@@Z 1013c7e2 f i libucrt:output.obj
 0001:0013b833       ??$?RV<lambda_ab9923ffb5d694ec0d78876dd103e44f>@@AAV<lambda_481dd5778c961fbcd3b60b650e9b9dc4>@@V<lambda_7923d86c9e3f319b415918ec4b39749c>@@@?$__crt_seh_guarded_call@H@@QAEH$$QAV<lambda_ab9923ffb5d694ec0d78876dd103e44f>@@AAV<lambda_481dd5778c961fbcd3b60b650e9b9dc4>@@$$QAV<lambda_7923d86c9e3f319b415918ec4b39749c>@@@Z 1013c833 f i libucrt:output.obj
 0001:0013b884       ??$?RV<lambda_db08b09ef7aa9d4f8620ce68402612bc>@@AAV<lambda_4f2c1eaeead2a5fc776db5b62ea0fb9b>@@V<lambda_3ae262bc35d4ba6a3825c4f6bcaaf95c>@@@?$__crt_seh_guarded_call@H@@QAEH$$QAV<lambda_db08b09ef7aa9d4f8620ce68402612bc>@@AAV<lambda_4f2c1eaeead2a5fc776db5b62ea0fb9b>@@$$QAV<lambda_3ae262bc35d4ba6a3825c4f6bcaaf95c>@@@Z 1013c884 f i libucrt:output.obj
 0001:0013b8d5       ??$__acrt_lock_stream_and_call@V<lambda_0a97c9e57da7be065955385c79108ff2>@@@@YAHQAU_iobuf@@$$QAV<lambda_0a97c9e57da7be065955385c79108ff2>@@@Z 1013c8d5 f i libucrt:output.obj
 0001:0013b8fd       ??$__acrt_lock_stream_and_call@V<lambda_2565fc715a641e539f44ad02d6823606>@@@@YAHQAU_iobuf@@$$QAV<lambda_2565fc715a641e539f44ad02d6823606>@@@Z 1013c8fd f i libucrt:output.obj
 0001:0013b925       ??$__acrt_lock_stream_and_call@V<lambda_481dd5778c961fbcd3b60b650e9b9dc4>@@@@YAHQAU_iobuf@@$$QAV<lambda_481dd5778c961fbcd3b60b650e9b9dc4>@@@Z 1013c925 f i libucrt:output.obj
 0001:0013b94d       ??$__acrt_lock_stream_and_call@V<lambda_4f2c1eaeead2a5fc776db5b62ea0fb9b>@@@@YAHQAU_iobuf@@$$QAV<lambda_4f2c1eaeead2a5fc776db5b62ea0fb9b>@@@Z 1013c94d f i libucrt:output.obj
 0001:0013b975       ??$__acrt_lock_stream_and_call@V<lambda_63a10c2dc8dbb9e4dd1890be52af7c93>@@@@YAHQAU_iobuf@@$$QAV<lambda_63a10c2dc8dbb9e4dd1890be52af7c93>@@@Z 1013c975 f i libucrt:output.obj
 0001:0013b99d       ??$__acrt_lock_stream_and_call@V<lambda_e516058a9c289d98c8ca9fea99247804>@@@@YAHQAU_iobuf@@$$QAV<lambda_e516058a9c289d98c8ca9fea99247804>@@@Z 1013c99d f i libucrt:output.obj
 0001:0013c85e       ??$count@D@formatting_buffer@__crt_stdio_output@@QBEIXZ 1013d85e f i libucrt:output.obj
 0001:0013c876       ??$data@D@formatting_buffer@__crt_stdio_output@@QAEPADXZ 1013d876 f i libucrt:output.obj
 0001:0013c883       ??$data@_W@formatting_buffer@__crt_stdio_output@@QAEPA_WXZ 1013d883 f i libucrt:output.obj
 0001:0013c890       ??$ensure_buffer_is_big_enough@D@formatting_buffer@__crt_stdio_output@@QAE_NI@Z 1013d890 f i libucrt:output.obj
 0001:0013c916       ??$extract_argument_from_va_list@C_J@?$positional_parameter_base@DV?$stream_output_adapter@D@__crt_stdio_output@@@__crt_stdio_output@@IAE_NAA_J@Z 1013d916 f i libucrt:output.obj
 0001:0013c995       ??$extract_argument_from_va_list@C_J@?$positional_parameter_base@DV?$string_output_adapter@D@__crt_stdio_output@@@__crt_stdio_output@@IAE_NAA_J@Z 1013d995 f i libucrt:output.obj
 0001:0013ca14       ??$extract_argument_from_va_list@C_J@?$positional_parameter_base@_WV?$stream_output_adapter@_W@__crt_stdio_output@@@__crt_stdio_output@@IAE_NAA_J@Z 1013da14 f i libucrt:output.obj
 0001:0013ca93       ??$extract_argument_from_va_list@C_J@?$positional_parameter_base@_WV?$string_output_adapter@_W@__crt_stdio_output@@@__crt_stdio_output@@IAE_NAA_J@Z 1013da93 f i libucrt:output.obj
 0001:0013cb12       ??$extract_argument_from_va_list@C_J@?$standard_base@DV?$stream_output_adapter@D@__crt_stdio_output@@@__crt_stdio_output@@IAE_NAA_J@Z 1013db12 f i libucrt:output.obj
 0001:0013cb31       ??$extract_argument_from_va_list@C_J@?$standard_base@DV?$string_output_adapter@D@__crt_stdio_output@@@__crt_stdio_output@@IAE_NAA_J@Z 1013db31 f i libucrt:output.obj
 0001:0013cb50       ??$extract_argument_from_va_list@C_J@?$standard_base@_WV?$stream_output_adapter@_W@__crt_stdio_output@@@__crt_stdio_output@@IAE_NAA_J@Z 1013db50 f i libucrt:output.obj
 0001:0013cb6f       ??$extract_argument_from_va_list@C_J@?$standard_base@_WV?$string_output_adapter@_W@__crt_stdio_output@@@__crt_stdio_output@@IAE_NAA_J@Z 1013db6f f i libucrt:output.obj
 0001:0013cb8e       ??$extract_argument_from_va_list@E_J@?$positional_parameter_base@DV?$stream_output_adapter@D@__crt_stdio_output@@@__crt_stdio_output@@IAE_NAA_J@Z 1013db8e f i libucrt:output.obj
 0001:0013cc0d       ??$extract_argument_from_va_list@E_J@?$positional_parameter_base@DV?$string_output_adapter@D@__crt_stdio_output@@@__crt_stdio_output@@IAE_NAA_J@Z 1013dc0d f i libucrt:output.obj
 0001:0013cc8c       ??$extract_argument_from_va_list@E_J@?$positional_parameter_base@_WV?$stream_output_adapter@_W@__crt_stdio_output@@@__crt_stdio_output@@IAE_NAA_J@Z 1013dc8c f i libucrt:output.obj
 0001:0013cd0b       ??$extract_argument_from_va_list@E_J@?$positional_parameter_base@_WV?$string_output_adapter@_W@__crt_stdio_output@@@__crt_stdio_output@@IAE_NAA_J@Z 1013dd0b f i libucrt:output.obj
 0001:0013cd8a       ??$extract_argument_from_va_list@E_J@?$standard_base@DV?$stream_output_adapter@D@__crt_stdio_output@@@__crt_stdio_output@@IAE_NAA_J@Z 1013dd8a f i libucrt:output.obj
 0001:0013cda9       ??$extract_argument_from_va_list@E_J@?$standard_base@DV?$string_output_adapter@D@__crt_stdio_output@@@__crt_stdio_output@@IAE_NAA_J@Z 1013dda9 f i libucrt:output.obj
 0001:0013cdc8       ??$extract_argument_from_va_list@E_J@?$standard_base@_WV?$stream_output_adapter@_W@__crt_stdio_output@@@__crt_stdio_output@@IAE_NAA_J@Z 1013ddc8 f i libucrt:output.obj
 0001:0013cde7       ??$extract_argument_from_va_list@E_J@?$standard_base@_WV?$string_output_adapter@_W@__crt_stdio_output@@@__crt_stdio_output@@IAE_NAA_J@Z 1013dde7 f i libucrt:output.obj
 0001:0013ce06       ??$extract_argument_from_va_list@F_J@?$positional_parameter_base@DV?$stream_output_adapter@D@__crt_stdio_output@@@__crt_stdio_output@@IAE_NAA_J@Z 1013de06 f i libucrt:output.obj
 0001:0013ce85       ??$extract_argument_from_va_list@F_J@?$positional_parameter_base@DV?$string_output_adapter@D@__crt_stdio_output@@@__crt_stdio_output@@IAE_NAA_J@Z 1013de85 f i libucrt:output.obj
 0001:0013cf04       ??$extract_argument_from_va_list@F_J@?$positional_parameter_base@_WV?$stream_output_adapter@_W@__crt_stdio_output@@@__crt_stdio_output@@IAE_NAA_J@Z 1013df04 f i libucrt:output.obj
 0001:0013cf83       ??$extract_argument_from_va_list@F_J@?$positional_parameter_base@_WV?$string_output_adapter@_W@__crt_stdio_output@@@__crt_stdio_output@@IAE_NAA_J@Z 1013df83 f i libucrt:output.obj
 0001:0013d002       ??$extract_argument_from_va_list@F_J@?$standard_base@DV?$stream_output_adapter@D@__crt_stdio_output@@@__crt_stdio_output@@IAE_NAA_J@Z 1013e002 f i libucrt:output.obj
 0001:0013d021       ??$extract_argument_from_va_list@F_J@?$standard_base@DV?$string_output_adapter@D@__crt_stdio_output@@@__crt_stdio_output@@IAE_NAA_J@Z 1013e021 f i libucrt:output.obj
 0001:0013d040       ??$extract_argument_from_va_list@F_J@?$standard_base@_WV?$stream_output_adapter@_W@__crt_stdio_output@@@__crt_stdio_output@@IAE_NAA_J@Z 1013e040 f i libucrt:output.obj
 0001:0013d05f       ??$extract_argument_from_va_list@F_J@?$standard_base@_WV?$string_output_adapter@_W@__crt_stdio_output@@@__crt_stdio_output@@IAE_NAA_J@Z 1013e05f f i libucrt:output.obj
 0001:0013d07e       ??$extract_argument_from_va_list@GD@?$positional_parameter_base@DV?$stream_output_adapter@D@__crt_stdio_output@@@__crt_stdio_output@@IAE_NAAD@Z 1013e07e f i libucrt:output.obj
 0001:0013d0fc       ??$extract_argument_from_va_list@GD@?$positional_parameter_base@DV?$string_output_adapter@D@__crt_stdio_output@@@__crt_stdio_output@@IAE_NAAD@Z 1013e0fc f i libucrt:output.obj
 0001:0013d17a       ??$extract_argument_from_va_list@GD@?$standard_base@DV?$stream_output_adapter@D@__crt_stdio_output@@@__crt_stdio_output@@IAE_NAAD@Z 1013e17a f i libucrt:output.obj
 0001:0013d194       ??$extract_argument_from_va_list@GD@?$standard_base@DV?$string_output_adapter@D@__crt_stdio_output@@@__crt_stdio_output@@IAE_NAAD@Z 1013e194 f i libucrt:output.obj
 0001:0013d1ae       ??$extract_argument_from_va_list@G_J@?$positional_parameter_base@DV?$stream_output_adapter@D@__crt_stdio_output@@@__crt_stdio_output@@IAE_NAA_J@Z 1013e1ae f i libucrt:output.obj
 0001:0013d22d       ??$extract_argument_from_va_list@G_J@?$positional_parameter_base@DV?$string_output_adapter@D@__crt_stdio_output@@@__crt_stdio_output@@IAE_NAA_J@Z 1013e22d f i libucrt:output.obj
 0001:0013d2ac       ??$extract_argument_from_va_list@G_J@?$positional_parameter_base@_WV?$stream_output_adapter@_W@__crt_stdio_output@@@__crt_stdio_output@@IAE_NAA_J@Z 1013e2ac f i libucrt:output.obj
 0001:0013d32b       ??$extract_argument_from_va_list@G_J@?$positional_parameter_base@_WV?$string_output_adapter@_W@__crt_stdio_output@@@__crt_stdio_output@@IAE_NAA_J@Z 1013e32b f i libucrt:output.obj
 0001:0013d3aa       ??$extract_argument_from_va_list@G_J@?$standard_base@DV?$stream_output_adapter@D@__crt_stdio_output@@@__crt_stdio_output@@IAE_NAA_J@Z 1013e3aa f i libucrt:output.obj
 0001:0013d3c9       ??$extract_argument_from_va_list@G_J@?$standard_base@DV?$string_output_adapter@D@__crt_stdio_output@@@__crt_stdio_output@@IAE_NAA_J@Z 1013e3c9 f i libucrt:output.obj
 0001:0013d3e8       ??$extract_argument_from_va_list@G_J@?$standard_base@_WV?$stream_output_adapter@_W@__crt_stdio_output@@@__crt_stdio_output@@IAE_NAA_J@Z 1013e3e8 f i libucrt:output.obj
 0001:0013d407       ??$extract_argument_from_va_list@G_J@?$standard_base@_WV?$string_output_adapter@_W@__crt_stdio_output@@@__crt_stdio_output@@IAE_NAA_J@Z 1013e407 f i libucrt:output.obj
 0001:0013d426       ??$extract_argument_from_va_list@H_J@?$positional_parameter_base@DV?$stream_output_adapter@D@__crt_stdio_output@@@__crt_stdio_output@@IAE_NAA_J@Z 1013e426 f i libucrt:output.obj
 0001:0013d4a3       ??$extract_argument_from_va_list@H_J@?$positional_parameter_base@DV?$string_output_adapter@D@__crt_stdio_output@@@__crt_stdio_output@@IAE_NAA_J@Z 1013e4a3 f i libucrt:output.obj
 0001:0013d520       ??$extract_argument_from_va_list@H_J@?$positional_parameter_base@_WV?$stream_output_adapter@_W@__crt_stdio_output@@@__crt_stdio_output@@IAE_NAA_J@Z 1013e520 f i libucrt:output.obj
 0001:0013d59d       ??$extract_argument_from_va_list@H_J@?$positional_parameter_base@_WV?$string_output_adapter@_W@__crt_stdio_output@@@__crt_stdio_output@@IAE_NAA_J@Z 1013e59d f i libucrt:output.obj
 0001:0013d61a       ??$extract_argument_from_va_list@H_J@?$standard_base@DV?$stream_output_adapter@D@__crt_stdio_output@@@__crt_stdio_output@@IAE_NAA_J@Z 1013e61a f i libucrt:output.obj
 0001:0013d638       ??$extract_argument_from_va_list@H_J@?$standard_base@DV?$string_output_adapter@D@__crt_stdio_output@@@__crt_stdio_output@@IAE_NAA_J@Z 1013e638 f i libucrt:output.obj
 0001:0013d656       ??$extract_argument_from_va_list@H_J@?$standard_base@_WV?$stream_output_adapter@_W@__crt_stdio_output@@@__crt_stdio_output@@IAE_NAA_J@Z 1013e656 f i libucrt:output.obj
 0001:0013d674       ??$extract_argument_from_va_list@H_J@?$standard_base@_WV?$string_output_adapter@_W@__crt_stdio_output@@@__crt_stdio_output@@IAE_NAA_J@Z 1013e674 f i libucrt:output.obj
 0001:0013d692       ??$extract_argument_from_va_list@I_J@?$positional_parameter_base@DV?$stream_output_adapter@D@__crt_stdio_output@@@__crt_stdio_output@@IAE_NAA_J@Z 1013e692 f i libucrt:output.obj
 0001:0013d718       ??$extract_argument_from_va_list@I_J@?$positional_parameter_base@DV?$string_output_adapter@D@__crt_stdio_output@@@__crt_stdio_output@@IAE_NAA_J@Z 1013e718 f i libucrt:output.obj
 0001:0013d79e       ??$extract_argument_from_va_list@I_J@?$positional_parameter_base@_WV?$stream_output_adapter@_W@__crt_stdio_output@@@__crt_stdio_output@@IAE_NAA_J@Z 1013e79e f i libucrt:output.obj
 0001:0013d824       ??$extract_argument_from_va_list@I_J@?$positional_parameter_base@_WV?$string_output_adapter@_W@__crt_stdio_output@@@__crt_stdio_output@@IAE_NAA_J@Z 1013e824 f i libucrt:output.obj
 0001:0013d8aa       ??$extract_argument_from_va_list@I_J@?$standard_base@DV?$stream_output_adapter@D@__crt_stdio_output@@@__crt_stdio_output@@IAE_NAA_J@Z 1013e8aa f i libucrt:output.obj
 0001:0013d8c8       ??$extract_argument_from_va_list@I_J@?$standard_base@DV?$string_output_adapter@D@__crt_stdio_output@@@__crt_stdio_output@@IAE_NAA_J@Z 1013e8c8 f i libucrt:output.obj
 0001:0013d8e6       ??$extract_argument_from_va_list@I_J@?$standard_base@_WV?$stream_output_adapter@_W@__crt_stdio_output@@@__crt_stdio_output@@IAE_NAA_J@Z 1013e8e6 f i libucrt:output.obj
 0001:0013d904       ??$extract_argument_from_va_list@I_J@?$standard_base@_WV?$string_output_adapter@_W@__crt_stdio_output@@@__crt_stdio_output@@IAE_NAA_J@Z 1013e904 f i libucrt:output.obj
 0001:0013d922       ??$extract_argument_from_va_list@PADPAD@?$positional_parameter_base@DV?$stream_output_adapter@D@__crt_stdio_output@@@__crt_stdio_output@@IAE_NAAPAD@Z 1013e922 f i libucrt:output.obj
 0001:0013d9a0       ??$extract_argument_from_va_list@PADPAD@?$positional_parameter_base@DV?$string_output_adapter@D@__crt_stdio_output@@@__crt_stdio_output@@IAE_NAAPAD@Z 1013e9a0 f i libucrt:output.obj
 0001:0013da1e       ??$extract_argument_from_va_list@PADPAD@?$positional_parameter_base@_WV?$stream_output_adapter@_W@__crt_stdio_output@@@__crt_stdio_output@@IAE_NAAPAD@Z 1013ea1e f i libucrt:output.obj
 0001:0013da9c       ??$extract_argument_from_va_list@PADPAD@?$positional_parameter_base@_WV?$string_output_adapter@_W@__crt_stdio_output@@@__crt_stdio_output@@IAE_NAAPAD@Z 1013ea9c f i libucrt:output.obj
 0001:0013db1a       ??$extract_argument_from_va_list@PADPAD@?$standard_base@DV?$stream_output_adapter@D@__crt_stdio_output@@@__crt_stdio_output@@IAE_NAAPAD@Z 1013eb1a f i libucrt:output.obj
 0001:0013db34       ??$extract_argument_from_va_list@PADPAD@?$standard_base@DV?$string_output_adapter@D@__crt_stdio_output@@@__crt_stdio_output@@IAE_NAAPAD@Z 1013eb34 f i libucrt:output.obj
 0001:0013db4e       ??$extract_argument_from_va_list@PADPAD@?$standard_base@_WV?$stream_output_adapter@_W@__crt_stdio_output@@@__crt_stdio_output@@IAE_NAAPAD@Z 1013eb4e f i libucrt:output.obj
 0001:0013db68       ??$extract_argument_from_va_list@PADPAD@?$standard_base@_WV?$string_output_adapter@_W@__crt_stdio_output@@@__crt_stdio_output@@IAE_NAAPAD@Z 1013eb68 f i libucrt:output.obj
 0001:0013db82       ??$extract_argument_from_va_list@PAUansi_string@?1??type_case_Z@?$output_processor@DV?$stream_output_adapter@D@__crt_stdio_output@@V?$format_validation_base@DV?$stream_output_adapter@D@__crt_stdio_output@@@2@@__crt_stdio_output@@AAE_NXZ@PAU1?1??234@AAE_NXZ@@?$standard_base@DV?$stream_output_adapter@D@__crt_stdio_output@@@__crt_stdio_output@@IAE_NAAPAUansi_string@?1??type_case_Z@?$output_processor@DV?$stream_output_adapter@D@__crt_stdio_output@@V?$format_validation_base@DV?$stream_output_adapter@D@__crt_stdio_output@@@2@@1@AAE_NXZ@@Z 1013eb82 f i libucrt:output.obj
 0001:0013db9c       ??$extract_argument_from_va_list@PAUansi_string@?1??type_case_Z@?$output_processor@DV?$stream_output_adapter@D@__crt_stdio_output@@V?$positional_parameter_base@DV?$stream_output_adapter@D@__crt_stdio_output@@@2@@__crt_stdio_output@@AAE_NXZ@PAU1?1??234@AAE_NXZ@@?$positional_parameter_base@DV?$stream_output_adapter@D@__crt_stdio_output@@@__crt_stdio_output@@IAE_NAAPAUansi_string@?1??type_case_Z@?$output_processor@DV?$stream_output_adapter@D@__crt_stdio_output@@V?$positional_parameter_base@DV?$stream_output_adapter@D@__crt_stdio_output@@@2@@1@AAE_NXZ@@Z 1013eb9c f i libucrt:output.obj
 0001:0013dc1a       ??$extract_argument_from_va_list@PAUansi_string@?1??type_case_Z@?$output_processor@DV?$stream_output_adapter@D@__crt_stdio_output@@V?$positional_parameter_base@DV?$stream_output_adapter@D@__crt_stdio_output@@@2@@__crt_stdio_output@@AAE_NXZ@PAU1?1??234@AAE_NXZ@@?$standard_base@DV?$stream_output_adapter@D@__crt_stdio_output@@@__crt_stdio_output@@IAE_NAAPAUansi_string@?1??type_case_Z@?$output_processor@DV?$stream_output_adapter@D@__crt_stdio_output@@V?$positional_parameter_base@DV?$stream_output_adapter@D@__crt_stdio_output@@@2@@1@AAE_NXZ@@Z 1013ec1a f i libucrt:output.obj
 0001:0013dc34       ??$extract_argument_from_va_list@PAUansi_string@?1??type_case_Z@?$output_processor@DV?$stream_output_adapter@D@__crt_stdio_output@@V?$standard_base@DV?$stream_output_adapter@D@__crt_stdio_output@@@2@@__crt_stdio_output@@AAE_NXZ@PAU1?1??234@AAE_NXZ@@?$standard_base@DV?$stream_output_adapter@D@__crt_stdio_output@@@__crt_stdio_output@@IAE_NAAPAUansi_string@?1??type_case_Z@?$output_processor@DV?$stream_output_adapter@D@__crt_stdio_output@@V?$standard_base@DV?$stream_output_adapter@D@__crt_stdio_output@@@2@@1@AAE_NXZ@@Z 1013ec34 f i libucrt:output.obj
 0001:0013dc4e       ??$extract_argument_from_va_list@PAUansi_string@?1??type_case_Z@?$output_processor@DV?$string_output_adapter@D@__crt_stdio_output@@V?$format_validation_base@DV?$string_output_adapter@D@__crt_stdio_output@@@2@@__crt_stdio_output@@AAE_NXZ@PAU1?1??234@AAE_NXZ@@?$standard_base@DV?$string_output_adapter@D@__crt_stdio_output@@@__crt_stdio_output@@IAE_NAAPAUansi_string@?1??type_case_Z@?$output_processor@DV?$string_output_adapter@D@__crt_stdio_output@@V?$format_validation_base@DV?$string_output_adapter@D@__crt_stdio_output@@@2@@1@AAE_NXZ@@Z 1013ec4e f i libucrt:output.obj
 0001:0013dc68       ??$extract_argument_from_va_list@PAUansi_string@?1??type_case_Z@?$output_processor@DV?$string_output_adapter@D@__crt_stdio_output@@V?$positional_parameter_base@DV?$string_output_adapter@D@__crt_stdio_output@@@2@@__crt_stdio_output@@AAE_NXZ@PAU1?1??234@AAE_NXZ@@?$positional_parameter_base@DV?$string_output_adapter@D@__crt_stdio_output@@@__crt_stdio_output@@IAE_NAAPAUansi_string@?1??type_case_Z@?$output_processor@DV?$string_output_adapter@D@__crt_stdio_output@@V?$positional_parameter_base@DV?$string_output_adapter@D@__crt_stdio_output@@@2@@1@AAE_NXZ@@Z 1013ec68 f i libucrt:output.obj
 0001:0013dce6       ??$extract_argument_from_va_list@PAUansi_string@?1??type_case_Z@?$output_processor@DV?$string_output_adapter@D@__crt_stdio_output@@V?$positional_parameter_base@DV?$string_output_adapter@D@__crt_stdio_output@@@2@@__crt_stdio_output@@AAE_NXZ@PAU1?1??234@AAE_NXZ@@?$standard_base@DV?$string_output_adapter@D@__crt_stdio_output@@@__crt_stdio_output@@IAE_NAAPAUansi_string@?1??type_case_Z@?$output_processor@DV?$string_output_adapter@D@__crt_stdio_output@@V?$positional_parameter_base@DV?$string_output_adapter@D@__crt_stdio_output@@@2@@1@AAE_NXZ@@Z 1013ece6 f i libucrt:output.obj
 0001:0013dd00       ??$extract_argument_from_va_list@PAUansi_string@?1??type_case_Z@?$output_processor@DV?$string_output_adapter@D@__crt_stdio_output@@V?$standard_base@DV?$string_output_adapter@D@__crt_stdio_output@@@2@@__crt_stdio_output@@AAE_NXZ@PAU1?1??234@AAE_NXZ@@?$standard_base@DV?$string_output_adapter@D@__crt_stdio_output@@@__crt_stdio_output@@IAE_NAAPAUansi_string@?1??type_case_Z@?$output_processor@DV?$string_output_adapter@D@__crt_stdio_output@@V?$standard_base@DV?$string_output_adapter@D@__crt_stdio_output@@@2@@1@AAE_NXZ@@Z 1013ed00 f i libucrt:output.obj
 0001:0013dd1a       ??$extract_argument_from_va_list@PAUansi_string@?1??type_case_Z@?$output_processor@_WV?$stream_output_adapter@_W@__crt_stdio_output@@V?$format_validation_base@_WV?$stream_output_adapter@_W@__crt_stdio_output@@@2@@__crt_stdio_output@@AAE_NXZ@PAU1?1??234@AAE_NXZ@@?$standard_base@_WV?$stream_output_adapter@_W@__crt_stdio_output@@@__crt_stdio_output@@IAE_NAAPAUansi_string@?1??type_case_Z@?$output_processor@_WV?$stream_output_adapter@_W@__crt_stdio_output@@V?$format_validation_base@_WV?$stream_output_adapter@_W@__crt_stdio_output@@@2@@1@AAE_NXZ@@Z 1013ed1a f i libucrt:output.obj
 0001:0013dd34       ??$extract_argument_from_va_list@PAUansi_string@?1??type_case_Z@?$output_processor@_WV?$stream_output_adapter@_W@__crt_stdio_output@@V?$positional_parameter_base@_WV?$stream_output_adapter@_W@__crt_stdio_output@@@2@@__crt_stdio_output@@AAE_NXZ@PAU1?1??234@AAE_NXZ@@?$positional_parameter_base@_WV?$stream_output_adapter@_W@__crt_stdio_output@@@__crt_stdio_output@@IAE_NAAPAUansi_string@?1??type_case_Z@?$output_processor@_WV?$stream_output_adapter@_W@__crt_stdio_output@@V?$positional_parameter_base@_WV?$stream_output_adapter@_W@__crt_stdio_output@@@2@@1@AAE_NXZ@@Z 1013ed34 f i libucrt:output.obj
 0001:0013ddb2       ??$extract_argument_from_va_list@PAUansi_string@?1??type_case_Z@?$output_processor@_WV?$stream_output_adapter@_W@__crt_stdio_output@@V?$positional_parameter_base@_WV?$stream_output_adapter@_W@__crt_stdio_output@@@2@@__crt_stdio_output@@AAE_NXZ@PAU1?1??234@AAE_NXZ@@?$standard_base@_WV?$stream_output_adapter@_W@__crt_stdio_output@@@__crt_stdio_output@@IAE_NAAPAUansi_string@?1??type_case_Z@?$output_processor@_WV?$stream_output_adapter@_W@__crt_stdio_output@@V?$positional_parameter_base@_WV?$stream_output_adapter@_W@__crt_stdio_output@@@2@@1@AAE_NXZ@@Z 1013edb2 f i libucrt:output.obj
 0001:0013ddcc       ??$extract_argument_from_va_list@PAUansi_string@?1??type_case_Z@?$output_processor@_WV?$stream_output_adapter@_W@__crt_stdio_output@@V?$standard_base@_WV?$stream_output_adapter@_W@__crt_stdio_output@@@2@@__crt_stdio_output@@AAE_NXZ@PAU1?1??234@AAE_NXZ@@?$standard_base@_WV?$stream_output_adapter@_W@__crt_stdio_output@@@__crt_stdio_output@@IAE_NAAPAUansi_string@?1??type_case_Z@?$output_processor@_WV?$stream_output_adapter@_W@__crt_stdio_output@@V?$standard_base@_WV?$stream_output_adapter@_W@__crt_stdio_output@@@2@@1@AAE_NXZ@@Z 1013edcc f i libucrt:output.obj
 0001:0013dde6       ??$extract_argument_from_va_list@PAUansi_string@?1??type_case_Z@?$output_processor@_WV?$string_output_adapter@_W@__crt_stdio_output@@V?$format_validation_base@_WV?$string_output_adapter@_W@__crt_stdio_output@@@2@@__crt_stdio_output@@AAE_NXZ@PAU1?1??234@AAE_NXZ@@?$standard_base@_WV?$string_output_adapter@_W@__crt_stdio_output@@@__crt_stdio_output@@IAE_NAAPAUansi_string@?1??type_case_Z@?$output_processor@_WV?$string_output_adapter@_W@__crt_stdio_output@@V?$format_validation_base@_WV?$string_output_adapter@_W@__crt_stdio_output@@@2@@1@AAE_NXZ@@Z 1013ede6 f i libucrt:output.obj
 0001:0013de00       ??$extract_argument_from_va_list@PAUansi_string@?1??type_case_Z@?$output_processor@_WV?$string_output_adapter@_W@__crt_stdio_output@@V?$positional_parameter_base@_WV?$string_output_adapter@_W@__crt_stdio_output@@@2@@__crt_stdio_output@@AAE_NXZ@PAU1?1??234@AAE_NXZ@@?$positional_parameter_base@_WV?$string_output_adapter@_W@__crt_stdio_output@@@__crt_stdio_output@@IAE_NAAPAUansi_string@?1??type_case_Z@?$output_processor@_WV?$string_output_adapter@_W@__crt_stdio_output@@V?$positional_parameter_base@_WV?$string_output_adapter@_W@__crt_stdio_output@@@2@@1@AAE_NXZ@@Z 1013ee00 f i libucrt:output.obj
 0001:0013de7e       ??$extract_argument_from_va_list@PAUansi_string@?1??type_case_Z@?$output_processor@_WV?$string_output_adapter@_W@__crt_stdio_output@@V?$positional_parameter_base@_WV?$string_output_adapter@_W@__crt_stdio_output@@@2@@__crt_stdio_output@@AAE_NXZ@PAU1?1??234@AAE_NXZ@@?$standard_base@_WV?$string_output_adapter@_W@__crt_stdio_output@@@__crt_stdio_output@@IAE_NAAPAUansi_string@?1??type_case_Z@?$output_processor@_WV?$string_output_adapter@_W@__crt_stdio_output@@V?$positional_parameter_base@_WV?$string_output_adapter@_W@__crt_stdio_output@@@2@@1@AAE_NXZ@@Z 1013ee7e f i libucrt:output.obj
 0001:0013de98       ??$extract_argument_from_va_list@PAUansi_string@?1??type_case_Z@?$output_processor@_WV?$string_output_adapter@_W@__crt_stdio_output@@V?$standard_base@_WV?$string_output_adapter@_W@__crt_stdio_output@@@2@@__crt_stdio_output@@AAE_NXZ@PAU1?1??234@AAE_NXZ@@?$standard_base@_WV?$string_output_adapter@_W@__crt_stdio_output@@@__crt_stdio_output@@IAE_NAAPAUansi_string@?1??type_case_Z@?$output_processor@_WV?$string_output_adapter@_W@__crt_stdio_output@@V?$standard_base@_WV?$string_output_adapter@_W@__crt_stdio_output@@@2@@1@AAE_NXZ@@Z 1013ee98 f i libucrt:output.obj
 0001:0013deb2       ??$extract_argument_from_va_list@PAXPAX@?$positional_parameter_base@DV?$stream_output_adapter@D@__crt_stdio_output@@@__crt_stdio_output@@IAE_NAAPAX@Z 1013eeb2 f i libucrt:output.obj
 0001:0013df30       ??$extract_argument_from_va_list@PAXPAX@?$positional_parameter_base@DV?$string_output_adapter@D@__crt_stdio_output@@@__crt_stdio_output@@IAE_NAAPAX@Z 1013ef30 f i libucrt:output.obj
 0001:0013dfae       ??$extract_argument_from_va_list@PAXPAX@?$positional_parameter_base@_WV?$stream_output_adapter@_W@__crt_stdio_output@@@__crt_stdio_output@@IAE_NAAPAX@Z 1013efae f i libucrt:output.obj
 0001:0013e02c       ??$extract_argument_from_va_list@PAXPAX@?$positional_parameter_base@_WV?$string_output_adapter@_W@__crt_stdio_output@@@__crt_stdio_output@@IAE_NAAPAX@Z 1013f02c f i libucrt:output.obj
 0001:0013e0aa       ??$extract_argument_from_va_list@PAXPAX@?$standard_base@DV?$stream_output_adapter@D@__crt_stdio_output@@@__crt_stdio_output@@IAE_NAAPAX@Z 1013f0aa f i libucrt:output.obj
 0001:0013e0c4       ??$extract_argument_from_va_list@PAXPAX@?$standard_base@DV?$string_output_adapter@D@__crt_stdio_output@@@__crt_stdio_output@@IAE_NAAPAX@Z 1013f0c4 f i libucrt:output.obj
 0001:0013e0de       ??$extract_argument_from_va_list@PAXPAX@?$standard_base@_WV?$stream_output_adapter@_W@__crt_stdio_output@@@__crt_stdio_output@@IAE_NAAPAX@Z 1013f0de f i libucrt:output.obj
 0001:0013e0f8       ??$extract_argument_from_va_list@PAXPAX@?$standard_base@_WV?$string_output_adapter@_W@__crt_stdio_output@@@__crt_stdio_output@@IAE_NAAPAX@Z 1013f0f8 f i libucrt:output.obj
 0001:0013e112       ??$extract_argument_from_va_list@U_CRT_DOUBLE@@U1@@?$positional_parameter_base@DV?$stream_output_adapter@D@__crt_stdio_output@@@__crt_stdio_output@@IAE_NAAU_CRT_DOUBLE@@@Z 1013f112 f i libucrt:output.obj
 0001:0013e1a0       ??$extract_argument_from_va_list@U_CRT_DOUBLE@@U1@@?$positional_parameter_base@DV?$string_output_adapter@D@__crt_stdio_output@@@__crt_stdio_output@@IAE_NAAU_CRT_DOUBLE@@@Z 1013f1a0 f i libucrt:output.obj
 0001:0013e22e       ??$extract_argument_from_va_list@U_CRT_DOUBLE@@U1@@?$positional_parameter_base@_WV?$stream_output_adapter@_W@__crt_stdio_output@@@__crt_stdio_output@@IAE_NAAU_CRT_DOUBLE@@@Z 1013f22e f i libucrt:output.obj
 0001:0013e2bc       ??$extract_argument_from_va_list@U_CRT_DOUBLE@@U1@@?$positional_parameter_base@_WV?$string_output_adapter@_W@__crt_stdio_output@@@__crt_stdio_output@@IAE_NAAU_CRT_DOUBLE@@@Z 1013f2bc f i libucrt:output.obj
 0001:0013e34a       ??$extract_argument_from_va_list@U_CRT_DOUBLE@@U1@@?$standard_base@DV?$stream_output_adapter@D@__crt_stdio_output@@@__crt_stdio_output@@IAE_NAAU_CRT_DOUBLE@@@Z 1013f34a f i libucrt:output.obj
 0001:0013e36a       ??$extract_argument_from_va_list@U_CRT_DOUBLE@@U1@@?$standard_base@DV?$string_output_adapter@D@__crt_stdio_output@@@__crt_stdio_output@@IAE_NAAU_CRT_DOUBLE@@@Z 1013f36a f i libucrt:output.obj
 0001:0013e38a       ??$extract_argument_from_va_list@U_CRT_DOUBLE@@U1@@?$standard_base@_WV?$stream_output_adapter@_W@__crt_stdio_output@@@__crt_stdio_output@@IAE_NAAU_CRT_DOUBLE@@@Z 1013f38a f i libucrt:output.obj
 0001:0013e3aa       ??$extract_argument_from_va_list@U_CRT_DOUBLE@@U1@@?$standard_base@_WV?$string_output_adapter@_W@__crt_stdio_output@@@__crt_stdio_output@@IAE_NAAU_CRT_DOUBLE@@@Z 1013f3aa f i libucrt:output.obj
 0001:0013e3ca       ??$extract_argument_from_va_list@_J_J@?$positional_parameter_base@DV?$stream_output_adapter@D@__crt_stdio_output@@@__crt_stdio_output@@IAE_NAA_J@Z 1013f3ca f i libucrt:output.obj
 0001:0013e458       ??$extract_argument_from_va_list@_J_J@?$positional_parameter_base@DV?$string_output_adapter@D@__crt_stdio_output@@@__crt_stdio_output@@IAE_NAA_J@Z 1013f458 f i libucrt:output.obj
 0001:0013e4e6       ??$extract_argument_from_va_list@_J_J@?$positional_parameter_base@_WV?$stream_output_adapter@_W@__crt_stdio_output@@@__crt_stdio_output@@IAE_NAA_J@Z 1013f4e6 f i libucrt:output.obj
 0001:0013e574       ??$extract_argument_from_va_list@_J_J@?$positional_parameter_base@_WV?$string_output_adapter@_W@__crt_stdio_output@@@__crt_stdio_output@@IAE_NAA_J@Z 1013f574 f i libucrt:output.obj
 0001:0013e602       ??$extract_argument_from_va_list@_J_J@?$standard_base@DV?$stream_output_adapter@D@__crt_stdio_output@@@__crt_stdio_output@@IAE_NAA_J@Z 1013f602 f i libucrt:output.obj
 0001:0013e622       ??$extract_argument_from_va_list@_J_J@?$standard_base@DV?$string_output_adapter@D@__crt_stdio_output@@@__crt_stdio_output@@IAE_NAA_J@Z 1013f622 f i libucrt:output.obj
 0001:0013e642       ??$extract_argument_from_va_list@_J_J@?$standard_base@_WV?$stream_output_adapter@_W@__crt_stdio_output@@@__crt_stdio_output@@IAE_NAA_J@Z 1013f642 f i libucrt:output.obj
 0001:0013e662       ??$extract_argument_from_va_list@_J_J@?$standard_base@_WV?$string_output_adapter@_W@__crt_stdio_output@@@__crt_stdio_output@@IAE_NAA_J@Z 1013f662 f i libucrt:output.obj
 0001:0013e682       ??$extract_argument_from_va_list@_K_J@?$positional_parameter_base@DV?$stream_output_adapter@D@__crt_stdio_output@@@__crt_stdio_output@@IAE_NAA_J@Z 1013f682 f i libucrt:output.obj
 0001:0013e710       ??$extract_argument_from_va_list@_K_J@?$positional_parameter_base@DV?$string_output_adapter@D@__crt_stdio_output@@@__crt_stdio_output@@IAE_NAA_J@Z 1013f710 f i libucrt:output.obj
 0001:0013e79e       ??$extract_argument_from_va_list@_K_J@?$positional_parameter_base@_WV?$stream_output_adapter@_W@__crt_stdio_output@@@__crt_stdio_output@@IAE_NAA_J@Z 1013f79e f i libucrt:output.obj
 0001:0013e82c       ??$extract_argument_from_va_list@_K_J@?$positional_parameter_base@_WV?$string_output_adapter@_W@__crt_stdio_output@@@__crt_stdio_output@@IAE_NAA_J@Z 1013f82c f i libucrt:output.obj
 0001:0013e8ba       ??$extract_argument_from_va_list@_K_J@?$standard_base@DV?$stream_output_adapter@D@__crt_stdio_output@@@__crt_stdio_output@@IAE_NAA_J@Z 1013f8ba f i libucrt:output.obj
 0001:0013e8da       ??$extract_argument_from_va_list@_K_J@?$standard_base@DV?$string_output_adapter@D@__crt_stdio_output@@@__crt_stdio_output@@IAE_NAA_J@Z 1013f8da f i libucrt:output.obj
 0001:0013e8fa       ??$extract_argument_from_va_list@_K_J@?$standard_base@_WV?$stream_output_adapter@_W@__crt_stdio_output@@@__crt_stdio_output@@IAE_NAA_J@Z 1013f8fa f i libucrt:output.obj
 0001:0013e91a       ??$extract_argument_from_va_list@_K_J@?$standard_base@_WV?$string_output_adapter@_W@__crt_stdio_output@@@__crt_stdio_output@@IAE_NAA_J@Z 1013f91a f i libucrt:output.obj
 0001:0013e93a       ??$extract_argument_from_va_list@_W_W@?$positional_parameter_base@DV?$stream_output_adapter@D@__crt_stdio_output@@@__crt_stdio_output@@IAE_NAA_W@Z 1013f93a f i libucrt:output.obj
 0001:0013e9bc       ??$extract_argument_from_va_list@_W_W@?$positional_parameter_base@DV?$string_output_adapter@D@__crt_stdio_output@@@__crt_stdio_output@@IAE_NAA_W@Z 1013f9bc f i libucrt:output.obj
 0001:0013ea3e       ??$extract_argument_from_va_list@_W_W@?$positional_parameter_base@_WV?$stream_output_adapter@_W@__crt_stdio_output@@@__crt_stdio_output@@IAE_NAA_W@Z 1013fa3e f i libucrt:output.obj
 0001:0013eac0       ??$extract_argument_from_va_list@_W_W@?$positional_parameter_base@_WV?$string_output_adapter@_W@__crt_stdio_output@@@__crt_stdio_output@@IAE_NAA_W@Z 1013fac0 f i libucrt:output.obj
 0001:0013eb42       ??$extract_argument_from_va_list@_W_W@?$standard_base@DV?$stream_output_adapter@D@__crt_stdio_output@@@__crt_stdio_output@@IAE_NAA_W@Z 1013fb42 f i libucrt:output.obj
 0001:0013eb5e       ??$extract_argument_from_va_list@_W_W@?$standard_base@DV?$string_output_adapter@D@__crt_stdio_output@@@__crt_stdio_output@@IAE_NAA_W@Z 1013fb5e f i libucrt:output.obj
 0001:0013eb7a       ??$extract_argument_from_va_list@_W_W@?$standard_base@_WV?$stream_output_adapter@_W@__crt_stdio_output@@@__crt_stdio_output@@IAE_NAA_W@Z 1013fb7a f i libucrt:output.obj
 0001:0013eb96       ??$extract_argument_from_va_list@_W_W@?$standard_base@_WV?$string_output_adapter@_W@__crt_stdio_output@@@__crt_stdio_output@@IAE_NAA_W@Z 1013fb96 f i libucrt:output.obj
 0001:0013ebb2       ??$get_parameter_type@D@?$positional_parameter_base@DV?$stream_output_adapter@D@__crt_stdio_output@@@__crt_stdio_output@@CA?AW4parameter_type@01@PAD@Z 1013fbb2 f i libucrt:output.obj
 0001:0013ebb6       ??$get_parameter_type@D@?$positional_parameter_base@DV?$string_output_adapter@D@__crt_stdio_output@@@__crt_stdio_output@@CA?AW4parameter_type@01@PAD@Z 1013fbb6 f i libucrt:output.obj
 0001:0013ebba       ??$get_parameter_type@D@?$positional_parameter_base@_WV?$stream_output_adapter@_W@__crt_stdio_output@@@__crt_stdio_output@@CA?AW4parameter_type@01@PAD@Z 1013fbba f i libucrt:output.obj
 0001:0013ebbe       ??$get_parameter_type@D@?$positional_parameter_base@_WV?$string_output_adapter@_W@__crt_stdio_output@@@__crt_stdio_output@@CA?AW4parameter_type@01@PAD@Z 1013fbbe f i libucrt:output.obj
 0001:0013ebc2       ??$get_parameter_type@Uansi_string@?1??type_case_Z@?$output_processor@DV?$stream_output_adapter@D@__crt_stdio_output@@V?$positional_parameter_base@DV?$stream_output_adapter@D@__crt_stdio_output@@@2@@__crt_stdio_output@@AAE_NXZ@@?$positional_parameter_base@DV?$stream_output_adapter@D@__crt_stdio_output@@@__crt_stdio_output@@CA?AW4parameter_type@01@PAUansi_string@?1??type_case_Z@?$output_processor@DV?$stream_output_adapter@D@__crt_stdio_output@@V?$positional_parameter_base@DV?$stream_output_adapter@D@__crt_stdio_output@@@2@@1@AAE_NXZ@@Z 1013fbc2 f i libucrt:output.obj
 0001:0013ebc6       ??$get_parameter_type@Uansi_string@?1??type_case_Z@?$output_processor@DV?$string_output_adapter@D@__crt_stdio_output@@V?$positional_parameter_base@DV?$string_output_adapter@D@__crt_stdio_output@@@2@@__crt_stdio_output@@AAE_NXZ@@?$positional_parameter_base@DV?$string_output_adapter@D@__crt_stdio_output@@@__crt_stdio_output@@CA?AW4parameter_type@01@PAUansi_string@?1??type_case_Z@?$output_processor@DV?$string_output_adapter@D@__crt_stdio_output@@V?$positional_parameter_base@DV?$string_output_adapter@D@__crt_stdio_output@@@2@@1@AAE_NXZ@@Z 1013fbc6 f i libucrt:output.obj
 0001:0013ebca       ??$get_parameter_type@Uansi_string@?1??type_case_Z@?$output_processor@_WV?$stream_output_adapter@_W@__crt_stdio_output@@V?$positional_parameter_base@_WV?$stream_output_adapter@_W@__crt_stdio_output@@@2@@__crt_stdio_output@@AAE_NXZ@@?$positional_parameter_base@_WV?$stream_output_adapter@_W@__crt_stdio_output@@@__crt_stdio_output@@CA?AW4parameter_type@01@PAUansi_string@?1??type_case_Z@?$output_processor@_WV?$stream_output_adapter@_W@__crt_stdio_output@@V?$positional_parameter_base@_WV?$stream_output_adapter@_W@__crt_stdio_output@@@2@@1@AAE_NXZ@@Z 1013fbca f i libucrt:output.obj
 0001:0013ebce       ??$get_parameter_type@Uansi_string@?1??type_case_Z@?$output_processor@_WV?$string_output_adapter@_W@__crt_stdio_output@@V?$positional_parameter_base@_WV?$string_output_adapter@_W@__crt_stdio_output@@@2@@__crt_stdio_output@@AAE_NXZ@@?$positional_parameter_base@_WV?$string_output_adapter@_W@__crt_stdio_output@@@__crt_stdio_output@@CA?AW4parameter_type@01@PAUansi_string@?1??type_case_Z@?$output_processor@_WV?$string_output_adapter@_W@__crt_stdio_output@@V?$positional_parameter_base@_WV?$string_output_adapter@_W@__crt_stdio_output@@@2@@1@AAE_NXZ@@Z 1013fbce f i libucrt:output.obj
 0001:0013ebd2       ??$get_parameter_type@X@?$positional_parameter_base@DV?$stream_output_adapter@D@__crt_stdio_output@@@__crt_stdio_output@@CA?AW4parameter_type@01@PAX@Z 1013fbd2 f i libucrt:output.obj
 0001:0013ebd6       ??$get_parameter_type@X@?$positional_parameter_base@DV?$string_output_adapter@D@__crt_stdio_output@@@__crt_stdio_output@@CA?AW4parameter_type@01@PAX@Z 1013fbd6 f i libucrt:output.obj
 0001:0013ebda       ??$get_parameter_type@X@?$positional_parameter_base@_WV?$stream_output_adapter@_W@__crt_stdio_output@@@__crt_stdio_output@@CA?AW4parameter_type@01@PAX@Z 1013fbda f i libucrt:output.obj
 0001:0013ebde       ??$get_parameter_type@X@?$positional_parameter_base@_WV?$string_output_adapter@_W@__crt_stdio_output@@@__crt_stdio_output@@CA?AW4parameter_type@01@PAX@Z 1013fbde f i libucrt:output.obj
 0001:0013ebe2       ??$is_character_specifier@D@?$positional_parameter_base@DV?$stream_output_adapter@D@__crt_stdio_output@@@__crt_stdio_output@@CA_ND@Z 1013fbe2 f i libucrt:output.obj
 0001:0013ebfb       ??$is_character_specifier@D@?$positional_parameter_base@DV?$string_output_adapter@D@__crt_stdio_output@@@__crt_stdio_output@@CA_ND@Z 1013fbfb f i libucrt:output.obj
 0001:0013ec14       ??$is_character_specifier@_W@?$positional_parameter_base@_WV?$stream_output_adapter@_W@__crt_stdio_output@@@__crt_stdio_output@@CA_N_W@Z 1013fc14 f i libucrt:output.obj
 0001:0013ec30       ??$is_character_specifier@_W@?$positional_parameter_base@_WV?$string_output_adapter@_W@__crt_stdio_output@@@__crt_stdio_output@@CA_N_W@Z 1013fc30 f i libucrt:output.obj
 0001:0013ec4c       ??$is_integral_specifier@D@?$positional_parameter_base@DV?$stream_output_adapter@D@__crt_stdio_output@@@__crt_stdio_output@@CA_ND@Z 1013fc4c f i libucrt:output.obj
 0001:0013ec79       ??$is_integral_specifier@D@?$positional_parameter_base@DV?$string_output_adapter@D@__crt_stdio_output@@@__crt_stdio_output@@CA_ND@Z 1013fc79 f i libucrt:output.obj
 0001:0013eca6       ??$is_integral_specifier@_W@?$positional_parameter_base@_WV?$stream_output_adapter@_W@__crt_stdio_output@@@__crt_stdio_output@@CA_N_W@Z 1013fca6 f i libucrt:output.obj
 0001:0013ece2       ??$is_integral_specifier@_W@?$positional_parameter_base@_WV?$string_output_adapter@_W@__crt_stdio_output@@@__crt_stdio_output@@CA_N_W@Z 1013fce2 f i libucrt:output.obj
 0001:0013ed1e       ??$is_pointer_specifier@D@?$positional_parameter_base@DV?$stream_output_adapter@D@__crt_stdio_output@@@__crt_stdio_output@@CA_ND@Z 1013fd1e f i libucrt:output.obj
 0001:0013ed2e       ??$is_pointer_specifier@D@?$positional_parameter_base@DV?$string_output_adapter@D@__crt_stdio_output@@@__crt_stdio_output@@CA_ND@Z 1013fd2e f i libucrt:output.obj
 0001:0013ed3e       ??$is_pointer_specifier@_W@?$positional_parameter_base@_WV?$stream_output_adapter@_W@__crt_stdio_output@@@__crt_stdio_output@@CA_N_W@Z 1013fd3e f i libucrt:output.obj
 0001:0013ed4f       ??$is_pointer_specifier@_W@?$positional_parameter_base@_WV?$string_output_adapter@_W@__crt_stdio_output@@@__crt_stdio_output@@CA_N_W@Z 1013fd4f f i libucrt:output.obj
 0001:0013ed60       ??$is_string_specifier@D@?$positional_parameter_base@DV?$stream_output_adapter@D@__crt_stdio_output@@@__crt_stdio_output@@CA_ND@Z 1013fd60 f i libucrt:output.obj
 0001:0013ed79       ??$is_string_specifier@D@?$positional_parameter_base@DV?$string_output_adapter@D@__crt_stdio_output@@@__crt_stdio_output@@CA_ND@Z 1013fd79 f i libucrt:output.obj
 0001:0013ed92       ??$is_string_specifier@_W@?$positional_parameter_base@_WV?$stream_output_adapter@_W@__crt_stdio_output@@@__crt_stdio_output@@CA_N_W@Z 1013fd92 f i libucrt:output.obj
 0001:0013edae       ??$is_string_specifier@_W@?$positional_parameter_base@_WV?$string_output_adapter@_W@__crt_stdio_output@@@__crt_stdio_output@@CA_N_W@Z 1013fdae f i libucrt:output.obj
 0001:0013edca       ??$is_wide_character_specifier@D@__crt_stdio_output@@YA_N_KDW4length_modifier@0@@Z 1013fdca f i libucrt:output.obj
 0001:0013ee0a       ??$is_wide_character_specifier@_W@__crt_stdio_output@@YA_N_K_WW4length_modifier@0@@Z 1013fe0a f i libucrt:output.obj
 0001:0013ee59       ??$peek_va_arg@C@__crt_stdio_output@@YACPAD@Z 1013fe59 f i libucrt:output.obj
 0001:0013ee65       ??$peek_va_arg@E@__crt_stdio_output@@YAEPAD@Z 1013fe65 f i libucrt:output.obj
 0001:0013ee71       ??$peek_va_arg@F@__crt_stdio_output@@YAFPAD@Z 1013fe71 f i libucrt:output.obj
 0001:0013ee7e       ??$peek_va_arg@G@__crt_stdio_output@@YAGPAD@Z 1013fe7e f i libucrt:output.obj
 0001:0013ee8b       ??$peek_va_arg@H@__crt_stdio_output@@YAHPAD@Z 1013fe8b f i libucrt:output.obj
 0001:0013ee97       ??$peek_va_arg@I@__crt_stdio_output@@YAIPAD@Z 1013fe97 f i libucrt:output.obj
 0001:0013eea3       ??$peek_va_arg@PAD@__crt_stdio_output@@YAPADPAD@Z 1013fea3 f i libucrt:output.obj
 0001:0013eeaf       ??$peek_va_arg@PAUansi_string@?1??type_case_Z@?$output_processor@DV?$stream_output_adapter@D@__crt_stdio_output@@V?$positional_parameter_base@DV?$stream_output_adapter@D@__crt_stdio_output@@@2@@__crt_stdio_output@@AAE_NXZ@@__crt_stdio_output@@YAPAUansi_string@?1??type_case_Z@?$output_processor@DV?$stream_output_adapter@D@__crt_stdio_output@@V?$positional_parameter_base@DV?$stream_output_adapter@D@__crt_stdio_output@@@2@@0@AAE_NXZ@PAD@Z 1013feaf f i libucrt:output.obj
 0001:0013eebb       ??$peek_va_arg@PAUansi_string@?1??type_case_Z@?$output_processor@DV?$string_output_adapter@D@__crt_stdio_output@@V?$positional_parameter_base@DV?$string_output_adapter@D@__crt_stdio_output@@@2@@__crt_stdio_output@@AAE_NXZ@@__crt_stdio_output@@YAPAUansi_string@?1??type_case_Z@?$output_processor@DV?$string_output_adapter@D@__crt_stdio_output@@V?$positional_parameter_base@DV?$string_output_adapter@D@__crt_stdio_output@@@2@@0@AAE_NXZ@PAD@Z 1013febb f i libucrt:output.obj
 0001:0013eec7       ??$peek_va_arg@PAUansi_string@?1??type_case_Z@?$output_processor@_WV?$stream_output_adapter@_W@__crt_stdio_output@@V?$positional_parameter_base@_WV?$stream_output_adapter@_W@__crt_stdio_output@@@2@@__crt_stdio_output@@AAE_NXZ@@__crt_stdio_output@@YAPAUansi_string@?1??type_case_Z@?$output_processor@_WV?$stream_output_adapter@_W@__crt_stdio_output@@V?$positional_parameter_base@_WV?$stream_output_adapter@_W@__crt_stdio_output@@@2@@0@AAE_NXZ@PAD@Z 1013fec7 f i libucrt:output.obj
 0001:0013eed3       ??$peek_va_arg@PAUansi_string@?1??type_case_Z@?$output_processor@_WV?$string_output_adapter@_W@__crt_stdio_output@@V?$positional_parameter_base@_WV?$string_output_adapter@_W@__crt_stdio_output@@@2@@__crt_stdio_output@@AAE_NXZ@@__crt_stdio_output@@YAPAUansi_string@?1??type_case_Z@?$output_processor@_WV?$string_output_adapter@_W@__crt_stdio_output@@V?$positional_parameter_base@_WV?$string_output_adapter@_W@__crt_stdio_output@@@2@@0@AAE_NXZ@PAD@Z 1013fed3 f i libucrt:output.obj
 0001:0013eedf       ??$peek_va_arg@PAX@__crt_stdio_output@@YAPAXPAD@Z 1013fedf f i libucrt:output.obj
 0001:0013eeeb       ??$peek_va_arg@U_CRT_DOUBLE@@@__crt_stdio_output@@YA?AU_CRT_DOUBLE@@PAD@Z 1013feeb f i libucrt:output.obj
 0001:0013eefa       ??$peek_va_arg@_J@__crt_stdio_output@@YA_JPAD@Z 1013fefa f i libucrt:output.obj
 0001:0013ef09       ??$peek_va_arg@_K@__crt_stdio_output@@YA_KPAD@Z 1013ff09 f i libucrt:output.obj
 0001:0013ef18       ??$peek_va_arg@_W@__crt_stdio_output@@YA_WPAD@Z 1013ff18 f i libucrt:output.obj
 0001:0013ef25       ??$puttc_nolock@ABDPAU_iobuf@@@?$__crt_char_traits@D@@SAHABD$$QAPAU_iobuf@@@Z 1013ff25 f i libucrt:output.obj
 0001:0013ef3f       ??$puttc_nolock@AB_WPAU_iobuf@@@?$__crt_char_traits@_W@@SAGAB_W$$QAPAU_iobuf@@@Z 1013ff3f f i libucrt:output.obj
 0001:0013ef59       ??$read_va_arg@C@__crt_stdio_output@@YACAAPAD@Z 1013ff59 f i libucrt:output.obj
 0001:0013ef6b       ??$read_va_arg@E@__crt_stdio_output@@YAEAAPAD@Z 1013ff6b f i libucrt:output.obj
 0001:0013ef7d       ??$read_va_arg@F@__crt_stdio_output@@YAFAAPAD@Z 1013ff7d f i libucrt:output.obj
 0001:0013ef90       ??$read_va_arg@G@__crt_stdio_output@@YAGAAPAD@Z 1013ff90 f i libucrt:output.obj
 0001:0013efa3       ??$read_va_arg@H@__crt_stdio_output@@YAHAAPAD@Z 1013ffa3 f i libucrt:output.obj
 0001:0013efb5       ??$read_va_arg@I@__crt_stdio_output@@YAIAAPAD@Z 1013ffb5 f i libucrt:output.obj
 0001:0013efc7       ??$read_va_arg@PAD@__crt_stdio_output@@YAPADAAPAD@Z 1013ffc7 f i libucrt:output.obj
 0001:0013efd9       ??$read_va_arg@PAUansi_string@?1??type_case_Z@?$output_processor@DV?$stream_output_adapter@D@__crt_stdio_output@@V?$format_validation_base@DV?$stream_output_adapter@D@__crt_stdio_output@@@2@@__crt_stdio_output@@AAE_NXZ@@__crt_stdio_output@@YAPAUansi_string@?1??type_case_Z@?$output_processor@DV?$stream_output_adapter@D@__crt_stdio_output@@V?$format_validation_base@DV?$stream_output_adapter@D@__crt_stdio_output@@@2@@0@AAE_NXZ@AAPAD@Z 1013ffd9 f i libucrt:output.obj
 0001:0013efeb       ??$read_va_arg@PAUansi_string@?1??type_case_Z@?$output_processor@DV?$stream_output_adapter@D@__crt_stdio_output@@V?$positional_parameter_base@DV?$stream_output_adapter@D@__crt_stdio_output@@@2@@__crt_stdio_output@@AAE_NXZ@@__crt_stdio_output@@YAPAUansi_string@?1??type_case_Z@?$output_processor@DV?$stream_output_adapter@D@__crt_stdio_output@@V?$positional_parameter_base@DV?$stream_output_adapter@D@__crt_stdio_output@@@2@@0@AAE_NXZ@AAPAD@Z 1013ffeb f i libucrt:output.obj
 0001:0013effd       ??$read_va_arg@PAUansi_string@?1??type_case_Z@?$output_processor@DV?$stream_output_adapter@D@__crt_stdio_output@@V?$standard_base@DV?$stream_output_adapter@D@__crt_stdio_output@@@2@@__crt_stdio_output@@AAE_NXZ@@__crt_stdio_output@@YAPAUansi_string@?1??type_case_Z@?$output_processor@DV?$stream_output_adapter@D@__crt_stdio_output@@V?$standard_base@DV?$stream_output_adapter@D@__crt_stdio_output@@@2@@0@AAE_NXZ@AAPAD@Z 1013fffd f i libucrt:output.obj
 0001:0013f00f       ??$read_va_arg@PAUansi_string@?1??type_case_Z@?$output_processor@DV?$string_output_adapter@D@__crt_stdio_output@@V?$format_validation_base@DV?$string_output_adapter@D@__crt_stdio_output@@@2@@__crt_stdio_output@@AAE_NXZ@@__crt_stdio_output@@YAPAUansi_string@?1??type_case_Z@?$output_processor@DV?$string_output_adapter@D@__crt_stdio_output@@V?$format_validation_base@DV?$string_output_adapter@D@__crt_stdio_output@@@2@@0@AAE_NXZ@AAPAD@Z 1014000f f i libucrt:output.obj
 0001:0013f021       ??$read_va_arg@PAUansi_string@?1??type_case_Z@?$output_processor@DV?$string_output_adapter@D@__crt_stdio_output@@V?$positional_parameter_base@DV?$string_output_adapter@D@__crt_stdio_output@@@2@@__crt_stdio_output@@AAE_NXZ@@__crt_stdio_output@@YAPAUansi_string@?1??type_case_Z@?$output_processor@DV?$string_output_adapter@D@__crt_stdio_output@@V?$positional_parameter_base@DV?$string_output_adapter@D@__crt_stdio_output@@@2@@0@AAE_NXZ@AAPAD@Z 10140021 f i libucrt:output.obj
 0001:0013f033       ??$read_va_arg@PAUansi_string@?1??type_case_Z@?$output_processor@DV?$string_output_adapter@D@__crt_stdio_output@@V?$standard_base@DV?$string_output_adapter@D@__crt_stdio_output@@@2@@__crt_stdio_output@@AAE_NXZ@@__crt_stdio_output@@YAPAUansi_string@?1??type_case_Z@?$output_processor@DV?$string_output_adapter@D@__crt_stdio_output@@V?$standard_base@DV?$string_output_adapter@D@__crt_stdio_output@@@2@@0@AAE_NXZ@AAPAD@Z 10140033 f i libucrt:output.obj
 0001:0013f045       ??$read_va_arg@PAUansi_string@?1??type_case_Z@?$output_processor@_WV?$stream_output_adapter@_W@__crt_stdio_output@@V?$format_validation_base@_WV?$stream_output_adapter@_W@__crt_stdio_output@@@2@@__crt_stdio_output@@AAE_NXZ@@__crt_stdio_output@@YAPAUansi_string@?1??type_case_Z@?$output_processor@_WV?$stream_output_adapter@_W@__crt_stdio_output@@V?$format_validation_base@_WV?$stream_output_adapter@_W@__crt_stdio_output@@@2@@0@AAE_NXZ@AAPAD@Z 10140045 f i libucrt:output.obj
 0001:0013f057       ??$read_va_arg@PAUansi_string@?1??type_case_Z@?$output_processor@_WV?$stream_output_adapter@_W@__crt_stdio_output@@V?$positional_parameter_base@_WV?$stream_output_adapter@_W@__crt_stdio_output@@@2@@__crt_stdio_output@@AAE_NXZ@@__crt_stdio_output@@YAPAUansi_string@?1??type_case_Z@?$output_processor@_WV?$stream_output_adapter@_W@__crt_stdio_output@@V?$positional_parameter_base@_WV?$stream_output_adapter@_W@__crt_stdio_output@@@2@@0@AAE_NXZ@AAPAD@Z 10140057 f i libucrt:output.obj
 0001:0013f069       ??$read_va_arg@PAUansi_string@?1??type_case_Z@?$output_processor@_WV?$stream_output_adapter@_W@__crt_stdio_output@@V?$standard_base@_WV?$stream_output_adapter@_W@__crt_stdio_output@@@2@@__crt_stdio_output@@AAE_NXZ@@__crt_stdio_output@@YAPAUansi_string@?1??type_case_Z@?$output_processor@_WV?$stream_output_adapter@_W@__crt_stdio_output@@V?$standard_base@_WV?$stream_output_adapter@_W@__crt_stdio_output@@@2@@0@AAE_NXZ@AAPAD@Z 10140069 f i libucrt:output.obj
 0001:0013f07b       ??$read_va_arg@PAUansi_string@?1??type_case_Z@?$output_processor@_WV?$string_output_adapter@_W@__crt_stdio_output@@V?$format_validation_base@_WV?$string_output_adapter@_W@__crt_stdio_output@@@2@@__crt_stdio_output@@AAE_NXZ@@__crt_stdio_output@@YAPAUansi_string@?1??type_case_Z@?$output_processor@_WV?$string_output_adapter@_W@__crt_stdio_output@@V?$format_validation_base@_WV?$string_output_adapter@_W@__crt_stdio_output@@@2@@0@AAE_NXZ@AAPAD@Z 1014007b f i libucrt:output.obj
 0001:0013f08d       ??$read_va_arg@PAUansi_string@?1??type_case_Z@?$output_processor@_WV?$string_output_adapter@_W@__crt_stdio_output@@V?$positional_parameter_base@_WV?$string_output_adapter@_W@__crt_stdio_output@@@2@@__crt_stdio_output@@AAE_NXZ@@__crt_stdio_output@@YAPAUansi_string@?1??type_case_Z@?$output_processor@_WV?$string_output_adapter@_W@__crt_stdio_output@@V?$positional_parameter_base@_WV?$string_output_adapter@_W@__crt_stdio_output@@@2@@0@AAE_NXZ@AAPAD@Z 1014008d f i libucrt:output.obj
 0001:0013f09f       ??$read_va_arg@PAUansi_string@?1??type_case_Z@?$output_processor@_WV?$string_output_adapter@_W@__crt_stdio_output@@V?$standard_base@_WV?$string_output_adapter@_W@__crt_stdio_output@@@2@@__crt_stdio_output@@AAE_NXZ@@__crt_stdio_output@@YAPAUansi_string@?1??type_case_Z@?$output_processor@_WV?$string_output_adapter@_W@__crt_stdio_output@@V?$standard_base@_WV?$string_output_adapter@_W@__crt_stdio_output@@@2@@0@AAE_NXZ@AAPAD@Z 1014009f f i libucrt:output.obj
 0001:0013f0b1       ??$read_va_arg@PAX@__crt_stdio_output@@YAPAXAAPAD@Z 101400b1 f i libucrt:output.obj
 0001:0013f0c3       ??$read_va_arg@U_CRT_DOUBLE@@@__crt_stdio_output@@YA?AU_CRT_DOUBLE@@AAPAD@Z 101400c3 f i libucrt:output.obj
 0001:0013f0d8       ??$read_va_arg@_J@__crt_stdio_output@@YA_JAAPAD@Z 101400d8 f i libucrt:output.obj
 0001:0013f0ed       ??$read_va_arg@_K@__crt_stdio_output@@YA_KAAPAD@Z 101400ed f i libucrt:output.obj
 0001:0013f102       ??$read_va_arg@_W@__crt_stdio_output@@YA_WAAPAD@Z 10140102 f i libucrt:output.obj
 0001:0013f115       ??$scratch_count@D@formatting_buffer@__crt_stdio_output@@QBEIXZ 10140115 f i libucrt:output.obj
 0001:0013f11a       ??$scratch_data@D@formatting_buffer@__crt_stdio_output@@QAEPADXZ 1014011a f i libucrt:output.obj
 0001:0013f138       ??$tcstol@AAPBDPAPADH@?$__crt_char_traits@D@@SAJAAPBD$$QAPAPAD$$QAH@Z 10140138 f i libucrt:output.obj
 0001:0013f156       ??$tcstol@AAPB_WPAPA_WH@?$__crt_char_traits@_W@@SAJAAPB_W$$QAPAPA_W$$QAH@Z 10140156 f i libucrt:output.obj
 0001:0013f174       ??$tcstol@PBDPAPADH@?$__crt_char_traits@D@@SAJ$$QAPBD$$QAPAPAD$$QAH@Z 10140174 f i libucrt:output.obj
 0001:0013f192       ??$tcstol@PB_WPAPA_WH@?$__crt_char_traits@_W@@SAJ$$QAPB_W$$QAPAPA_W$$QAH@Z 10140192 f i libucrt:output.obj
 0001:0013f1b0       ??$type_case_integer_parse_into_buffer@I@?$output_processor@DV?$stream_output_adapter@D@__crt_stdio_output@@V?$format_validation_base@DV?$stream_output_adapter@D@__crt_stdio_output@@@2@@__crt_stdio_output@@AAEXII_N@Z 101401b0 f i libucrt:output.obj
 0001:0013f225       ??$type_case_integer_parse_into_buffer@I@?$output_processor@DV?$stream_output_adapter@D@__crt_stdio_output@@V?$positional_parameter_base@DV?$stream_output_adapter@D@__crt_stdio_output@@@2@@__crt_stdio_output@@AAEXII_N@Z 10140225 f i libucrt:output.obj
 0001:0013f29a       ??$type_case_integer_parse_into_buffer@I@?$output_processor@DV?$stream_output_adapter@D@__crt_stdio_output@@V?$standard_base@DV?$stream_output_adapter@D@__crt_stdio_output@@@2@@__crt_stdio_output@@AAEXII_N@Z 1014029a f i libucrt:output.obj
 0001:0013f30f       ??$type_case_integer_parse_into_buffer@I@?$output_processor@DV?$string_output_adapter@D@__crt_stdio_output@@V?$format_validation_base@DV?$string_output_adapter@D@__crt_stdio_output@@@2@@__crt_stdio_output@@AAEXII_N@Z 1014030f f i libucrt:output.obj
 0001:0013f384       ??$type_case_integer_parse_into_buffer@I@?$output_processor@DV?$string_output_adapter@D@__crt_stdio_output@@V?$positional_parameter_base@DV?$string_output_adapter@D@__crt_stdio_output@@@2@@__crt_stdio_output@@AAEXII_N@Z 10140384 f i libucrt:output.obj
 0001:0013f3f9       ??$type_case_integer_parse_into_buffer@I@?$output_processor@DV?$string_output_adapter@D@__crt_stdio_output@@V?$standard_base@DV?$string_output_adapter@D@__crt_stdio_output@@@2@@__crt_stdio_output@@AAEXII_N@Z 101403f9 f i libucrt:output.obj
 0001:0013f46e       ??$type_case_integer_parse_into_buffer@I@?$output_processor@_WV?$stream_output_adapter@_W@__crt_stdio_output@@V?$format_validation_base@_WV?$stream_output_adapter@_W@__crt_stdio_output@@@2@@__crt_stdio_output@@AAEXII_N@Z 1014046e f i libucrt:output.obj
 0001:0013f4e3       ??$type_case_integer_parse_into_buffer@I@?$output_processor@_WV?$stream_output_adapter@_W@__crt_stdio_output@@V?$positional_parameter_base@_WV?$stream_output_adapter@_W@__crt_stdio_output@@@2@@__crt_stdio_output@@AAEXII_N@Z 101404e3 f i libucrt:output.obj
 0001:0013f558       ??$type_case_integer_parse_into_buffer@I@?$output_processor@_WV?$stream_output_adapter@_W@__crt_stdio_output@@V?$standard_base@_WV?$stream_output_adapter@_W@__crt_stdio_output@@@2@@__crt_stdio_output@@AAEXII_N@Z 10140558 f i libucrt:output.obj
 0001:0013f5cd       ??$type_case_integer_parse_into_buffer@I@?$output_processor@_WV?$string_output_adapter@_W@__crt_stdio_output@@V?$format_validation_base@_WV?$string_output_adapter@_W@__crt_stdio_output@@@2@@__crt_stdio_output@@AAEXII_N@Z 101405cd f i libucrt:output.obj
 0001:0013f642       ??$type_case_integer_parse_into_buffer@I@?$output_processor@_WV?$string_output_adapter@_W@__crt_stdio_output@@V?$positional_parameter_base@_WV?$string_output_adapter@_W@__crt_stdio_output@@@2@@__crt_stdio_output@@AAEXII_N@Z 10140642 f i libucrt:output.obj
 0001:0013f6b7       ??$type_case_integer_parse_into_buffer@I@?$output_processor@_WV?$string_output_adapter@_W@__crt_stdio_output@@V?$standard_base@_WV?$string_output_adapter@_W@__crt_stdio_output@@@2@@__crt_stdio_output@@AAEXII_N@Z 101406b7 f i libucrt:output.obj
 0001:0013f72c       ??$type_case_integer_parse_into_buffer@_K@?$output_processor@DV?$stream_output_adapter@D@__crt_stdio_output@@V?$format_validation_base@DV?$stream_output_adapter@D@__crt_stdio_output@@@2@@__crt_stdio_output@@AAEX_KI_N@Z 1014072c f i libucrt:output.obj
 0001:0013f7b4       ??$type_case_integer_parse_into_buffer@_K@?$output_processor@DV?$stream_output_adapter@D@__crt_stdio_output@@V?$positional_parameter_base@DV?$stream_output_adapter@D@__crt_stdio_output@@@2@@__crt_stdio_output@@AAEX_KI_N@Z 101407b4 f i libucrt:output.obj
 0001:0013f83c       ??$type_case_integer_parse_into_buffer@_K@?$output_processor@DV?$stream_output_adapter@D@__crt_stdio_output@@V?$standard_base@DV?$stream_output_adapter@D@__crt_stdio_output@@@2@@__crt_stdio_output@@AAEX_KI_N@Z 1014083c f i libucrt:output.obj
 0001:0013f8c4       ??$type_case_integer_parse_into_buffer@_K@?$output_processor@DV?$string_output_adapter@D@__crt_stdio_output@@V?$format_validation_base@DV?$string_output_adapter@D@__crt_stdio_output@@@2@@__crt_stdio_output@@AAEX_KI_N@Z 101408c4 f i libucrt:output.obj
 0001:0013f94c       ??$type_case_integer_parse_into_buffer@_K@?$output_processor@DV?$string_output_adapter@D@__crt_stdio_output@@V?$positional_parameter_base@DV?$string_output_adapter@D@__crt_stdio_output@@@2@@__crt_stdio_output@@AAEX_KI_N@Z 1014094c f i libucrt:output.obj
 0001:0013f9d4       ??$type_case_integer_parse_into_buffer@_K@?$output_processor@DV?$string_output_adapter@D@__crt_stdio_output@@V?$standard_base@DV?$string_output_adapter@D@__crt_stdio_output@@@2@@__crt_stdio_output@@AAEX_KI_N@Z 101409d4 f i libucrt:output.obj
 0001:0013fa5c       ??$type_case_integer_parse_into_buffer@_K@?$output_processor@_WV?$stream_output_adapter@_W@__crt_stdio_output@@V?$format_validation_base@_WV?$stream_output_adapter@_W@__crt_stdio_output@@@2@@__crt_stdio_output@@AAEX_KI_N@Z 10140a5c f i libucrt:output.obj
 0001:0013fae4       ??$type_case_integer_parse_into_buffer@_K@?$output_processor@_WV?$stream_output_adapter@_W@__crt_stdio_output@@V?$positional_parameter_base@_WV?$stream_output_adapter@_W@__crt_stdio_output@@@2@@__crt_stdio_output@@AAEX_KI_N@Z 10140ae4 f i libucrt:output.obj
 0001:0013fb6c       ??$type_case_integer_parse_into_buffer@_K@?$output_processor@_WV?$stream_output_adapter@_W@__crt_stdio_output@@V?$standard_base@_WV?$stream_output_adapter@_W@__crt_stdio_output@@@2@@__crt_stdio_output@@AAEX_KI_N@Z 10140b6c f i libucrt:output.obj
 0001:0013fbf4       ??$type_case_integer_parse_into_buffer@_K@?$output_processor@_WV?$string_output_adapter@_W@__crt_stdio_output@@V?$format_validation_base@_WV?$string_output_adapter@_W@__crt_stdio_output@@@2@@__crt_stdio_output@@AAEX_KI_N@Z 10140bf4 f i libucrt:output.obj
 0001:0013fc7c       ??$type_case_integer_parse_into_buffer@_K@?$output_processor@_WV?$string_output_adapter@_W@__crt_stdio_output@@V?$positional_parameter_base@_WV?$string_output_adapter@_W@__crt_stdio_output@@@2@@__crt_stdio_output@@AAEX_KI_N@Z 10140c7c f i libucrt:output.obj
 0001:0013fd04       ??$type_case_integer_parse_into_buffer@_K@?$output_processor@_WV?$string_output_adapter@_W@__crt_stdio_output@@V?$standard_base@_WV?$string_output_adapter@_W@__crt_stdio_output@@@2@@__crt_stdio_output@@AAEX_KI_N@Z 10140d04 f i libucrt:output.obj
 0001:0013fd8c       ??$write_multiple_characters@V?$stream_output_adapter@D@__crt_stdio_output@@D@__crt_stdio_output@@YAXABV?$stream_output_adapter@D@0@DHQAH@Z 10140d8c f i libucrt:output.obj
 0001:0013fdb8       ??$write_multiple_characters@V?$stream_output_adapter@_W@__crt_stdio_output@@D@__crt_stdio_output@@YAXABV?$stream_output_adapter@_W@0@DHQAH@Z 10140db8 f i libucrt:output.obj
 0001:0013fde9       ??$write_multiple_characters@V?$string_output_adapter@D@__crt_stdio_output@@D@__crt_stdio_output@@YAXABV?$string_output_adapter@D@0@DHQAH@Z 10140de9 f i libucrt:output.obj
 0001:0013fe15       ??$write_multiple_characters@V?$string_output_adapter@_W@__crt_stdio_output@@D@__crt_stdio_output@@YAXABV?$string_output_adapter@_W@0@DHQAH@Z 10140e15 f i libucrt:output.obj
 0001:0014000e       ??0?$common_data@D@__crt_stdio_output@@IAE@XZ 1014100e f i libucrt:output.obj
 0001:00140055       ??0?$common_data@_W@__crt_stdio_output@@IAE@XZ 10141055 f i libucrt:output.obj
 0001:001400a1       ??0?$output_adapter_data@DV?$stream_output_adapter@D@__crt_stdio_output@@@__crt_stdio_output@@IAE@ABV?$stream_output_adapter@D@1@_KQBDQAU__crt_locale_pointers@@QAD@Z 101410a1 f i libucrt:output.obj
 0001:001400dd       ??0?$output_adapter_data@DV?$string_output_adapter@D@__crt_stdio_output@@@__crt_stdio_output@@IAE@ABV?$string_output_adapter@D@1@_KQBDQAU__crt_locale_pointers@@QAD@Z 101410dd f i libucrt:output.obj
 0001:00140119       ??0?$output_adapter_data@_WV?$stream_output_adapter@_W@__crt_stdio_output@@@__crt_stdio_output@@IAE@ABV?$stream_output_adapter@_W@1@_KQB_WQAU__crt_locale_pointers@@QAD@Z 10141119 f i libucrt:output.obj
 0001:00140155       ??0?$output_adapter_data@_WV?$string_output_adapter@_W@__crt_stdio_output@@@__crt_stdio_output@@IAE@ABV?$string_output_adapter@_W@1@_KQB_WQAU__crt_locale_pointers@@QAD@Z 10141155 f i libucrt:output.obj
 0001:00140191       ??0?$output_processor@DV?$stream_output_adapter@D@__crt_stdio_output@@V?$format_validation_base@DV?$stream_output_adapter@D@__crt_stdio_output@@@2@@__crt_stdio_output@@QAE@ABV?$stream_output_adapter@D@1@_KQBDQAU__crt_locale_pointers@@QAD@Z 10141191 f i libucrt:output.obj
 0001:001401c6       ??0?$output_processor@DV?$stream_output_adapter@D@__crt_stdio_output@@V?$positional_parameter_base@DV?$stream_output_adapter@D@__crt_stdio_output@@@2@@__crt_stdio_output@@QAE@ABV?$stream_output_adapter@D@1@_KQBDQAU__crt_locale_pointers@@QAD@Z 101411c6 f i libucrt:output.obj
 0001:001401f5       ??0?$output_processor@DV?$stream_output_adapter@D@__crt_stdio_output@@V?$standard_base@DV?$stream_output_adapter@D@__crt_stdio_output@@@2@@__crt_stdio_output@@QAE@ABV?$stream_output_adapter@D@1@_KQBDQAU__crt_locale_pointers@@QAD@Z 101411f5 f i libucrt:output.obj
 0001:0014022a       ??0?$output_processor@DV?$string_output_adapter@D@__crt_stdio_output@@V?$format_validation_base@DV?$string_output_adapter@D@__crt_stdio_output@@@2@@__crt_stdio_output@@QAE@ABV?$string_output_adapter@D@1@_KQBDQAU__crt_locale_pointers@@QAD@Z 1014122a f i libucrt:output.obj
 0001:0014025f       ??0?$output_processor@DV?$string_output_adapter@D@__crt_stdio_output@@V?$positional_parameter_base@DV?$string_output_adapter@D@__crt_stdio_output@@@2@@__crt_stdio_output@@QAE@ABV?$string_output_adapter@D@1@_KQBDQAU__crt_locale_pointers@@QAD@Z 1014125f f i libucrt:output.obj
 0001:0014028e       ??0?$output_processor@DV?$string_output_adapter@D@__crt_stdio_output@@V?$standard_base@DV?$string_output_adapter@D@__crt_stdio_output@@@2@@__crt_stdio_output@@QAE@ABV?$string_output_adapter@D@1@_KQBDQAU__crt_locale_pointers@@QAD@Z 1014128e f i libucrt:output.obj
 0001:001402c3       ??0?$output_processor@_WV?$stream_output_adapter@_W@__crt_stdio_output@@V?$format_validation_base@_WV?$stream_output_adapter@_W@__crt_stdio_output@@@2@@__crt_stdio_output@@QAE@ABV?$stream_output_adapter@_W@1@_KQB_WQAU__crt_locale_pointers@@QAD@Z 101412c3 f i libucrt:output.obj
 0001:001402f8       ??0?$output_processor@_WV?$stream_output_adapter@_W@__crt_stdio_output@@V?$positional_parameter_base@_WV?$stream_output_adapter@_W@__crt_stdio_output@@@2@@__crt_stdio_output@@QAE@ABV?$stream_output_adapter@_W@1@_KQB_WQAU__crt_locale_pointers@@QAD@Z 101412f8 f i libucrt:output.obj
 0001:00140327       ??0?$output_processor@_WV?$stream_output_adapter@_W@__crt_stdio_output@@V?$standard_base@_WV?$stream_output_adapter@_W@__crt_stdio_output@@@2@@__crt_stdio_output@@QAE@ABV?$stream_output_adapter@_W@1@_KQB_WQAU__crt_locale_pointers@@QAD@Z 10141327 f i libucrt:output.obj
 0001:0014035c       ??0?$output_processor@_WV?$string_output_adapter@_W@__crt_stdio_output@@V?$format_validation_base@_WV?$string_output_adapter@_W@__crt_stdio_output@@@2@@__crt_stdio_output@@QAE@ABV?$string_output_adapter@_W@1@_KQB_WQAU__crt_locale_pointers@@QAD@Z 1014135c f i libucrt:output.obj
 0001:00140391       ??0?$output_processor@_WV?$string_output_adapter@_W@__crt_stdio_output@@V?$positional_parameter_base@_WV?$string_output_adapter@_W@__crt_stdio_output@@@2@@__crt_stdio_output@@QAE@ABV?$string_output_adapter@_W@1@_KQB_WQAU__crt_locale_pointers@@QAD@Z 10141391 f i libucrt:output.obj
 0001:001403c0       ??0?$output_processor@_WV?$string_output_adapter@_W@__crt_stdio_output@@V?$standard_base@_WV?$string_output_adapter@_W@__crt_stdio_output@@@2@@__crt_stdio_output@@QAE@ABV?$string_output_adapter@_W@1@_KQB_WQAU__crt_locale_pointers@@QAD@Z 101413c0 f i libucrt:output.obj
 0001:001403f5       ??0?$stream_output_adapter@D@__crt_stdio_output@@QAE@QAU_iobuf@@@Z 101413f5 f i libucrt:output.obj
 0001:00140405       ??0?$stream_output_adapter@_W@__crt_stdio_output@@QAE@QAU_iobuf@@@Z 10141405 f i libucrt:output.obj
 0001:00140415       ??0?$string_output_adapter@D@__crt_stdio_output@@QAE@QAU?$string_output_adapter_context@D@1@@Z 10141415 f i libucrt:output.obj
 0001:00140425       ??0?$string_output_adapter@_W@__crt_stdio_output@@QAE@QAU?$string_output_adapter_context@_W@1@@Z 10141425 f i libucrt:output.obj
 0001:00140435       ??0_LocaleUpdate@@QAE@QAU__crt_locale_pointers@@@Z 10141435 f i libucrt:output.obj
 0001:001404b8       ??0__crt_errno_guard@@QAE@QAH@Z 101414b8 f i libucrt:output.obj
 0001:001404d0       ??0formatting_buffer@__crt_stdio_output@@QAE@XZ 101414d0 f i libucrt:output.obj
 0001:001404e1       ??1?$common_data@D@__crt_stdio_output@@QAE@XZ 101414e1 f i libucrt:output.obj
 0001:001404e9       ??1?$common_data@_W@__crt_stdio_output@@QAE@XZ 101414e9 f i libucrt:output.obj
 0001:001404f1       ??1?$format_validation_base@DV?$stream_output_adapter@D@__crt_stdio_output@@@__crt_stdio_output@@QAE@XZ 101414f1 f i libucrt:output.obj
 0001:001404f9       ??1?$format_validation_base@DV?$string_output_adapter@D@__crt_stdio_output@@@__crt_stdio_output@@QAE@XZ 101414f9 f i libucrt:output.obj
 0001:00140501       ??1?$format_validation_base@_WV?$stream_output_adapter@_W@__crt_stdio_output@@@__crt_stdio_output@@QAE@XZ 10141501 f i libucrt:output.obj
 0001:00140509       ??1?$format_validation_base@_WV?$string_output_adapter@_W@__crt_stdio_output@@@__crt_stdio_output@@QAE@XZ 10141509 f i libucrt:output.obj
 0001:00140511       ??1?$output_adapter_data@DV?$stream_output_adapter@D@__crt_stdio_output@@@__crt_stdio_output@@QAE@XZ 10141511 f i libucrt:output.obj
 0001:00140519       ??1?$output_adapter_data@DV?$string_output_adapter@D@__crt_stdio_output@@@__crt_stdio_output@@QAE@XZ 10141519 f i libucrt:output.obj
 0001:00140521       ??1?$output_adapter_data@_WV?$stream_output_adapter@_W@__crt_stdio_output@@@__crt_stdio_output@@QAE@XZ 10141521 f i libucrt:output.obj
 0001:00140529       ??1?$output_adapter_data@_WV?$string_output_adapter@_W@__crt_stdio_output@@@__crt_stdio_output@@QAE@XZ 10141529 f i libucrt:output.obj
 0001:00140531       ??1?$output_processor@DV?$stream_output_adapter@D@__crt_stdio_output@@V?$format_validation_base@DV?$stream_output_adapter@D@__crt_stdio_output@@@2@@__crt_stdio_output@@QAE@XZ 10141531 f i libucrt:output.obj
 0001:00140539       ??1?$output_processor@DV?$stream_output_adapter@D@__crt_stdio_output@@V?$positional_parameter_base@DV?$stream_output_adapter@D@__crt_stdio_output@@@2@@__crt_stdio_output@@QAE@XZ 10141539 f i libucrt:output.obj
 0001:00140541       ??1?$output_processor@DV?$stream_output_adapter@D@__crt_stdio_output@@V?$standard_base@DV?$stream_output_adapter@D@__crt_stdio_output@@@2@@__crt_stdio_output@@QAE@XZ 10141541 f i libucrt:output.obj
 0001:00140549       ??1?$output_processor@DV?$string_output_adapter@D@__crt_stdio_output@@V?$format_validation_base@DV?$string_output_adapter@D@__crt_stdio_output@@@2@@__crt_stdio_output@@QAE@XZ 10141549 f i libucrt:output.obj
 0001:00140551       ??1?$output_processor@DV?$string_output_adapter@D@__crt_stdio_output@@V?$positional_parameter_base@DV?$string_output_adapter@D@__crt_stdio_output@@@2@@__crt_stdio_output@@QAE@XZ 10141551 f i libucrt:output.obj
 0001:00140559       ??1?$output_processor@DV?$string_output_adapter@D@__crt_stdio_output@@V?$standard_base@DV?$string_output_adapter@D@__crt_stdio_output@@@2@@__crt_stdio_output@@QAE@XZ 10141559 f i libucrt:output.obj
 0001:00140561       ??1?$output_processor@_WV?$stream_output_adapter@_W@__crt_stdio_output@@V?$format_validation_base@_WV?$stream_output_adapter@_W@__crt_stdio_output@@@2@@__crt_stdio_output@@QAE@XZ 10141561 f i libucrt:output.obj
 0001:00140569       ??1?$output_processor@_WV?$stream_output_adapter@_W@__crt_stdio_output@@V?$positional_parameter_base@_WV?$stream_output_adapter@_W@__crt_stdio_output@@@2@@__crt_stdio_output@@QAE@XZ 10141569 f i libucrt:output.obj
 0001:00140571       ??1?$output_processor@_WV?$stream_output_adapter@_W@__crt_stdio_output@@V?$standard_base@_WV?$stream_output_adapter@_W@__crt_stdio_output@@@2@@__crt_stdio_output@@QAE@XZ 10141571 f i libucrt:output.obj
 0001:00140579       ??1?$output_processor@_WV?$string_output_adapter@_W@__crt_stdio_output@@V?$format_validation_base@_WV?$string_output_adapter@_W@__crt_stdio_output@@@2@@__crt_stdio_output@@QAE@XZ 10141579 f i libucrt:output.obj
 0001:00140581       ??1?$output_processor@_WV?$string_output_adapter@_W@__crt_stdio_output@@V?$positional_parameter_base@_WV?$string_output_adapter@_W@__crt_stdio_output@@@2@@__crt_stdio_output@@QAE@XZ 10141581 f i libucrt:output.obj
 0001:00140589       ??1?$output_processor@_WV?$string_output_adapter@_W@__crt_stdio_output@@V?$standard_base@_WV?$string_output_adapter@_W@__crt_stdio_output@@@2@@__crt_stdio_output@@QAE@XZ 10141589 f i libucrt:output.obj
 0001:00140591       ??1?$positional_parameter_base@DV?$stream_output_adapter@D@__crt_stdio_output@@@__crt_stdio_output@@QAE@XZ 10141591 f i libucrt:output.obj
 0001:00140599       ??1?$positional_parameter_base@DV?$string_output_adapter@D@__crt_stdio_output@@@__crt_stdio_output@@QAE@XZ 10141599 f i libucrt:output.obj
 0001:001405a1       ??1?$positional_parameter_base@_WV?$stream_output_adapter@_W@__crt_stdio_output@@@__crt_stdio_output@@QAE@XZ 101415a1 f i libucrt:output.obj
 0001:001405a9       ??1?$positional_parameter_base@_WV?$string_output_adapter@_W@__crt_stdio_output@@@__crt_stdio_output@@QAE@XZ 101415a9 f i libucrt:output.obj
 0001:001405b1       ??1?$standard_base@DV?$stream_output_adapter@D@__crt_stdio_output@@@__crt_stdio_output@@QAE@XZ 101415b1 f i libucrt:output.obj
 0001:001405b9       ??1?$standard_base@DV?$string_output_adapter@D@__crt_stdio_output@@@__crt_stdio_output@@QAE@XZ 101415b9 f i libucrt:output.obj
 0001:001405c1       ??1?$standard_base@_WV?$stream_output_adapter@_W@__crt_stdio_output@@@__crt_stdio_output@@QAE@XZ 101415c1 f i libucrt:output.obj
 0001:001405c9       ??1?$standard_base@_WV?$string_output_adapter@_W@__crt_stdio_output@@@__crt_stdio_output@@QAE@XZ 101415c9 f i libucrt:output.obj
 0001:001405d1       ??1_LocaleUpdate@@QAE@XZ   101415d1 f i libucrt:output.obj
 0001:001405e1       ??1__crt_errno_guard@@QAE@XZ 101415e1 f i libucrt:output.obj
 0001:001405f2       ??1formatting_buffer@__crt_stdio_output@@QAE@XZ 101415f2 f i libucrt:output.obj
 0001:0014060c       ??4?$__crt_unique_heap_ptr@DU__crt_internal_free_policy@@@@QAEAAV0@$$QAV0@@Z 1014160c f i libucrt:output.obj
 0001:00140630       ??C__crt_stdio_stream@@QBEPAU__crt_stdio_stream_data@@XZ 10141630 f i libucrt:output.obj
 0001:00140b95       ?GetLocaleT@_LocaleUpdate@@QAEPAU__crt_locale_pointers@@XZ 10141b95 f i libucrt:output.obj
 0001:00140b99       ?adjust_hexit@?$output_processor@DV?$stream_output_adapter@D@__crt_stdio_output@@V?$format_validation_base@DV?$stream_output_adapter@D@__crt_stdio_output@@@2@@__crt_stdio_output@@CADH_N@Z 10141b99 f i libucrt:output.obj
 0001:00140bb7       ?adjust_hexit@?$output_processor@DV?$stream_output_adapter@D@__crt_stdio_output@@V?$positional_parameter_base@DV?$stream_output_adapter@D@__crt_stdio_output@@@2@@__crt_stdio_output@@CADH_N@Z 10141bb7 f i libucrt:output.obj
 0001:00140bd5       ?adjust_hexit@?$output_processor@DV?$stream_output_adapter@D@__crt_stdio_output@@V?$standard_base@DV?$stream_output_adapter@D@__crt_stdio_output@@@2@@__crt_stdio_output@@CADH_N@Z 10141bd5 f i libucrt:output.obj
 0001:00140bf3       ?adjust_hexit@?$output_processor@DV?$string_output_adapter@D@__crt_stdio_output@@V?$format_validation_base@DV?$string_output_adapter@D@__crt_stdio_output@@@2@@__crt_stdio_output@@CADH_N@Z 10141bf3 f i libucrt:output.obj
 0001:00140c11       ?adjust_hexit@?$output_processor@DV?$string_output_adapter@D@__crt_stdio_output@@V?$positional_parameter_base@DV?$string_output_adapter@D@__crt_stdio_output@@@2@@__crt_stdio_output@@CADH_N@Z 10141c11 f i libucrt:output.obj
 0001:00140c2f       ?adjust_hexit@?$output_processor@DV?$string_output_adapter@D@__crt_stdio_output@@V?$standard_base@DV?$string_output_adapter@D@__crt_stdio_output@@@2@@__crt_stdio_output@@CADH_N@Z 10141c2f f i libucrt:output.obj
 0001:00140c4d       ?adjust_hexit@?$output_processor@_WV?$stream_output_adapter@_W@__crt_stdio_output@@V?$format_validation_base@_WV?$stream_output_adapter@_W@__crt_stdio_output@@@2@@__crt_stdio_output@@CADH_N@Z 10141c4d f i libucrt:output.obj
 0001:00140c6b       ?adjust_hexit@?$output_processor@_WV?$stream_output_adapter@_W@__crt_stdio_output@@V?$positional_parameter_base@_WV?$stream_output_adapter@_W@__crt_stdio_output@@@2@@__crt_stdio_output@@CADH_N@Z 10141c6b f i libucrt:output.obj
 0001:00140c89       ?adjust_hexit@?$output_processor@_WV?$stream_output_adapter@_W@__crt_stdio_output@@V?$standard_base@_WV?$stream_output_adapter@_W@__crt_stdio_output@@@2@@__crt_stdio_output@@CADH_N@Z 10141c89 f i libucrt:output.obj
 0001:00140ca7       ?adjust_hexit@?$output_processor@_WV?$string_output_adapter@_W@__crt_stdio_output@@V?$format_validation_base@_WV?$string_output_adapter@_W@__crt_stdio_output@@@2@@__crt_stdio_output@@CADH_N@Z 10141ca7 f i libucrt:output.obj
 0001:00140cc5       ?adjust_hexit@?$output_processor@_WV?$string_output_adapter@_W@__crt_stdio_output@@V?$positional_parameter_base@_WV?$string_output_adapter@_W@__crt_stdio_output@@@2@@__crt_stdio_output@@CADH_N@Z 10141cc5 f i libucrt:output.obj
 0001:00140ce3       ?adjust_hexit@?$output_processor@_WV?$string_output_adapter@_W@__crt_stdio_output@@V?$standard_base@_WV?$string_output_adapter@_W@__crt_stdio_output@@@2@@__crt_stdio_output@@CADH_N@Z 10141ce3 f i libucrt:output.obj
 0001:00140d01       ?advance_to_next_pass@?$positional_parameter_base@DV?$stream_output_adapter@D@__crt_stdio_output@@@__crt_stdio_output@@IAE_NXZ 10141d01 f i libucrt:output.obj
 0001:00140d4d       ?advance_to_next_pass@?$positional_parameter_base@DV?$string_output_adapter@D@__crt_stdio_output@@@__crt_stdio_output@@IAE_NXZ 10141d4d f i libucrt:output.obj
 0001:00140d99       ?advance_to_next_pass@?$positional_parameter_base@_WV?$stream_output_adapter@_W@__crt_stdio_output@@@__crt_stdio_output@@IAE_NXZ 10141d99 f i libucrt:output.obj
 0001:00140de5       ?advance_to_next_pass@?$positional_parameter_base@_WV?$string_output_adapter@_W@__crt_stdio_output@@@__crt_stdio_output@@IAE_NXZ 10141de5 f i libucrt:output.obj
 0001:00140e31       ?advance_to_next_pass@?$standard_base@DV?$stream_output_adapter@D@__crt_stdio_output@@@__crt_stdio_output@@IAE_NXZ 10141e31 f i libucrt:output.obj
 0001:00140e44       ?advance_to_next_pass@?$standard_base@DV?$string_output_adapter@D@__crt_stdio_output@@@__crt_stdio_output@@IAE_NXZ 10141e44 f i libucrt:output.obj
 0001:00140e57       ?advance_to_next_pass@?$standard_base@_WV?$stream_output_adapter@_W@__crt_stdio_output@@@__crt_stdio_output@@IAE_NXZ 10141e57 f i libucrt:output.obj
 0001:00140e6a       ?advance_to_next_pass@?$standard_base@_WV?$string_output_adapter@_W@__crt_stdio_output@@@__crt_stdio_output@@IAE_NXZ 10141e6a f i libucrt:output.obj
 0001:00140e7d       ?crop_zeroes@__crt_stdio_output@@YAXPADQAU__crt_locale_pointers@@@Z 10141e7d f i libucrt:output.obj
 0001:00140ed4       ?find_next_state@?$output_processor@DV?$stream_output_adapter@D@__crt_stdio_output@@V?$format_validation_base@DV?$stream_output_adapter@D@__crt_stdio_output@@@2@@__crt_stdio_output@@ABE?AW4state@2@DW432@@Z 10141ed4 f i libucrt:output.obj
 0001:00140f09       ?find_next_state@?$output_processor@DV?$stream_output_adapter@D@__crt_stdio_output@@V?$positional_parameter_base@DV?$stream_output_adapter@D@__crt_stdio_output@@@2@@__crt_stdio_output@@ABE?AW4state@2@DW432@@Z 10141f09 f i libucrt:output.obj
 0001:00140f3e       ?find_next_state@?$output_processor@DV?$stream_output_adapter@D@__crt_stdio_output@@V?$standard_base@DV?$stream_output_adapter@D@__crt_stdio_output@@@2@@__crt_stdio_output@@ABE?AW4state@2@DW432@@Z 10141f3e f i libucrt:output.obj
 0001:00140f70       ?find_next_state@?$output_processor@DV?$string_output_adapter@D@__crt_stdio_output@@V?$format_validation_base@DV?$string_output_adapter@D@__crt_stdio_output@@@2@@__crt_stdio_output@@ABE?AW4state@2@DW432@@Z 10141f70 f i libucrt:output.obj
 0001:00140fa5       ?find_next_state@?$output_processor@DV?$string_output_adapter@D@__crt_stdio_output@@V?$positional_parameter_base@DV?$string_output_adapter@D@__crt_stdio_output@@@2@@__crt_stdio_output@@ABE?AW4state@2@DW432@@Z 10141fa5 f i libucrt:output.obj
 0001:00140fda       ?find_next_state@?$output_processor@DV?$string_output_adapter@D@__crt_stdio_output@@V?$standard_base@DV?$string_output_adapter@D@__crt_stdio_output@@@2@@__crt_stdio_output@@ABE?AW4state@2@DW432@@Z 10141fda f i libucrt:output.obj
 0001:0014100c       ?find_next_state@?$output_processor@_WV?$stream_output_adapter@_W@__crt_stdio_output@@V?$format_validation_base@_WV?$stream_output_adapter@_W@__crt_stdio_output@@@2@@__crt_stdio_output@@ABE?AW4state@2@_WW432@@Z 1014200c f i libucrt:output.obj
 0001:00141043       ?find_next_state@?$output_processor@_WV?$stream_output_adapter@_W@__crt_stdio_output@@V?$positional_parameter_base@_WV?$stream_output_adapter@_W@__crt_stdio_output@@@2@@__crt_stdio_output@@ABE?AW4state@2@_WW432@@Z 10142043 f i libucrt:output.obj
 0001:0014107a       ?find_next_state@?$output_processor@_WV?$stream_output_adapter@_W@__crt_stdio_output@@V?$standard_base@_WV?$stream_output_adapter@_W@__crt_stdio_output@@@2@@__crt_stdio_output@@ABE?AW4state@2@_WW432@@Z 1014207a f i libucrt:output.obj
 0001:001410ae       ?find_next_state@?$output_processor@_WV?$string_output_adapter@_W@__crt_stdio_output@@V?$format_validation_base@_WV?$string_output_adapter@_W@__crt_stdio_output@@@2@@__crt_stdio_output@@ABE?AW4state@2@_WW432@@Z 101420ae f i libucrt:output.obj
 0001:001410e5       ?find_next_state@?$output_processor@_WV?$string_output_adapter@_W@__crt_stdio_output@@V?$positional_parameter_base@_WV?$string_output_adapter@_W@__crt_stdio_output@@@2@@__crt_stdio_output@@ABE?AW4state@2@_WW432@@Z 101420e5 f i libucrt:output.obj
 0001:0014111c       ?find_next_state@?$output_processor@_WV?$string_output_adapter@_W@__crt_stdio_output@@V?$standard_base@_WV?$string_output_adapter@_W@__crt_stdio_output@@@2@@__crt_stdio_output@@ABE?AW4state@2@_WW432@@Z 1014211c f i libucrt:output.obj
 0001:00141150       ?force_decimal_point@__crt_stdio_output@@YAXPADQAU__crt_locale_pointers@@@Z 10142150 f i libucrt:output.obj
 0001:001411ac       ?get_parameter_type@?$positional_parameter_base@DV?$stream_output_adapter@D@__crt_stdio_output@@@__crt_stdio_output@@CA?AW4parameter_type@12@F@Z 101421ac f i libucrt:output.obj
 0001:001411b0       ?get_parameter_type@?$positional_parameter_base@DV?$stream_output_adapter@D@__crt_stdio_output@@@__crt_stdio_output@@CA?AW4parameter_type@12@G@Z 101421b0 f i libucrt:output.obj
 0001:001411b4       ?get_parameter_type@?$positional_parameter_base@DV?$stream_output_adapter@D@__crt_stdio_output@@@__crt_stdio_output@@CA?AW4parameter_type@12@H@Z 101421b4 f i libucrt:output.obj
 0001:001411b8       ?get_parameter_type@?$positional_parameter_base@DV?$stream_output_adapter@D@__crt_stdio_output@@@__crt_stdio_output@@CA?AW4parameter_type@12@I@Z 101421b8 f i libucrt:output.obj
 0001:001411bc       ?get_parameter_type@?$positional_parameter_base@DV?$stream_output_adapter@D@__crt_stdio_output@@@__crt_stdio_output@@CA?AW4parameter_type@12@U_CRT_DOUBLE@@@Z 101421bc f i libucrt:output.obj
 0001:001411c0       ?get_parameter_type@?$positional_parameter_base@DV?$stream_output_adapter@D@__crt_stdio_output@@@__crt_stdio_output@@CA?AW4parameter_type@12@_J@Z 101421c0 f i libucrt:output.obj
 0001:001411c4       ?get_parameter_type@?$positional_parameter_base@DV?$stream_output_adapter@D@__crt_stdio_output@@@__crt_stdio_output@@CA?AW4parameter_type@12@_K@Z 101421c4 f i libucrt:output.obj
 0001:001411c8       ?get_parameter_type@?$positional_parameter_base@DV?$stream_output_adapter@D@__crt_stdio_output@@@__crt_stdio_output@@CA?AW4parameter_type@12@_W@Z 101421c8 f i libucrt:output.obj
 0001:001411cc       ?get_parameter_type@?$positional_parameter_base@DV?$string_output_adapter@D@__crt_stdio_output@@@__crt_stdio_output@@CA?AW4parameter_type@12@F@Z 101421cc f i libucrt:output.obj
 0001:001411d0       ?get_parameter_type@?$positional_parameter_base@DV?$string_output_adapter@D@__crt_stdio_output@@@__crt_stdio_output@@CA?AW4parameter_type@12@G@Z 101421d0 f i libucrt:output.obj
 0001:001411d4       ?get_parameter_type@?$positional_parameter_base@DV?$string_output_adapter@D@__crt_stdio_output@@@__crt_stdio_output@@CA?AW4parameter_type@12@H@Z 101421d4 f i libucrt:output.obj
 0001:001411d8       ?get_parameter_type@?$positional_parameter_base@DV?$string_output_adapter@D@__crt_stdio_output@@@__crt_stdio_output@@CA?AW4parameter_type@12@I@Z 101421d8 f i libucrt:output.obj
 0001:001411dc       ?get_parameter_type@?$positional_parameter_base@DV?$string_output_adapter@D@__crt_stdio_output@@@__crt_stdio_output@@CA?AW4parameter_type@12@U_CRT_DOUBLE@@@Z 101421dc f i libucrt:output.obj
 0001:001411e0       ?get_parameter_type@?$positional_parameter_base@DV?$string_output_adapter@D@__crt_stdio_output@@@__crt_stdio_output@@CA?AW4parameter_type@12@_J@Z 101421e0 f i libucrt:output.obj
 0001:001411e4       ?get_parameter_type@?$positional_parameter_base@DV?$string_output_adapter@D@__crt_stdio_output@@@__crt_stdio_output@@CA?AW4parameter_type@12@_K@Z 101421e4 f i libucrt:output.obj
 0001:001411e8       ?get_parameter_type@?$positional_parameter_base@DV?$string_output_adapter@D@__crt_stdio_output@@@__crt_stdio_output@@CA?AW4parameter_type@12@_W@Z 101421e8 f i libucrt:output.obj
 0001:001411ec       ?get_parameter_type@?$positional_parameter_base@_WV?$stream_output_adapter@_W@__crt_stdio_output@@@__crt_stdio_output@@CA?AW4parameter_type@12@F@Z 101421ec f i libucrt:output.obj
 0001:001411f0       ?get_parameter_type@?$positional_parameter_base@_WV?$stream_output_adapter@_W@__crt_stdio_output@@@__crt_stdio_output@@CA?AW4parameter_type@12@G@Z 101421f0 f i libucrt:output.obj
 0001:001411f4       ?get_parameter_type@?$positional_parameter_base@_WV?$stream_output_adapter@_W@__crt_stdio_output@@@__crt_stdio_output@@CA?AW4parameter_type@12@H@Z 101421f4 f i libucrt:output.obj
 0001:001411f8       ?get_parameter_type@?$positional_parameter_base@_WV?$stream_output_adapter@_W@__crt_stdio_output@@@__crt_stdio_output@@CA?AW4parameter_type@12@I@Z 101421f8 f i libucrt:output.obj
 0001:001411fc       ?get_parameter_type@?$positional_parameter_base@_WV?$stream_output_adapter@_W@__crt_stdio_output@@@__crt_stdio_output@@CA?AW4parameter_type@12@U_CRT_DOUBLE@@@Z 101421fc f i libucrt:output.obj
 0001:00141200       ?get_parameter_type@?$positional_parameter_base@_WV?$stream_output_adapter@_W@__crt_stdio_output@@@__crt_stdio_output@@CA?AW4parameter_type@12@_J@Z 10142200 f i libucrt:output.obj
 0001:00141204       ?get_parameter_type@?$positional_parameter_base@_WV?$stream_output_adapter@_W@__crt_stdio_output@@@__crt_stdio_output@@CA?AW4parameter_type@12@_K@Z 10142204 f i libucrt:output.obj
 0001:00141208       ?get_parameter_type@?$positional_parameter_base@_WV?$stream_output_adapter@_W@__crt_stdio_output@@@__crt_stdio_output@@CA?AW4parameter_type@12@_W@Z 10142208 f i libucrt:output.obj
 0001:0014120c       ?get_parameter_type@?$positional_parameter_base@_WV?$string_output_adapter@_W@__crt_stdio_output@@@__crt_stdio_output@@CA?AW4parameter_type@12@F@Z 1014220c f i libucrt:output.obj
 0001:00141210       ?get_parameter_type@?$positional_parameter_base@_WV?$string_output_adapter@_W@__crt_stdio_output@@@__crt_stdio_output@@CA?AW4parameter_type@12@G@Z 10142210 f i libucrt:output.obj
 0001:00141214       ?get_parameter_type@?$positional_parameter_base@_WV?$string_output_adapter@_W@__crt_stdio_output@@@__crt_stdio_output@@CA?AW4parameter_type@12@H@Z 10142214 f i libucrt:output.obj
 0001:00141218       ?get_parameter_type@?$positional_parameter_base@_WV?$string_output_adapter@_W@__crt_stdio_output@@@__crt_stdio_output@@CA?AW4parameter_type@12@I@Z 10142218 f i libucrt:output.obj
 0001:0014121c       ?get_parameter_type@?$positional_parameter_base@_WV?$string_output_adapter@_W@__crt_stdio_output@@@__crt_stdio_output@@CA?AW4parameter_type@12@U_CRT_DOUBLE@@@Z 1014221c f i libucrt:output.obj
 0001:00141220       ?get_parameter_type@?$positional_parameter_base@_WV?$string_output_adapter@_W@__crt_stdio_output@@@__crt_stdio_output@@CA?AW4parameter_type@12@_J@Z 10142220 f i libucrt:output.obj
 0001:00141224       ?get_parameter_type@?$positional_parameter_base@_WV?$string_output_adapter@_W@__crt_stdio_output@@@__crt_stdio_output@@CA?AW4parameter_type@12@_K@Z 10142224 f i libucrt:output.obj
 0001:00141228       ?get_parameter_type@?$positional_parameter_base@_WV?$string_output_adapter@_W@__crt_stdio_output@@@__crt_stdio_output@@CA?AW4parameter_type@12@_W@Z 10142228 f i libucrt:output.obj
 0001:0014122c       ?has_flag@?$output_processor@DV?$stream_output_adapter@D@__crt_stdio_output@@V?$format_validation_base@DV?$stream_output_adapter@D@__crt_stdio_output@@@2@@__crt_stdio_output@@ABE_NI@Z 1014222c f i libucrt:output.obj
 0001:00141241       ?has_flag@?$output_processor@DV?$stream_output_adapter@D@__crt_stdio_output@@V?$positional_parameter_base@DV?$stream_output_adapter@D@__crt_stdio_output@@@2@@__crt_stdio_output@@ABE_NI@Z 10142241 f i libucrt:output.obj
 0001:00141256       ?has_flag@?$output_processor@DV?$stream_output_adapter@D@__crt_stdio_output@@V?$standard_base@DV?$stream_output_adapter@D@__crt_stdio_output@@@2@@__crt_stdio_output@@ABE_NI@Z 10142256 f i libucrt:output.obj
 0001:0014126b       ?has_flag@?$output_processor@DV?$string_output_adapter@D@__crt_stdio_output@@V?$format_validation_base@DV?$string_output_adapter@D@__crt_stdio_output@@@2@@__crt_stdio_output@@ABE_NI@Z 1014226b f i libucrt:output.obj
 0001:00141280       ?has_flag@?$output_processor@DV?$string_output_adapter@D@__crt_stdio_output@@V?$positional_parameter_base@DV?$string_output_adapter@D@__crt_stdio_output@@@2@@__crt_stdio_output@@ABE_NI@Z 10142280 f i libucrt:output.obj
 0001:00141295       ?has_flag@?$output_processor@DV?$string_output_adapter@D@__crt_stdio_output@@V?$standard_base@DV?$string_output_adapter@D@__crt_stdio_output@@@2@@__crt_stdio_output@@ABE_NI@Z 10142295 f i libucrt:output.obj
 0001:001412aa       ?has_flag@?$output_processor@_WV?$stream_output_adapter@_W@__crt_stdio_output@@V?$format_validation_base@_WV?$stream_output_adapter@_W@__crt_stdio_output@@@2@@__crt_stdio_output@@ABE_NI@Z 101422aa f i libucrt:output.obj
 0001:001412bf       ?has_flag@?$output_processor@_WV?$stream_output_adapter@_W@__crt_stdio_output@@V?$positional_parameter_base@_WV?$stream_output_adapter@_W@__crt_stdio_output@@@2@@__crt_stdio_output@@ABE_NI@Z 101422bf f i libucrt:output.obj
 0001:001412d4       ?has_flag@?$output_processor@_WV?$stream_output_adapter@_W@__crt_stdio_output@@V?$standard_base@_WV?$stream_output_adapter@_W@__crt_stdio_output@@@2@@__crt_stdio_output@@ABE_NI@Z 101422d4 f i libucrt:output.obj
 0001:001412e9       ?has_flag@?$output_processor@_WV?$string_output_adapter@_W@__crt_stdio_output@@V?$format_validation_base@_WV?$string_output_adapter@_W@__crt_stdio_output@@@2@@__crt_stdio_output@@ABE_NI@Z 101422e9 f i libucrt:output.obj
 0001:001412fe       ?has_flag@?$output_processor@_WV?$string_output_adapter@_W@__crt_stdio_output@@V?$positional_parameter_base@_WV?$string_output_adapter@_W@__crt_stdio_output@@@2@@__crt_stdio_output@@ABE_NI@Z 101422fe f i libucrt:output.obj
 0001:00141313       ?has_flag@?$output_processor@_WV?$string_output_adapter@_W@__crt_stdio_output@@V?$standard_base@_WV?$string_output_adapter@_W@__crt_stdio_output@@@2@@__crt_stdio_output@@ABE_NI@Z 10142313 f i libucrt:output.obj
 0001:00141328       ?is_positional_parameter_reappearance_consistent@?$positional_parameter_base@DV?$stream_output_adapter@D@__crt_stdio_output@@@__crt_stdio_output@@AAE_NABUparameter_data@12@W4parameter_type@12@DW4length_modifier@2@@Z 10142328 f i libucrt:output.obj
 0001:00141456       ?is_positional_parameter_reappearance_consistent@?$positional_parameter_base@DV?$string_output_adapter@D@__crt_stdio_output@@@__crt_stdio_output@@AAE_NABUparameter_data@12@W4parameter_type@12@DW4length_modifier@2@@Z 10142456 f i libucrt:output.obj
 0001:00141584       ?is_positional_parameter_reappearance_consistent@?$positional_parameter_base@_WV?$stream_output_adapter@_W@__crt_stdio_output@@@__crt_stdio_output@@AAE_NABUparameter_data@12@W4parameter_type@12@_WW4length_modifier@2@@Z 10142584 f i libucrt:output.obj
 0001:001416a7       ?is_positional_parameter_reappearance_consistent@?$positional_parameter_base@_WV?$string_output_adapter@_W@__crt_stdio_output@@@__crt_stdio_output@@AAE_NABUparameter_data@12@W4parameter_type@12@_WW4length_modifier@2@@Z 101426a7 f i libucrt:output.obj
 0001:001417ca       ?narrow_null_string@?$output_processor@DV?$stream_output_adapter@D@__crt_stdio_output@@V?$format_validation_base@DV?$stream_output_adapter@D@__crt_stdio_output@@@2@@__crt_stdio_output@@CAPADXZ 101427ca f i libucrt:output.obj
 0001:001417d0       ?narrow_null_string@?$output_processor@DV?$stream_output_adapter@D@__crt_stdio_output@@V?$positional_parameter_base@DV?$stream_output_adapter@D@__crt_stdio_output@@@2@@__crt_stdio_output@@CAPADXZ 101427d0 f i libucrt:output.obj
 0001:001417d6       ?narrow_null_string@?$output_processor@DV?$stream_output_adapter@D@__crt_stdio_output@@V?$standard_base@DV?$stream_output_adapter@D@__crt_stdio_output@@@2@@__crt_stdio_output@@CAPADXZ 101427d6 f i libucrt:output.obj
 0001:001417dc       ?narrow_null_string@?$output_processor@DV?$string_output_adapter@D@__crt_stdio_output@@V?$format_validation_base@DV?$string_output_adapter@D@__crt_stdio_output@@@2@@__crt_stdio_output@@CAPADXZ 101427dc f i libucrt:output.obj
 0001:001417e2       ?narrow_null_string@?$output_processor@DV?$string_output_adapter@D@__crt_stdio_output@@V?$positional_parameter_base@DV?$string_output_adapter@D@__crt_stdio_output@@@2@@__crt_stdio_output@@CAPADXZ 101427e2 f i libucrt:output.obj
 0001:001417e8       ?narrow_null_string@?$output_processor@DV?$string_output_adapter@D@__crt_stdio_output@@V?$standard_base@DV?$string_output_adapter@D@__crt_stdio_output@@@2@@__crt_stdio_output@@CAPADXZ 101427e8 f i libucrt:output.obj
 0001:001417ee       ?narrow_null_string@?$output_processor@_WV?$stream_output_adapter@_W@__crt_stdio_output@@V?$format_validation_base@_WV?$stream_output_adapter@_W@__crt_stdio_output@@@2@@__crt_stdio_output@@CAPADXZ 101427ee f i libucrt:output.obj
 0001:001417f4       ?narrow_null_string@?$output_processor@_WV?$stream_output_adapter@_W@__crt_stdio_output@@V?$positional_parameter_base@_WV?$stream_output_adapter@_W@__crt_stdio_output@@@2@@__crt_stdio_output@@CAPADXZ 101427f4 f i libucrt:output.obj
 0001:001417fa       ?narrow_null_string@?$output_processor@_WV?$stream_output_adapter@_W@__crt_stdio_output@@V?$standard_base@_WV?$stream_output_adapter@_W@__crt_stdio_output@@@2@@__crt_stdio_output@@CAPADXZ 101427fa f i libucrt:output.obj
 0001:00141800       ?narrow_null_string@?$output_processor@_WV?$string_output_adapter@_W@__crt_stdio_output@@V?$format_validation_base@_WV?$string_output_adapter@_W@__crt_stdio_output@@@2@@__crt_stdio_output@@CAPADXZ 10142800 f i libucrt:output.obj
 0001:00141806       ?narrow_null_string@?$output_processor@_WV?$string_output_adapter@_W@__crt_stdio_output@@V?$positional_parameter_base@_WV?$string_output_adapter@_W@__crt_stdio_output@@@2@@__crt_stdio_output@@CAPADXZ 10142806 f i libucrt:output.obj
 0001:0014180c       ?narrow_null_string@?$output_processor@_WV?$string_output_adapter@_W@__crt_stdio_output@@V?$standard_base@_WV?$string_output_adapter@_W@__crt_stdio_output@@@2@@__crt_stdio_output@@CAPADXZ 1014280c f i libucrt:output.obj
 0001:00141812       ?parse_int_from_format_string@?$output_processor@DV?$stream_output_adapter@D@__crt_stdio_output@@V?$format_validation_base@DV?$stream_output_adapter@D@__crt_stdio_output@@@2@@__crt_stdio_output@@AAE_NQAH@Z 10142812 f i libucrt:output.obj
 0001:0014186e       ?parse_int_from_format_string@?$output_processor@DV?$stream_output_adapter@D@__crt_stdio_output@@V?$positional_parameter_base@DV?$stream_output_adapter@D@__crt_stdio_output@@@2@@__crt_stdio_output@@AAE_NQAH@Z 1014286e f i libucrt:output.obj
 0001:001418ca       ?parse_int_from_format_string@?$output_processor@DV?$stream_output_adapter@D@__crt_stdio_output@@V?$standard_base@DV?$stream_output_adapter@D@__crt_stdio_output@@@2@@__crt_stdio_output@@AAE_NQAH@Z 101428ca f i libucrt:output.obj
 0001:00141926       ?parse_int_from_format_string@?$output_processor@DV?$string_output_adapter@D@__crt_stdio_output@@V?$format_validation_base@DV?$string_output_adapter@D@__crt_stdio_output@@@2@@__crt_stdio_output@@AAE_NQAH@Z 10142926 f i libucrt:output.obj
 0001:00141982       ?parse_int_from_format_string@?$output_processor@DV?$string_output_adapter@D@__crt_stdio_output@@V?$positional_parameter_base@DV?$string_output_adapter@D@__crt_stdio_output@@@2@@__crt_stdio_output@@AAE_NQAH@Z 10142982 f i libucrt:output.obj
 0001:001419de       ?parse_int_from_format_string@?$output_processor@DV?$string_output_adapter@D@__crt_stdio_output@@V?$standard_base@DV?$string_output_adapter@D@__crt_stdio_output@@@2@@__crt_stdio_output@@AAE_NQAH@Z 101429de f i libucrt:output.obj
 0001:00141a3a       ?parse_int_from_format_string@?$output_processor@_WV?$stream_output_adapter@_W@__crt_stdio_output@@V?$format_validation_base@_WV?$stream_output_adapter@_W@__crt_stdio_output@@@2@@__crt_stdio_output@@AAE_NQAH@Z 10142a3a f i libucrt:output.obj
 0001:00141a98       ?parse_int_from_format_string@?$output_processor@_WV?$stream_output_adapter@_W@__crt_stdio_output@@V?$positional_parameter_base@_WV?$stream_output_adapter@_W@__crt_stdio_output@@@2@@__crt_stdio_output@@AAE_NQAH@Z 10142a98 f i libucrt:output.obj
 0001:00141af6       ?parse_int_from_format_string@?$output_processor@_WV?$stream_output_adapter@_W@__crt_stdio_output@@V?$standard_base@_WV?$stream_output_adapter@_W@__crt_stdio_output@@@2@@__crt_stdio_output@@AAE_NQAH@Z 10142af6 f i libucrt:output.obj
 0001:00141b54       ?parse_int_from_format_string@?$output_processor@_WV?$string_output_adapter@_W@__crt_stdio_output@@V?$format_validation_base@_WV?$string_output_adapter@_W@__crt_stdio_output@@@2@@__crt_stdio_output@@AAE_NQAH@Z 10142b54 f i libucrt:output.obj
 0001:00141bb2       ?parse_int_from_format_string@?$output_processor@_WV?$string_output_adapter@_W@__crt_stdio_output@@V?$positional_parameter_base@_WV?$string_output_adapter@_W@__crt_stdio_output@@@2@@__crt_stdio_output@@AAE_NQAH@Z 10142bb2 f i libucrt:output.obj
 0001:00141c10       ?parse_int_from_format_string@?$output_processor@_WV?$string_output_adapter@_W@__crt_stdio_output@@V?$standard_base@_WV?$string_output_adapter@_W@__crt_stdio_output@@@2@@__crt_stdio_output@@AAE_NQAH@Z 10142c10 f i libucrt:output.obj
 0001:00141c6e       ?process@?$output_processor@DV?$stream_output_adapter@D@__crt_stdio_output@@V?$format_validation_base@DV?$stream_output_adapter@D@__crt_stdio_output@@@2@@__crt_stdio_output@@QAEHXZ 10142c6e f i libucrt:output.obj
 0001:00141d96       ?process@?$output_processor@DV?$stream_output_adapter@D@__crt_stdio_output@@V?$positional_parameter_base@DV?$stream_output_adapter@D@__crt_stdio_output@@@2@@__crt_stdio_output@@QAEHXZ 10142d96 f i libucrt:output.obj
 0001:00141ef4       ?process@?$output_processor@DV?$stream_output_adapter@D@__crt_stdio_output@@V?$standard_base@DV?$stream_output_adapter@D@__crt_stdio_output@@@2@@__crt_stdio_output@@QAEHXZ 10142ef4 f i libucrt:output.obj
 0001:00142010       ?process@?$output_processor@DV?$string_output_adapter@D@__crt_stdio_output@@V?$format_validation_base@DV?$string_output_adapter@D@__crt_stdio_output@@@2@@__crt_stdio_output@@QAEHXZ 10143010 f i libucrt:output.obj
 0001:00142138       ?process@?$output_processor@DV?$string_output_adapter@D@__crt_stdio_output@@V?$positional_parameter_base@DV?$string_output_adapter@D@__crt_stdio_output@@@2@@__crt_stdio_output@@QAEHXZ 10143138 f i libucrt:output.obj
 0001:00142294       ?process@?$output_processor@DV?$string_output_adapter@D@__crt_stdio_output@@V?$standard_base@DV?$string_output_adapter@D@__crt_stdio_output@@@2@@__crt_stdio_output@@QAEHXZ 10143294 f i libucrt:output.obj
 0001:001423b0       ?process@?$output_processor@_WV?$stream_output_adapter@_W@__crt_stdio_output@@V?$format_validation_base@_WV?$stream_output_adapter@_W@__crt_stdio_output@@@2@@__crt_stdio_output@@QAEHXZ 101433b0 f i libucrt:output.obj
 0001:001424e0       ?process@?$output_processor@_WV?$stream_output_adapter@_W@__crt_stdio_output@@V?$positional_parameter_base@_WV?$stream_output_adapter@_W@__crt_stdio_output@@@2@@__crt_stdio_output@@QAEHXZ 101434e0 f i libucrt:output.obj
 0001:00142640       ?process@?$output_processor@_WV?$stream_output_adapter@_W@__crt_stdio_output@@V?$standard_base@_WV?$stream_output_adapter@_W@__crt_stdio_output@@@2@@__crt_stdio_output@@QAEHXZ 10143640 f i libucrt:output.obj
 0001:00142760       ?process@?$output_processor@_WV?$string_output_adapter@_W@__crt_stdio_output@@V?$format_validation_base@_WV?$string_output_adapter@_W@__crt_stdio_output@@@2@@__crt_stdio_output@@QAEHXZ 10143760 f i libucrt:output.obj
 0001:00142890       ?process@?$output_processor@_WV?$string_output_adapter@_W@__crt_stdio_output@@V?$positional_parameter_base@_WV?$string_output_adapter@_W@__crt_stdio_output@@@2@@__crt_stdio_output@@QAEHXZ 10143890 f i libucrt:output.obj
 0001:001429f0       ?process@?$output_processor@_WV?$string_output_adapter@_W@__crt_stdio_output@@V?$standard_base@_WV?$string_output_adapter@_W@__crt_stdio_output@@@2@@__crt_stdio_output@@QAEHXZ 101439f0 f i libucrt:output.obj
 0001:00142b10       ?set_flag@?$output_processor@DV?$stream_output_adapter@D@__crt_stdio_output@@V?$format_validation_base@DV?$stream_output_adapter@D@__crt_stdio_output@@@2@@__crt_stdio_output@@AAEXI@Z 10143b10 f i libucrt:output.obj
 0001:00142b1f       ?set_flag@?$output_processor@DV?$stream_output_adapter@D@__crt_stdio_output@@V?$positional_parameter_base@DV?$stream_output_adapter@D@__crt_stdio_output@@@2@@__crt_stdio_output@@AAEXI@Z 10143b1f f i libucrt:output.obj
 0001:00142b2e       ?set_flag@?$output_processor@DV?$stream_output_adapter@D@__crt_stdio_output@@V?$standard_base@DV?$stream_output_adapter@D@__crt_stdio_output@@@2@@__crt_stdio_output@@AAEXI@Z 10143b2e f i libucrt:output.obj
 0001:00142b3d       ?set_flag@?$output_processor@DV?$string_output_adapter@D@__crt_stdio_output@@V?$format_validation_base@DV?$string_output_adapter@D@__crt_stdio_output@@@2@@__crt_stdio_output@@AAEXI@Z 10143b3d f i libucrt:output.obj
 0001:00142b4c       ?set_flag@?$output_processor@DV?$string_output_adapter@D@__crt_stdio_output@@V?$positional_parameter_base@DV?$string_output_adapter@D@__crt_stdio_output@@@2@@__crt_stdio_output@@AAEXI@Z 10143b4c f i libucrt:output.obj
 0001:00142b5b       ?set_flag@?$output_processor@DV?$string_output_adapter@D@__crt_stdio_output@@V?$standard_base@DV?$string_output_adapter@D@__crt_stdio_output@@@2@@__crt_stdio_output@@AAEXI@Z 10143b5b f i libucrt:output.obj
 0001:00142b6a       ?set_flag@?$output_processor@_WV?$stream_output_adapter@_W@__crt_stdio_output@@V?$format_validation_base@_WV?$stream_output_adapter@_W@__crt_stdio_output@@@2@@__crt_stdio_output@@AAEXI@Z 10143b6a f i libucrt:output.obj
 0001:00142b79       ?set_flag@?$output_processor@_WV?$stream_output_adapter@_W@__crt_stdio_output@@V?$positional_parameter_base@_WV?$stream_output_adapter@_W@__crt_stdio_output@@@2@@__crt_stdio_output@@AAEXI@Z 10143b79 f i libucrt:output.obj
 0001:00142b88       ?set_flag@?$output_processor@_WV?$stream_output_adapter@_W@__crt_stdio_output@@V?$standard_base@_WV?$stream_output_adapter@_W@__crt_stdio_output@@@2@@__crt_stdio_output@@AAEXI@Z 10143b88 f i libucrt:output.obj
 0001:00142b97       ?set_flag@?$output_processor@_WV?$string_output_adapter@_W@__crt_stdio_output@@V?$format_validation_base@_WV?$string_output_adapter@_W@__crt_stdio_output@@@2@@__crt_stdio_output@@AAEXI@Z 10143b97 f i libucrt:output.obj
 0001:00142ba6       ?set_flag@?$output_processor@_WV?$string_output_adapter@_W@__crt_stdio_output@@V?$positional_parameter_base@_WV?$string_output_adapter@_W@__crt_stdio_output@@@2@@__crt_stdio_output@@AAEXI@Z 10143ba6 f i libucrt:output.obj
 0001:00142bb5       ?set_flag@?$output_processor@_WV?$string_output_adapter@_W@__crt_stdio_output@@V?$standard_base@_WV?$string_output_adapter@_W@__crt_stdio_output@@@2@@__crt_stdio_output@@AAEXI@Z 10143bb5 f i libucrt:output.obj
 0001:00142bc4       ?should_format@?$positional_parameter_base@DV?$stream_output_adapter@D@__crt_stdio_output@@@__crt_stdio_output@@IAE_NXZ 10143bc4 f i libucrt:output.obj
 0001:00142bda       ?should_format@?$positional_parameter_base@DV?$string_output_adapter@D@__crt_stdio_output@@@__crt_stdio_output@@IAE_NXZ 10143bda f i libucrt:output.obj
 0001:00142bf0       ?should_format@?$positional_parameter_base@_WV?$stream_output_adapter@_W@__crt_stdio_output@@@__crt_stdio_output@@IAE_NXZ 10143bf0 f i libucrt:output.obj
 0001:00142c06       ?should_format@?$positional_parameter_base@_WV?$string_output_adapter@_W@__crt_stdio_output@@@__crt_stdio_output@@IAE_NXZ 10143c06 f i libucrt:output.obj
 0001:00142c1c       ?should_format@?$standard_base@DV?$stream_output_adapter@D@__crt_stdio_output@@@__crt_stdio_output@@IAE_NXZ 10143c1c f i libucrt:output.obj
 0001:00142c1f       ?should_format@?$standard_base@DV?$string_output_adapter@D@__crt_stdio_output@@@__crt_stdio_output@@IAE_NXZ 10143c1f f i libucrt:output.obj
 0001:00142c22       ?should_format@?$standard_base@_WV?$stream_output_adapter@_W@__crt_stdio_output@@@__crt_stdio_output@@IAE_NXZ 10143c22 f i libucrt:output.obj
 0001:00142c25       ?should_format@?$standard_base@_WV?$string_output_adapter@_W@__crt_stdio_output@@@__crt_stdio_output@@IAE_NXZ 10143c25 f i libucrt:output.obj
 0001:00142c28       ?should_skip_normal_state_processing@?$positional_parameter_base@DV?$stream_output_adapter@D@__crt_stdio_output@@@__crt_stdio_output@@IAE_NXZ 10143c28 f i libucrt:output.obj
 0001:00142c50       ?should_skip_normal_state_processing@?$positional_parameter_base@DV?$string_output_adapter@D@__crt_stdio_output@@@__crt_stdio_output@@IAE_NXZ 10143c50 f i libucrt:output.obj
 0001:00142c78       ?should_skip_normal_state_processing@?$positional_parameter_base@_WV?$stream_output_adapter@_W@__crt_stdio_output@@@__crt_stdio_output@@IAE_NXZ 10143c78 f i libucrt:output.obj
 0001:00142ca0       ?should_skip_normal_state_processing@?$positional_parameter_base@_WV?$string_output_adapter@_W@__crt_stdio_output@@@__crt_stdio_output@@IAE_NXZ 10143ca0 f i libucrt:output.obj
 0001:00142cc8       ?should_skip_normal_state_processing@?$standard_base@DV?$stream_output_adapter@D@__crt_stdio_output@@@__crt_stdio_output@@IAE_NXZ 10143cc8 f i libucrt:output.obj
 0001:00142ccb       ?should_skip_normal_state_processing@?$standard_base@DV?$string_output_adapter@D@__crt_stdio_output@@@__crt_stdio_output@@IAE_NXZ 10143ccb f i libucrt:output.obj
 0001:00142cce       ?should_skip_normal_state_processing@?$standard_base@_WV?$stream_output_adapter@_W@__crt_stdio_output@@@__crt_stdio_output@@IAE_NXZ 10143cce f i libucrt:output.obj
 0001:00142cd1       ?should_skip_normal_state_processing@?$standard_base@_WV?$string_output_adapter@_W@__crt_stdio_output@@@__crt_stdio_output@@IAE_NXZ 10143cd1 f i libucrt:output.obj
 0001:00142cd4       ?should_skip_type_state_output@?$positional_parameter_base@DV?$stream_output_adapter@D@__crt_stdio_output@@@__crt_stdio_output@@IBE_NXZ 10143cd4 f i libucrt:output.obj
 0001:00142ceb       ?should_skip_type_state_output@?$positional_parameter_base@DV?$string_output_adapter@D@__crt_stdio_output@@@__crt_stdio_output@@IBE_NXZ 10143ceb f i libucrt:output.obj
 0001:00142d02       ?should_skip_type_state_output@?$positional_parameter_base@_WV?$stream_output_adapter@_W@__crt_stdio_output@@@__crt_stdio_output@@IBE_NXZ 10143d02 f i libucrt:output.obj
 0001:00142d19       ?should_skip_type_state_output@?$positional_parameter_base@_WV?$string_output_adapter@_W@__crt_stdio_output@@@__crt_stdio_output@@IBE_NXZ 10143d19 f i libucrt:output.obj
 0001:00142d30       ?should_skip_type_state_output@?$standard_base@DV?$stream_output_adapter@D@__crt_stdio_output@@@__crt_stdio_output@@IBE_NXZ 10143d30 f i libucrt:output.obj
 0001:00142d33       ?should_skip_type_state_output@?$standard_base@DV?$string_output_adapter@D@__crt_stdio_output@@@__crt_stdio_output@@IBE_NXZ 10143d33 f i libucrt:output.obj
 0001:00142d36       ?should_skip_type_state_output@?$standard_base@_WV?$stream_output_adapter@_W@__crt_stdio_output@@@__crt_stdio_output@@IBE_NXZ 10143d36 f i libucrt:output.obj
 0001:00142d39       ?should_skip_type_state_output@?$standard_base@_WV?$string_output_adapter@_W@__crt_stdio_output@@@__crt_stdio_output@@IBE_NXZ 10143d39 f i libucrt:output.obj
 0001:00142d3c       ?state_case_dot@?$output_processor@DV?$stream_output_adapter@D@__crt_stdio_output@@V?$format_validation_base@DV?$stream_output_adapter@D@__crt_stdio_output@@@2@@__crt_stdio_output@@AAE_NXZ 10143d3c f i libucrt:output.obj
 0001:00142d43       ?state_case_dot@?$output_processor@DV?$stream_output_adapter@D@__crt_stdio_output@@V?$positional_parameter_base@DV?$stream_output_adapter@D@__crt_stdio_output@@@2@@__crt_stdio_output@@AAE_NXZ 10143d43 f i libucrt:output.obj
 0001:00142d4a       ?state_case_dot@?$output_processor@DV?$stream_output_adapter@D@__crt_stdio_output@@V?$standard_base@DV?$stream_output_adapter@D@__crt_stdio_output@@@2@@__crt_stdio_output@@AAE_NXZ 10143d4a f i libucrt:output.obj
 0001:00142d51       ?state_case_dot@?$output_processor@DV?$string_output_adapter@D@__crt_stdio_output@@V?$format_validation_base@DV?$string_output_adapter@D@__crt_stdio_output@@@2@@__crt_stdio_output@@AAE_NXZ 10143d51 f i libucrt:output.obj
 0001:00142d58       ?state_case_dot@?$output_processor@DV?$string_output_adapter@D@__crt_stdio_output@@V?$positional_parameter_base@DV?$string_output_adapter@D@__crt_stdio_output@@@2@@__crt_stdio_output@@AAE_NXZ 10143d58 f i libucrt:output.obj
 0001:00142d5f       ?state_case_dot@?$output_processor@DV?$string_output_adapter@D@__crt_stdio_output@@V?$standard_base@DV?$string_output_adapter@D@__crt_stdio_output@@@2@@__crt_stdio_output@@AAE_NXZ 10143d5f f i libucrt:output.obj
 0001:00142d66       ?state_case_dot@?$output_processor@_WV?$stream_output_adapter@_W@__crt_stdio_output@@V?$format_validation_base@_WV?$stream_output_adapter@_W@__crt_stdio_output@@@2@@__crt_stdio_output@@AAE_NXZ 10143d66 f i libucrt:output.obj
 0001:00142d6d       ?state_case_dot@?$output_processor@_WV?$stream_output_adapter@_W@__crt_stdio_output@@V?$positional_parameter_base@_WV?$stream_output_adapter@_W@__crt_stdio_output@@@2@@__crt_stdio_output@@AAE_NXZ 10143d6d f i libucrt:output.obj
 0001:00142d74       ?state_case_dot@?$output_processor@_WV?$stream_output_adapter@_W@__crt_stdio_output@@V?$standard_base@_WV?$stream_output_adapter@_W@__crt_stdio_output@@@2@@__crt_stdio_output@@AAE_NXZ 10143d74 f i libucrt:output.obj
 0001:00142d7b       ?state_case_dot@?$output_processor@_WV?$string_output_adapter@_W@__crt_stdio_output@@V?$format_validation_base@_WV?$string_output_adapter@_W@__crt_stdio_output@@@2@@__crt_stdio_output@@AAE_NXZ 10143d7b f i libucrt:output.obj
 0001:00142d82       ?state_case_dot@?$output_processor@_WV?$string_output_adapter@_W@__crt_stdio_output@@V?$positional_parameter_base@_WV?$string_output_adapter@_W@__crt_stdio_output@@@2@@__crt_stdio_output@@AAE_NXZ 10143d82 f i libucrt:output.obj
 0001:00142d89       ?state_case_dot@?$output_processor@_WV?$string_output_adapter@_W@__crt_stdio_output@@V?$standard_base@_WV?$string_output_adapter@_W@__crt_stdio_output@@@2@@__crt_stdio_output@@AAE_NXZ 10143d89 f i libucrt:output.obj
 0001:00142d90       ?state_case_flag@?$output_processor@DV?$stream_output_adapter@D@__crt_stdio_output@@V?$format_validation_base@DV?$stream_output_adapter@D@__crt_stdio_output@@@2@@__crt_stdio_output@@AAE_NXZ 10143d90 f i libucrt:output.obj
 0001:00142dcd       ?state_case_flag@?$output_processor@DV?$stream_output_adapter@D@__crt_stdio_output@@V?$positional_parameter_base@DV?$stream_output_adapter@D@__crt_stdio_output@@@2@@__crt_stdio_output@@AAE_NXZ 10143dcd f i libucrt:output.obj
 0001:00142e0a       ?state_case_flag@?$output_processor@DV?$stream_output_adapter@D@__crt_stdio_output@@V?$standard_base@DV?$stream_output_adapter@D@__crt_stdio_output@@@2@@__crt_stdio_output@@AAE_NXZ 10143e0a f i libucrt:output.obj
 0001:00142e47       ?state_case_flag@?$output_processor@DV?$string_output_adapter@D@__crt_stdio_output@@V?$format_validation_base@DV?$string_output_adapter@D@__crt_stdio_output@@@2@@__crt_stdio_output@@AAE_NXZ 10143e47 f i libucrt:output.obj
 0001:00142e84       ?state_case_flag@?$output_processor@DV?$string_output_adapter@D@__crt_stdio_output@@V?$positional_parameter_base@DV?$string_output_adapter@D@__crt_stdio_output@@@2@@__crt_stdio_output@@AAE_NXZ 10143e84 f i libucrt:output.obj
 0001:00142ec1       ?state_case_flag@?$output_processor@DV?$string_output_adapter@D@__crt_stdio_output@@V?$standard_base@DV?$string_output_adapter@D@__crt_stdio_output@@@2@@__crt_stdio_output@@AAE_NXZ 10143ec1 f i libucrt:output.obj
 0001:00142efe       ?state_case_flag@?$output_processor@_WV?$stream_output_adapter@_W@__crt_stdio_output@@V?$format_validation_base@_WV?$stream_output_adapter@_W@__crt_stdio_output@@@2@@__crt_stdio_output@@AAE_NXZ 10143efe f i libucrt:output.obj
 0001:00142f3b       ?state_case_flag@?$output_processor@_WV?$stream_output_adapter@_W@__crt_stdio_output@@V?$positional_parameter_base@_WV?$stream_output_adapter@_W@__crt_stdio_output@@@2@@__crt_stdio_output@@AAE_NXZ 10143f3b f i libucrt:output.obj
 0001:00142f78       ?state_case_flag@?$output_processor@_WV?$stream_output_adapter@_W@__crt_stdio_output@@V?$standard_base@_WV?$stream_output_adapter@_W@__crt_stdio_output@@@2@@__crt_stdio_output@@AAE_NXZ 10143f78 f i libucrt:output.obj
 0001:00142fb5       ?state_case_flag@?$output_processor@_WV?$string_output_adapter@_W@__crt_stdio_output@@V?$format_validation_base@_WV?$string_output_adapter@_W@__crt_stdio_output@@@2@@__crt_stdio_output@@AAE_NXZ 10143fb5 f i libucrt:output.obj
 0001:00142ff2       ?state_case_flag@?$output_processor@_WV?$string_output_adapter@_W@__crt_stdio_output@@V?$positional_parameter_base@_WV?$string_output_adapter@_W@__crt_stdio_output@@@2@@__crt_stdio_output@@AAE_NXZ 10143ff2 f i libucrt:output.obj
 0001:0014302f       ?state_case_flag@?$output_processor@_WV?$string_output_adapter@_W@__crt_stdio_output@@V?$standard_base@_WV?$string_output_adapter@_W@__crt_stdio_output@@@2@@__crt_stdio_output@@AAE_NXZ 1014402f f i libucrt:output.obj
 0001:0014306c       ?state_case_normal@?$output_processor@DV?$stream_output_adapter@D@__crt_stdio_output@@V?$format_validation_base@DV?$stream_output_adapter@D@__crt_stdio_output@@@2@@__crt_stdio_output@@AAE_NXZ 1014406c f i libucrt:output.obj
 0001:0014308b       ?state_case_normal@?$output_processor@DV?$stream_output_adapter@D@__crt_stdio_output@@V?$positional_parameter_base@DV?$stream_output_adapter@D@__crt_stdio_output@@@2@@__crt_stdio_output@@AAE_NXZ 1014408b f i libucrt:output.obj
 0001:001430bc       ?state_case_normal@?$output_processor@DV?$stream_output_adapter@D@__crt_stdio_output@@V?$standard_base@DV?$stream_output_adapter@D@__crt_stdio_output@@@2@@__crt_stdio_output@@AAE_NXZ 101440bc f i libucrt:output.obj
 0001:001430db       ?state_case_normal@?$output_processor@DV?$string_output_adapter@D@__crt_stdio_output@@V?$format_validation_base@DV?$string_output_adapter@D@__crt_stdio_output@@@2@@__crt_stdio_output@@AAE_NXZ 101440db f i libucrt:output.obj
 0001:001430fa       ?state_case_normal@?$output_processor@DV?$string_output_adapter@D@__crt_stdio_output@@V?$positional_parameter_base@DV?$string_output_adapter@D@__crt_stdio_output@@@2@@__crt_stdio_output@@AAE_NXZ 101440fa f i libucrt:output.obj
 0001:0014312b       ?state_case_normal@?$output_processor@DV?$string_output_adapter@D@__crt_stdio_output@@V?$standard_base@DV?$string_output_adapter@D@__crt_stdio_output@@@2@@__crt_stdio_output@@AAE_NXZ 1014412b f i libucrt:output.obj
 0001:0014314a       ?state_case_normal@?$output_processor@_WV?$stream_output_adapter@_W@__crt_stdio_output@@V?$format_validation_base@_WV?$stream_output_adapter@_W@__crt_stdio_output@@@2@@__crt_stdio_output@@AAE_NXZ 1014414a f i libucrt:output.obj
 0001:00143169       ?state_case_normal@?$output_processor@_WV?$stream_output_adapter@_W@__crt_stdio_output@@V?$positional_parameter_base@_WV?$stream_output_adapter@_W@__crt_stdio_output@@@2@@__crt_stdio_output@@AAE_NXZ 10144169 f i libucrt:output.obj
 0001:0014319a       ?state_case_normal@?$output_processor@_WV?$stream_output_adapter@_W@__crt_stdio_output@@V?$standard_base@_WV?$stream_output_adapter@_W@__crt_stdio_output@@@2@@__crt_stdio_output@@AAE_NXZ 1014419a f i libucrt:output.obj
 0001:001431b9       ?state_case_normal@?$output_processor@_WV?$string_output_adapter@_W@__crt_stdio_output@@V?$format_validation_base@_WV?$string_output_adapter@_W@__crt_stdio_output@@@2@@__crt_stdio_output@@AAE_NXZ 101441b9 f i libucrt:output.obj
 0001:001431d8       ?state_case_normal@?$output_processor@_WV?$string_output_adapter@_W@__crt_stdio_output@@V?$positional_parameter_base@_WV?$string_output_adapter@_W@__crt_stdio_output@@@2@@__crt_stdio_output@@AAE_NXZ 101441d8 f i libucrt:output.obj
 0001:00143209       ?state_case_normal@?$output_processor@_WV?$string_output_adapter@_W@__crt_stdio_output@@V?$standard_base@_WV?$string_output_adapter@_W@__crt_stdio_output@@@2@@__crt_stdio_output@@AAE_NXZ 10144209 f i libucrt:output.obj
 0001:00143228       ?state_case_normal_common@?$output_processor@DV?$stream_output_adapter@D@__crt_stdio_output@@V?$format_validation_base@DV?$stream_output_adapter@D@__crt_stdio_output@@@2@@__crt_stdio_output@@AAE_NXZ 10144228 f i libucrt:output.obj
 0001:00143252       ?state_case_normal_common@?$output_processor@DV?$stream_output_adapter@D@__crt_stdio_output@@V?$positional_parameter_base@DV?$stream_output_adapter@D@__crt_stdio_output@@@2@@__crt_stdio_output@@AAE_NXZ 10144252 f i libucrt:output.obj
 0001:0014327c       ?state_case_normal_common@?$output_processor@DV?$stream_output_adapter@D@__crt_stdio_output@@V?$standard_base@DV?$stream_output_adapter@D@__crt_stdio_output@@@2@@__crt_stdio_output@@AAE_NXZ 1014427c f i libucrt:output.obj
 0001:001432a6       ?state_case_normal_common@?$output_processor@DV?$string_output_adapter@D@__crt_stdio_output@@V?$format_validation_base@DV?$string_output_adapter@D@__crt_stdio_output@@@2@@__crt_stdio_output@@AAE_NXZ 101442a6 f i libucrt:output.obj
 0001:001432d0       ?state_case_normal_common@?$output_processor@DV?$string_output_adapter@D@__crt_stdio_output@@V?$positional_parameter_base@DV?$string_output_adapter@D@__crt_stdio_output@@@2@@__crt_stdio_output@@AAE_NXZ 101442d0 f i libucrt:output.obj
 0001:001432fa       ?state_case_normal_common@?$output_processor@DV?$string_output_adapter@D@__crt_stdio_output@@V?$standard_base@DV?$string_output_adapter@D@__crt_stdio_output@@@2@@__crt_stdio_output@@AAE_NXZ 101442fa f i libucrt:output.obj
 0001:00143324       ?state_case_normal_common@?$output_processor@_WV?$stream_output_adapter@_W@__crt_stdio_output@@V?$format_validation_base@_WV?$stream_output_adapter@_W@__crt_stdio_output@@@2@@__crt_stdio_output@@AAE_NXZ 10144324 f i libucrt:output.obj
 0001:0014333f       ?state_case_normal_common@?$output_processor@_WV?$stream_output_adapter@_W@__crt_stdio_output@@V?$positional_parameter_base@_WV?$stream_output_adapter@_W@__crt_stdio_output@@@2@@__crt_stdio_output@@AAE_NXZ 1014433f f i libucrt:output.obj
 0001:0014335a       ?state_case_normal_common@?$output_processor@_WV?$stream_output_adapter@_W@__crt_stdio_output@@V?$standard_base@_WV?$stream_output_adapter@_W@__crt_stdio_output@@@2@@__crt_stdio_output@@AAE_NXZ 1014435a f i libucrt:output.obj
 0001:00143375       ?state_case_normal_common@?$output_processor@_WV?$string_output_adapter@_W@__crt_stdio_output@@V?$format_validation_base@_WV?$string_output_adapter@_W@__crt_stdio_output@@@2@@__crt_stdio_output@@AAE_NXZ 10144375 f i libucrt:output.obj
 0001:00143390       ?state_case_normal_common@?$output_processor@_WV?$string_output_adapter@_W@__crt_stdio_output@@V?$positional_parameter_base@_WV?$string_output_adapter@_W@__crt_stdio_output@@@2@@__crt_stdio_output@@AAE_NXZ 10144390 f i libucrt:output.obj
 0001:001433ab       ?state_case_normal_common@?$output_processor@_WV?$string_output_adapter@_W@__crt_stdio_output@@V?$standard_base@_WV?$string_output_adapter@_W@__crt_stdio_output@@@2@@__crt_stdio_output@@AAE_NXZ 101443ab f i libucrt:output.obj
 0001:001433c6       ?state_case_normal_tchar@?$output_processor@DV?$stream_output_adapter@D@__crt_stdio_output@@V?$format_validation_base@DV?$stream_output_adapter@D@__crt_stdio_output@@@2@@__crt_stdio_output@@AAE_ND@Z 101443c6 f i libucrt:output.obj
 0001:00143427       ?state_case_normal_tchar@?$output_processor@DV?$stream_output_adapter@D@__crt_stdio_output@@V?$positional_parameter_base@DV?$stream_output_adapter@D@__crt_stdio_output@@@2@@__crt_stdio_output@@AAE_ND@Z 10144427 f i libucrt:output.obj
 0001:00143488       ?state_case_normal_tchar@?$output_processor@DV?$stream_output_adapter@D@__crt_stdio_output@@V?$standard_base@DV?$stream_output_adapter@D@__crt_stdio_output@@@2@@__crt_stdio_output@@AAE_ND@Z 10144488 f i libucrt:output.obj
 0001:001434e9       ?state_case_normal_tchar@?$output_processor@DV?$string_output_adapter@D@__crt_stdio_output@@V?$format_validation_base@DV?$string_output_adapter@D@__crt_stdio_output@@@2@@__crt_stdio_output@@AAE_ND@Z 101444e9 f i libucrt:output.obj
 0001:0014354a       ?state_case_normal_tchar@?$output_processor@DV?$string_output_adapter@D@__crt_stdio_output@@V?$positional_parameter_base@DV?$string_output_adapter@D@__crt_stdio_output@@@2@@__crt_stdio_output@@AAE_ND@Z 1014454a f i libucrt:output.obj
 0001:001435ab       ?state_case_normal_tchar@?$output_processor@DV?$string_output_adapter@D@__crt_stdio_output@@V?$standard_base@DV?$string_output_adapter@D@__crt_stdio_output@@@2@@__crt_stdio_output@@AAE_ND@Z 101445ab f i libucrt:output.obj
 0001:0014360c       ?state_case_normal_tchar@?$output_processor@_WV?$stream_output_adapter@_W@__crt_stdio_output@@V?$format_validation_base@_WV?$stream_output_adapter@_W@__crt_stdio_output@@@2@@__crt_stdio_output@@AAE_N_W@Z 1014460c f i libucrt:output.obj
 0001:00143615       ?state_case_normal_tchar@?$output_processor@_WV?$stream_output_adapter@_W@__crt_stdio_output@@V?$positional_parameter_base@_WV?$stream_output_adapter@_W@__crt_stdio_output@@@2@@__crt_stdio_output@@AAE_N_W@Z 10144615 f i libucrt:output.obj
 0001:0014361e       ?state_case_normal_tchar@?$output_processor@_WV?$stream_output_adapter@_W@__crt_stdio_output@@V?$standard_base@_WV?$stream_output_adapter@_W@__crt_stdio_output@@@2@@__crt_stdio_output@@AAE_N_W@Z 1014461e f i libucrt:output.obj
 0001:00143627       ?state_case_normal_tchar@?$output_processor@_WV?$string_output_adapter@_W@__crt_stdio_output@@V?$format_validation_base@_WV?$string_output_adapter@_W@__crt_stdio_output@@@2@@__crt_stdio_output@@AAE_N_W@Z 10144627 f i libucrt:output.obj
 0001:00143630       ?state_case_normal_tchar@?$output_processor@_WV?$string_output_adapter@_W@__crt_stdio_output@@V?$positional_parameter_base@_WV?$string_output_adapter@_W@__crt_stdio_output@@@2@@__crt_stdio_output@@AAE_N_W@Z 10144630 f i libucrt:output.obj
 0001:00143639       ?state_case_normal_tchar@?$output_processor@_WV?$string_output_adapter@_W@__crt_stdio_output@@V?$standard_base@_WV?$string_output_adapter@_W@__crt_stdio_output@@@2@@__crt_stdio_output@@AAE_N_W@Z 10144639 f i libucrt:output.obj
 0001:00143642       ?state_case_percent@?$output_processor@DV?$stream_output_adapter@D@__crt_stdio_output@@V?$format_validation_base@DV?$stream_output_adapter@D@__crt_stdio_output@@@2@@__crt_stdio_output@@AAE_NXZ 10144642 f i libucrt:output.obj
 0001:0014365a       ?state_case_percent@?$output_processor@DV?$stream_output_adapter@D@__crt_stdio_output@@V?$positional_parameter_base@DV?$stream_output_adapter@D@__crt_stdio_output@@@2@@__crt_stdio_output@@AAE_NXZ 1014465a f i libucrt:output.obj
 0001:00143672       ?state_case_percent@?$output_processor@DV?$stream_output_adapter@D@__crt_stdio_output@@V?$standard_base@DV?$stream_output_adapter@D@__crt_stdio_output@@@2@@__crt_stdio_output@@AAE_NXZ 10144672 f i libucrt:output.obj
 0001:0014368a       ?state_case_percent@?$output_processor@DV?$string_output_adapter@D@__crt_stdio_output@@V?$format_validation_base@DV?$string_output_adapter@D@__crt_stdio_output@@@2@@__crt_stdio_output@@AAE_NXZ 1014468a f i libucrt:output.obj
 0001:001436a2       ?state_case_percent@?$output_processor@DV?$string_output_adapter@D@__crt_stdio_output@@V?$positional_parameter_base@DV?$string_output_adapter@D@__crt_stdio_output@@@2@@__crt_stdio_output@@AAE_NXZ 101446a2 f i libucrt:output.obj
 0001:001436ba       ?state_case_percent@?$output_processor@DV?$string_output_adapter@D@__crt_stdio_output@@V?$standard_base@DV?$string_output_adapter@D@__crt_stdio_output@@@2@@__crt_stdio_output@@AAE_NXZ 101446ba f i libucrt:output.obj
 0001:001436d2       ?state_case_percent@?$output_processor@_WV?$stream_output_adapter@_W@__crt_stdio_output@@V?$format_validation_base@_WV?$stream_output_adapter@_W@__crt_stdio_output@@@2@@__crt_stdio_output@@AAE_NXZ 101446d2 f i libucrt:output.obj
 0001:001436ea       ?state_case_percent@?$output_processor@_WV?$stream_output_adapter@_W@__crt_stdio_output@@V?$positional_parameter_base@_WV?$stream_output_adapter@_W@__crt_stdio_output@@@2@@__crt_stdio_output@@AAE_NXZ 101446ea f i libucrt:output.obj
 0001:00143702       ?state_case_percent@?$output_processor@_WV?$stream_output_adapter@_W@__crt_stdio_output@@V?$standard_base@_WV?$stream_output_adapter@_W@__crt_stdio_output@@@2@@__crt_stdio_output@@AAE_NXZ 10144702 f i libucrt:output.obj
 0001:0014371a       ?state_case_percent@?$output_processor@_WV?$string_output_adapter@_W@__crt_stdio_output@@V?$format_validation_base@_WV?$string_output_adapter@_W@__crt_stdio_output@@@2@@__crt_stdio_output@@AAE_NXZ 1014471a f i libucrt:output.obj
 0001:00143732       ?state_case_percent@?$output_processor@_WV?$string_output_adapter@_W@__crt_stdio_output@@V?$positional_parameter_base@_WV?$string_output_adapter@_W@__crt_stdio_output@@@2@@__crt_stdio_output@@AAE_NXZ 10144732 f i libucrt:output.obj
 0001:0014374a       ?state_case_percent@?$output_processor@_WV?$string_output_adapter@_W@__crt_stdio_output@@V?$standard_base@_WV?$string_output_adapter@_W@__crt_stdio_output@@@2@@__crt_stdio_output@@AAE_NXZ 1014474a f i libucrt:output.obj
 0001:00143762       ?state_case_precision@?$output_processor@DV?$stream_output_adapter@D@__crt_stdio_output@@V?$format_validation_base@DV?$stream_output_adapter@D@__crt_stdio_output@@@2@@__crt_stdio_output@@AAE_NXZ 10144762 f i libucrt:output.obj
 0001:0014378a       ?state_case_precision@?$output_processor@DV?$stream_output_adapter@D@__crt_stdio_output@@V?$positional_parameter_base@DV?$stream_output_adapter@D@__crt_stdio_output@@@2@@__crt_stdio_output@@AAE_NXZ 1014478a f i libucrt:output.obj
 0001:001437c4       ?state_case_precision@?$output_processor@DV?$stream_output_adapter@D@__crt_stdio_output@@V?$standard_base@DV?$stream_output_adapter@D@__crt_stdio_output@@@2@@__crt_stdio_output@@AAE_NXZ 101447c4 f i libucrt:output.obj
 0001:001437ec       ?state_case_precision@?$output_processor@DV?$string_output_adapter@D@__crt_stdio_output@@V?$format_validation_base@DV?$string_output_adapter@D@__crt_stdio_output@@@2@@__crt_stdio_output@@AAE_NXZ 101447ec f i libucrt:output.obj
 0001:00143814       ?state_case_precision@?$output_processor@DV?$string_output_adapter@D@__crt_stdio_output@@V?$positional_parameter_base@DV?$string_output_adapter@D@__crt_stdio_output@@@2@@__crt_stdio_output@@AAE_NXZ 10144814 f i libucrt:output.obj
 0001:0014384e       ?state_case_precision@?$output_processor@DV?$string_output_adapter@D@__crt_stdio_output@@V?$standard_base@DV?$string_output_adapter@D@__crt_stdio_output@@@2@@__crt_stdio_output@@AAE_NXZ 1014484e f i libucrt:output.obj
 0001:00143876       ?state_case_precision@?$output_processor@_WV?$stream_output_adapter@_W@__crt_stdio_output@@V?$format_validation_base@_WV?$stream_output_adapter@_W@__crt_stdio_output@@@2@@__crt_stdio_output@@AAE_NXZ 10144876 f i libucrt:output.obj
 0001:0014389f       ?state_case_precision@?$output_processor@_WV?$stream_output_adapter@_W@__crt_stdio_output@@V?$positional_parameter_base@_WV?$stream_output_adapter@_W@__crt_stdio_output@@@2@@__crt_stdio_output@@AAE_NXZ 1014489f f i libucrt:output.obj
 0001:001438da       ?state_case_precision@?$output_processor@_WV?$stream_output_adapter@_W@__crt_stdio_output@@V?$standard_base@_WV?$stream_output_adapter@_W@__crt_stdio_output@@@2@@__crt_stdio_output@@AAE_NXZ 101448da f i libucrt:output.obj
 0001:00143903       ?state_case_precision@?$output_processor@_WV?$string_output_adapter@_W@__crt_stdio_output@@V?$format_validation_base@_WV?$string_output_adapter@_W@__crt_stdio_output@@@2@@__crt_stdio_output@@AAE_NXZ 10144903 f i libucrt:output.obj
 0001:0014392c       ?state_case_precision@?$output_processor@_WV?$string_output_adapter@_W@__crt_stdio_output@@V?$positional_parameter_base@_WV?$string_output_adapter@_W@__crt_stdio_output@@@2@@__crt_stdio_output@@AAE_NXZ 1014492c f i libucrt:output.obj
 0001:00143967       ?state_case_precision@?$output_processor@_WV?$string_output_adapter@_W@__crt_stdio_output@@V?$standard_base@_WV?$string_output_adapter@_W@__crt_stdio_output@@@2@@__crt_stdio_output@@AAE_NXZ 10144967 f i libucrt:output.obj
 0001:00143990       ?state_case_size@?$output_processor@DV?$stream_output_adapter@D@__crt_stdio_output@@V?$format_validation_base@DV?$stream_output_adapter@D@__crt_stdio_output@@@2@@__crt_stdio_output@@AAE_NXZ 10144990 f i libucrt:output.obj
 0001:00143af9       ?state_case_size@?$output_processor@DV?$stream_output_adapter@D@__crt_stdio_output@@V?$positional_parameter_base@DV?$stream_output_adapter@D@__crt_stdio_output@@@2@@__crt_stdio_output@@AAE_NXZ 10144af9 f i libucrt:output.obj
 0001:00143c62       ?state_case_size@?$output_processor@DV?$stream_output_adapter@D@__crt_stdio_output@@V?$standard_base@DV?$stream_output_adapter@D@__crt_stdio_output@@@2@@__crt_stdio_output@@AAE_NXZ 10144c62 f i libucrt:output.obj
 0001:00143dcb       ?state_case_size@?$output_processor@DV?$string_output_adapter@D@__crt_stdio_output@@V?$format_validation_base@DV?$string_output_adapter@D@__crt_stdio_output@@@2@@__crt_stdio_output@@AAE_NXZ 10144dcb f i libucrt:output.obj
 0001:00143f34       ?state_case_size@?$output_processor@DV?$string_output_adapter@D@__crt_stdio_output@@V?$positional_parameter_base@DV?$string_output_adapter@D@__crt_stdio_output@@@2@@__crt_stdio_output@@AAE_NXZ 10144f34 f i libucrt:output.obj
 0001:0014409d       ?state_case_size@?$output_processor@DV?$string_output_adapter@D@__crt_stdio_output@@V?$standard_base@DV?$string_output_adapter@D@__crt_stdio_output@@@2@@__crt_stdio_output@@AAE_NXZ 1014509d f i libucrt:output.obj
 0001:00144206       ?state_case_size@?$output_processor@_WV?$stream_output_adapter@_W@__crt_stdio_output@@V?$format_validation_base@_WV?$stream_output_adapter@_W@__crt_stdio_output@@@2@@__crt_stdio_output@@AAE_NXZ 10145206 f i libucrt:output.obj
 0001:00144382       ?state_case_size@?$output_processor@_WV?$stream_output_adapter@_W@__crt_stdio_output@@V?$positional_parameter_base@_WV?$stream_output_adapter@_W@__crt_stdio_output@@@2@@__crt_stdio_output@@AAE_NXZ 10145382 f i libucrt:output.obj
 0001:001444fe       ?state_case_size@?$output_processor@_WV?$stream_output_adapter@_W@__crt_stdio_output@@V?$standard_base@_WV?$stream_output_adapter@_W@__crt_stdio_output@@@2@@__crt_stdio_output@@AAE_NXZ 101454fe f i libucrt:output.obj
 0001:0014467a       ?state_case_size@?$output_processor@_WV?$string_output_adapter@_W@__crt_stdio_output@@V?$format_validation_base@_WV?$string_output_adapter@_W@__crt_stdio_output@@@2@@__crt_stdio_output@@AAE_NXZ 1014567a f i libucrt:output.obj
 0001:001447f6       ?state_case_size@?$output_processor@_WV?$string_output_adapter@_W@__crt_stdio_output@@V?$positional_parameter_base@_WV?$string_output_adapter@_W@__crt_stdio_output@@@2@@__crt_stdio_output@@AAE_NXZ 101457f6 f i libucrt:output.obj
 0001:00144972       ?state_case_size@?$output_processor@_WV?$string_output_adapter@_W@__crt_stdio_output@@V?$standard_base@_WV?$string_output_adapter@_W@__crt_stdio_output@@@2@@__crt_stdio_output@@AAE_NXZ 10145972 f i libucrt:output.obj
 0001:00144aee       ?state_case_type@?$output_processor@DV?$stream_output_adapter@D@__crt_stdio_output@@V?$format_validation_base@DV?$stream_output_adapter@D@__crt_stdio_output@@@2@@__crt_stdio_output@@AAE_NXZ 10145aee f i libucrt:output.obj
 0001:00144d1d       ?state_case_type@?$output_processor@DV?$stream_output_adapter@D@__crt_stdio_output@@V?$positional_parameter_base@DV?$stream_output_adapter@D@__crt_stdio_output@@@2@@__crt_stdio_output@@AAE_NXZ 10145d1d f i libucrt:output.obj
 0001:00144f57       ?state_case_type@?$output_processor@DV?$stream_output_adapter@D@__crt_stdio_output@@V?$standard_base@DV?$stream_output_adapter@D@__crt_stdio_output@@@2@@__crt_stdio_output@@AAE_NXZ 10145f57 f i libucrt:output.obj
 0001:00145186       ?state_case_type@?$output_processor@DV?$string_output_adapter@D@__crt_stdio_output@@V?$format_validation_base@DV?$string_output_adapter@D@__crt_stdio_output@@@2@@__crt_stdio_output@@AAE_NXZ 10146186 f i libucrt:output.obj
 0001:001453b5       ?state_case_type@?$output_processor@DV?$string_output_adapter@D@__crt_stdio_output@@V?$positional_parameter_base@DV?$string_output_adapter@D@__crt_stdio_output@@@2@@__crt_stdio_output@@AAE_NXZ 101463b5 f i libucrt:output.obj
 0001:001455ef       ?state_case_type@?$output_processor@DV?$string_output_adapter@D@__crt_stdio_output@@V?$standard_base@DV?$string_output_adapter@D@__crt_stdio_output@@@2@@__crt_stdio_output@@AAE_NXZ 101465ef f i libucrt:output.obj
 0001:0014581e       ?state_case_type@?$output_processor@_WV?$stream_output_adapter@_W@__crt_stdio_output@@V?$format_validation_base@_WV?$stream_output_adapter@_W@__crt_stdio_output@@@2@@__crt_stdio_output@@AAE_NXZ 1014681e f i libucrt:output.obj
 0001:00145a7b       ?state_case_type@?$output_processor@_WV?$stream_output_adapter@_W@__crt_stdio_output@@V?$positional_parameter_base@_WV?$stream_output_adapter@_W@__crt_stdio_output@@@2@@__crt_stdio_output@@AAE_NXZ 10146a7b f i libucrt:output.obj
 0001:00145ce7       ?state_case_type@?$output_processor@_WV?$stream_output_adapter@_W@__crt_stdio_output@@V?$standard_base@_WV?$stream_output_adapter@_W@__crt_stdio_output@@@2@@__crt_stdio_output@@AAE_NXZ 10146ce7 f i libucrt:output.obj
 0001:00145f44       ?state_case_type@?$output_processor@_WV?$string_output_adapter@_W@__crt_stdio_output@@V?$format_validation_base@_WV?$string_output_adapter@_W@__crt_stdio_output@@@2@@__crt_stdio_output@@AAE_NXZ 10146f44 f i libucrt:output.obj
 0001:001461a1       ?state_case_type@?$output_processor@_WV?$string_output_adapter@_W@__crt_stdio_output@@V?$positional_parameter_base@_WV?$string_output_adapter@_W@__crt_stdio_output@@@2@@__crt_stdio_output@@AAE_NXZ 101471a1 f i libucrt:output.obj
 0001:0014640d       ?state_case_type@?$output_processor@_WV?$string_output_adapter@_W@__crt_stdio_output@@V?$standard_base@_WV?$string_output_adapter@_W@__crt_stdio_output@@@2@@__crt_stdio_output@@AAE_NXZ 1014740d f i libucrt:output.obj
 0001:0014666a       ?state_case_width@?$output_processor@DV?$stream_output_adapter@D@__crt_stdio_output@@V?$format_validation_base@DV?$stream_output_adapter@D@__crt_stdio_output@@@2@@__crt_stdio_output@@AAE_NXZ 1014766a f i libucrt:output.obj
 0001:00146695       ?state_case_width@?$output_processor@DV?$stream_output_adapter@D@__crt_stdio_output@@V?$positional_parameter_base@DV?$stream_output_adapter@D@__crt_stdio_output@@@2@@__crt_stdio_output@@AAE_NXZ 10147695 f i libucrt:output.obj
 0001:001466d5       ?state_case_width@?$output_processor@DV?$stream_output_adapter@D@__crt_stdio_output@@V?$standard_base@DV?$stream_output_adapter@D@__crt_stdio_output@@@2@@__crt_stdio_output@@AAE_NXZ 101476d5 f i libucrt:output.obj
 0001:00146700       ?state_case_width@?$output_processor@DV?$string_output_adapter@D@__crt_stdio_output@@V?$format_validation_base@DV?$string_output_adapter@D@__crt_stdio_output@@@2@@__crt_stdio_output@@AAE_NXZ 10147700 f i libucrt:output.obj
 0001:0014672b       ?state_case_width@?$output_processor@DV?$string_output_adapter@D@__crt_stdio_output@@V?$positional_parameter_base@DV?$string_output_adapter@D@__crt_stdio_output@@@2@@__crt_stdio_output@@AAE_NXZ 1014772b f i libucrt:output.obj
 0001:0014676b       ?state_case_width@?$output_processor@DV?$string_output_adapter@D@__crt_stdio_output@@V?$standard_base@DV?$string_output_adapter@D@__crt_stdio_output@@@2@@__crt_stdio_output@@AAE_NXZ 1014776b f i libucrt:output.obj
 0001:00146796       ?state_case_width@?$output_processor@_WV?$stream_output_adapter@_W@__crt_stdio_output@@V?$format_validation_base@_WV?$stream_output_adapter@_W@__crt_stdio_output@@@2@@__crt_stdio_output@@AAE_NXZ 10147796 f i libucrt:output.obj
 0001:001467c2       ?state_case_width@?$output_processor@_WV?$stream_output_adapter@_W@__crt_stdio_output@@V?$positional_parameter_base@_WV?$stream_output_adapter@_W@__crt_stdio_output@@@2@@__crt_stdio_output@@AAE_NXZ 101477c2 f i libucrt:output.obj
 0001:00146803       ?state_case_width@?$output_processor@_WV?$stream_output_adapter@_W@__crt_stdio_output@@V?$standard_base@_WV?$stream_output_adapter@_W@__crt_stdio_output@@@2@@__crt_stdio_output@@AAE_NXZ 10147803 f i libucrt:output.obj
 0001:0014682f       ?state_case_width@?$output_processor@_WV?$string_output_adapter@_W@__crt_stdio_output@@V?$format_validation_base@_WV?$string_output_adapter@_W@__crt_stdio_output@@@2@@__crt_stdio_output@@AAE_NXZ 1014782f f i libucrt:output.obj
 0001:0014685b       ?state_case_width@?$output_processor@_WV?$string_output_adapter@_W@__crt_stdio_output@@V?$positional_parameter_base@_WV?$string_output_adapter@_W@__crt_stdio_output@@@2@@__crt_stdio_output@@AAE_NXZ 1014785b f i libucrt:output.obj
 0001:0014689c       ?state_case_width@?$output_processor@_WV?$string_output_adapter@_W@__crt_stdio_output@@V?$standard_base@_WV?$string_output_adapter@_W@__crt_stdio_output@@@2@@__crt_stdio_output@@AAE_NXZ 1014789c f i libucrt:output.obj
 0001:001468c8       ?state_count@?$format_validation_base@DV?$stream_output_adapter@D@__crt_stdio_output@@@__crt_stdio_output@@KAIXZ 101478c8 f i libucrt:output.obj
 0001:001468cc       ?state_count@?$format_validation_base@DV?$string_output_adapter@D@__crt_stdio_output@@@__crt_stdio_output@@KAIXZ 101478cc f i libucrt:output.obj
 0001:001468d0       ?state_count@?$format_validation_base@_WV?$stream_output_adapter@_W@__crt_stdio_output@@@__crt_stdio_output@@KAIXZ 101478d0 f i libucrt:output.obj
 0001:001468d4       ?state_count@?$format_validation_base@_WV?$string_output_adapter@_W@__crt_stdio_output@@@__crt_stdio_output@@KAIXZ 101478d4 f i libucrt:output.obj
 0001:001468d8       ?state_count@?$standard_base@DV?$stream_output_adapter@D@__crt_stdio_output@@@__crt_stdio_output@@KAIXZ 101478d8 f i libucrt:output.obj
 0001:001468dc       ?state_count@?$standard_base@DV?$string_output_adapter@D@__crt_stdio_output@@@__crt_stdio_output@@KAIXZ 101478dc f i libucrt:output.obj
 0001:001468e0       ?state_count@?$standard_base@_WV?$stream_output_adapter@_W@__crt_stdio_output@@@__crt_stdio_output@@KAIXZ 101478e0 f i libucrt:output.obj
 0001:001468e4       ?state_count@?$standard_base@_WV?$string_output_adapter@_W@__crt_stdio_output@@@__crt_stdio_output@@KAIXZ 101478e4 f i libucrt:output.obj
 0001:001468e8       ?state_transition_table@?$format_validation_base@DV?$stream_output_adapter@D@__crt_stdio_output@@@__crt_stdio_output@@KAPBEXZ 101478e8 f i libucrt:output.obj
 0001:001468ee       ?state_transition_table@?$format_validation_base@DV?$string_output_adapter@D@__crt_stdio_output@@@__crt_stdio_output@@KAPBEXZ 101478ee f i libucrt:output.obj
 0001:001468f4       ?state_transition_table@?$format_validation_base@_WV?$stream_output_adapter@_W@__crt_stdio_output@@@__crt_stdio_output@@KAPBEXZ 101478f4 f i libucrt:output.obj
 0001:001468fa       ?state_transition_table@?$format_validation_base@_WV?$string_output_adapter@_W@__crt_stdio_output@@@__crt_stdio_output@@KAPBEXZ 101478fa f i libucrt:output.obj
 0001:00146900       ?state_transition_table@?$standard_base@DV?$stream_output_adapter@D@__crt_stdio_output@@@__crt_stdio_output@@KAPBEXZ 10147900 f i libucrt:output.obj
 0001:00146906       ?state_transition_table@?$standard_base@DV?$string_output_adapter@D@__crt_stdio_output@@@__crt_stdio_output@@KAPBEXZ 10147906 f i libucrt:output.obj
 0001:0014690c       ?state_transition_table@?$standard_base@_WV?$stream_output_adapter@_W@__crt_stdio_output@@@__crt_stdio_output@@KAPBEXZ 1014790c f i libucrt:output.obj
 0001:00146912       ?state_transition_table@?$standard_base@_WV?$string_output_adapter@_W@__crt_stdio_output@@@__crt_stdio_output@@KAPBEXZ 10147912 f i libucrt:output.obj
 0001:00146918       ?to_integer_size@__crt_stdio_output@@YAIW4length_modifier@1@@Z 10147918 f i libucrt:output.obj
 0001:00146974       ?type_case_X@?$output_processor@DV?$stream_output_adapter@D@__crt_stdio_output@@V?$format_validation_base@DV?$stream_output_adapter@D@__crt_stdio_output@@@2@@__crt_stdio_output@@AAE_NXZ 10147974 f i libucrt:output.obj
 0001:0014697e       ?type_case_X@?$output_processor@DV?$stream_output_adapter@D@__crt_stdio_output@@V?$positional_parameter_base@DV?$stream_output_adapter@D@__crt_stdio_output@@@2@@__crt_stdio_output@@AAE_NXZ 1014797e f i libucrt:output.obj
 0001:00146988       ?type_case_X@?$output_processor@DV?$stream_output_adapter@D@__crt_stdio_output@@V?$standard_base@DV?$stream_output_adapter@D@__crt_stdio_output@@@2@@__crt_stdio_output@@AAE_NXZ 10147988 f i libucrt:output.obj
 0001:00146992       ?type_case_X@?$output_processor@DV?$string_output_adapter@D@__crt_stdio_output@@V?$format_validation_base@DV?$string_output_adapter@D@__crt_stdio_output@@@2@@__crt_stdio_output@@AAE_NXZ 10147992 f i libucrt:output.obj
 0001:0014699c       ?type_case_X@?$output_processor@DV?$string_output_adapter@D@__crt_stdio_output@@V?$positional_parameter_base@DV?$string_output_adapter@D@__crt_stdio_output@@@2@@__crt_stdio_output@@AAE_NXZ 1014799c f i libucrt:output.obj
 0001:001469a6       ?type_case_X@?$output_processor@DV?$string_output_adapter@D@__crt_stdio_output@@V?$standard_base@DV?$string_output_adapter@D@__crt_stdio_output@@@2@@__crt_stdio_output@@AAE_NXZ 101479a6 f i libucrt:output.obj
 0001:001469b0       ?type_case_X@?$output_processor@_WV?$stream_output_adapter@_W@__crt_stdio_output@@V?$format_validation_base@_WV?$stream_output_adapter@_W@__crt_stdio_output@@@2@@__crt_stdio_output@@AAE_NXZ 101479b0 f i libucrt:output.obj
 0001:001469ba       ?type_case_X@?$output_processor@_WV?$stream_output_adapter@_W@__crt_stdio_output@@V?$positional_parameter_base@_WV?$stream_output_adapter@_W@__crt_stdio_output@@@2@@__crt_stdio_output@@AAE_NXZ 101479ba f i libucrt:output.obj
 0001:001469c4       ?type_case_X@?$output_processor@_WV?$stream_output_adapter@_W@__crt_stdio_output@@V?$standard_base@_WV?$stream_output_adapter@_W@__crt_stdio_output@@@2@@__crt_stdio_output@@AAE_NXZ 101479c4 f i libucrt:output.obj
 0001:001469ce       ?type_case_X@?$output_processor@_WV?$string_output_adapter@_W@__crt_stdio_output@@V?$format_validation_base@_WV?$string_output_adapter@_W@__crt_stdio_output@@@2@@__crt_stdio_output@@AAE_NXZ 101479ce f i libucrt:output.obj
 0001:001469d8       ?type_case_X@?$output_processor@_WV?$string_output_adapter@_W@__crt_stdio_output@@V?$positional_parameter_base@_WV?$string_output_adapter@_W@__crt_stdio_output@@@2@@__crt_stdio_output@@AAE_NXZ 101479d8 f i libucrt:output.obj
 0001:001469e2       ?type_case_X@?$output_processor@_WV?$string_output_adapter@_W@__crt_stdio_output@@V?$standard_base@_WV?$string_output_adapter@_W@__crt_stdio_output@@@2@@__crt_stdio_output@@AAE_NXZ 101479e2 f i libucrt:output.obj
 0001:001469ec       ?type_case_Z@?$output_processor@DV?$stream_output_adapter@D@__crt_stdio_output@@V?$format_validation_base@DV?$stream_output_adapter@D@__crt_stdio_output@@@2@@__crt_stdio_output@@AAE_NXZ 101479ec f i libucrt:output.obj
 0001:00146a4f       ?type_case_Z@?$output_processor@DV?$stream_output_adapter@D@__crt_stdio_output@@V?$positional_parameter_base@DV?$stream_output_adapter@D@__crt_stdio_output@@@2@@__crt_stdio_output@@AAE_NXZ 10147a4f f i libucrt:output.obj
 0001:00146ace       ?type_case_Z@?$output_processor@DV?$stream_output_adapter@D@__crt_stdio_output@@V?$standard_base@DV?$stream_output_adapter@D@__crt_stdio_output@@@2@@__crt_stdio_output@@AAE_NXZ 10147ace f i libucrt:output.obj
 0001:00146b31       ?type_case_Z@?$output_processor@DV?$string_output_adapter@D@__crt_stdio_output@@V?$format_validation_base@DV?$string_output_adapter@D@__crt_stdio_output@@@2@@__crt_stdio_output@@AAE_NXZ 10147b31 f i libucrt:output.obj
 0001:00146b94       ?type_case_Z@?$output_processor@DV?$string_output_adapter@D@__crt_stdio_output@@V?$positional_parameter_base@DV?$string_output_adapter@D@__crt_stdio_output@@@2@@__crt_stdio_output@@AAE_NXZ 10147b94 f i libucrt:output.obj
 0001:00146c13       ?type_case_Z@?$output_processor@DV?$string_output_adapter@D@__crt_stdio_output@@V?$standard_base@DV?$string_output_adapter@D@__crt_stdio_output@@@2@@__crt_stdio_output@@AAE_NXZ 10147c13 f i libucrt:output.obj
 0001:00146c76       ?type_case_Z@?$output_processor@_WV?$stream_output_adapter@_W@__crt_stdio_output@@V?$format_validation_base@_WV?$stream_output_adapter@_W@__crt_stdio_output@@@2@@__crt_stdio_output@@AAE_NXZ 10147c76 f i libucrt:output.obj
 0001:00146cd9       ?type_case_Z@?$output_processor@_WV?$stream_output_adapter@_W@__crt_stdio_output@@V?$positional_parameter_base@_WV?$stream_output_adapter@_W@__crt_stdio_output@@@2@@__crt_stdio_output@@AAE_NXZ 10147cd9 f i libucrt:output.obj
 0001:00146d58       ?type_case_Z@?$output_processor@_WV?$stream_output_adapter@_W@__crt_stdio_output@@V?$standard_base@_WV?$stream_output_adapter@_W@__crt_stdio_output@@@2@@__crt_stdio_output@@AAE_NXZ 10147d58 f i libucrt:output.obj
 0001:00146dbb       ?type_case_Z@?$output_processor@_WV?$string_output_adapter@_W@__crt_stdio_output@@V?$format_validation_base@_WV?$string_output_adapter@_W@__crt_stdio_output@@@2@@__crt_stdio_output@@AAE_NXZ 10147dbb f i libucrt:output.obj
 0001:00146e1e       ?type_case_Z@?$output_processor@_WV?$string_output_adapter@_W@__crt_stdio_output@@V?$positional_parameter_base@_WV?$string_output_adapter@_W@__crt_stdio_output@@@2@@__crt_stdio_output@@AAE_NXZ 10147e1e f i libucrt:output.obj
 0001:00146e9d       ?type_case_Z@?$output_processor@_WV?$string_output_adapter@_W@__crt_stdio_output@@V?$standard_base@_WV?$string_output_adapter@_W@__crt_stdio_output@@@2@@__crt_stdio_output@@AAE_NXZ 10147e9d f i libucrt:output.obj
 0001:00146f00       ?type_case_a@?$output_processor@DV?$stream_output_adapter@D@__crt_stdio_output@@V?$format_validation_base@DV?$stream_output_adapter@D@__crt_stdio_output@@@2@@__crt_stdio_output@@AAE_NXZ 10147f00 f i libucrt:output.obj
 0001:0014705a       ?type_case_a@?$output_processor@DV?$stream_output_adapter@D@__crt_stdio_output@@V?$positional_parameter_base@DV?$stream_output_adapter@D@__crt_stdio_output@@@2@@__crt_stdio_output@@AAE_NXZ 1014805a f i libucrt:output.obj
 0001:001471d3       ?type_case_a@?$output_processor@DV?$stream_output_adapter@D@__crt_stdio_output@@V?$standard_base@DV?$stream_output_adapter@D@__crt_stdio_output@@@2@@__crt_stdio_output@@AAE_NXZ 101481d3 f i libucrt:output.obj
 0001:0014732d       ?type_case_a@?$output_processor@DV?$string_output_adapter@D@__crt_stdio_output@@V?$format_validation_base@DV?$string_output_adapter@D@__crt_stdio_output@@@2@@__crt_stdio_output@@AAE_NXZ 1014832d f i libucrt:output.obj
 0001:00147487       ?type_case_a@?$output_processor@DV?$string_output_adapter@D@__crt_stdio_output@@V?$positional_parameter_base@DV?$string_output_adapter@D@__crt_stdio_output@@@2@@__crt_stdio_output@@AAE_NXZ 10148487 f i libucrt:output.obj
 0001:00147600       ?type_case_a@?$output_processor@DV?$string_output_adapter@D@__crt_stdio_output@@V?$standard_base@DV?$string_output_adapter@D@__crt_stdio_output@@@2@@__crt_stdio_output@@AAE_NXZ 10148600 f i libucrt:output.obj
 0001:0014775a       ?type_case_a@?$output_processor@_WV?$stream_output_adapter@_W@__crt_stdio_output@@V?$format_validation_base@_WV?$stream_output_adapter@_W@__crt_stdio_output@@@2@@__crt_stdio_output@@AAE_NXZ 1014875a f i libucrt:output.obj
 0001:001478cc       ?type_case_a@?$output_processor@_WV?$stream_output_adapter@_W@__crt_stdio_output@@V?$positional_parameter_base@_WV?$stream_output_adapter@_W@__crt_stdio_output@@@2@@__crt_stdio_output@@AAE_NXZ 101488cc f i libucrt:output.obj
 0001:00147a5d       ?type_case_a@?$output_processor@_WV?$stream_output_adapter@_W@__crt_stdio_output@@V?$standard_base@_WV?$stream_output_adapter@_W@__crt_stdio_output@@@2@@__crt_stdio_output@@AAE_NXZ 10148a5d f i libucrt:output.obj
 0001:00147bcf       ?type_case_a@?$output_processor@_WV?$string_output_adapter@_W@__crt_stdio_output@@V?$format_validation_base@_WV?$string_output_adapter@_W@__crt_stdio_output@@@2@@__crt_stdio_output@@AAE_NXZ 10148bcf f i libucrt:output.obj
 0001:00147d41       ?type_case_a@?$output_processor@_WV?$string_output_adapter@_W@__crt_stdio_output@@V?$positional_parameter_base@_WV?$string_output_adapter@_W@__crt_stdio_output@@@2@@__crt_stdio_output@@AAE_NXZ 10148d41 f i libucrt:output.obj
 0001:00147ed2       ?type_case_a@?$output_processor@_WV?$string_output_adapter@_W@__crt_stdio_output@@V?$standard_base@_WV?$string_output_adapter@_W@__crt_stdio_output@@@2@@__crt_stdio_output@@AAE_NXZ 10148ed2 f i libucrt:output.obj
 0001:00148044       ?type_case_c@?$output_processor@DV?$stream_output_adapter@D@__crt_stdio_output@@V?$format_validation_base@DV?$stream_output_adapter@D@__crt_stdio_output@@@2@@__crt_stdio_output@@AAE_NXZ 10149044 f i libucrt:output.obj
 0001:0014804c       ?type_case_c@?$output_processor@DV?$stream_output_adapter@D@__crt_stdio_output@@V?$positional_parameter_base@DV?$stream_output_adapter@D@__crt_stdio_output@@@2@@__crt_stdio_output@@AAE_NXZ 1014904c f i libucrt:output.obj
 0001:00148054       ?type_case_c@?$output_processor@DV?$stream_output_adapter@D@__crt_stdio_output@@V?$standard_base@DV?$stream_output_adapter@D@__crt_stdio_output@@@2@@__crt_stdio_output@@AAE_NXZ 10149054 f i libucrt:output.obj
 0001:0014805c       ?type_case_c@?$output_processor@DV?$string_output_adapter@D@__crt_stdio_output@@V?$format_validation_base@DV?$string_output_adapter@D@__crt_stdio_output@@@2@@__crt_stdio_output@@AAE_NXZ 1014905c f i libucrt:output.obj
 0001:00148064       ?type_case_c@?$output_processor@DV?$string_output_adapter@D@__crt_stdio_output@@V?$positional_parameter_base@DV?$string_output_adapter@D@__crt_stdio_output@@@2@@__crt_stdio_output@@AAE_NXZ 10149064 f i libucrt:output.obj
 0001:0014806c       ?type_case_c@?$output_processor@DV?$string_output_adapter@D@__crt_stdio_output@@V?$standard_base@DV?$string_output_adapter@D@__crt_stdio_output@@@2@@__crt_stdio_output@@AAE_NXZ 1014906c f i libucrt:output.obj
 0001:00148074       ?type_case_c@?$output_processor@_WV?$stream_output_adapter@_W@__crt_stdio_output@@V?$format_validation_base@_WV?$stream_output_adapter@_W@__crt_stdio_output@@@2@@__crt_stdio_output@@AAE_NXZ 10149074 f i libucrt:output.obj
 0001:0014807c       ?type_case_c@?$output_processor@_WV?$stream_output_adapter@_W@__crt_stdio_output@@V?$positional_parameter_base@_WV?$stream_output_adapter@_W@__crt_stdio_output@@@2@@__crt_stdio_output@@AAE_NXZ 1014907c f i libucrt:output.obj
 0001:00148084       ?type_case_c@?$output_processor@_WV?$stream_output_adapter@_W@__crt_stdio_output@@V?$standard_base@_WV?$stream_output_adapter@_W@__crt_stdio_output@@@2@@__crt_stdio_output@@AAE_NXZ 10149084 f i libucrt:output.obj
 0001:0014808c       ?type_case_c@?$output_processor@_WV?$string_output_adapter@_W@__crt_stdio_output@@V?$format_validation_base@_WV?$string_output_adapter@_W@__crt_stdio_output@@@2@@__crt_stdio_output@@AAE_NXZ 1014908c f i libucrt:output.obj
 0001:00148094       ?type_case_c@?$output_processor@_WV?$string_output_adapter@_W@__crt_stdio_output@@V?$positional_parameter_base@_WV?$string_output_adapter@_W@__crt_stdio_output@@@2@@__crt_stdio_output@@AAE_NXZ 10149094 f i libucrt:output.obj
 0001:0014809c       ?type_case_c@?$output_processor@_WV?$string_output_adapter@_W@__crt_stdio_output@@V?$standard_base@_WV?$string_output_adapter@_W@__crt_stdio_output@@@2@@__crt_stdio_output@@AAE_NXZ 1014909c f i libucrt:output.obj
 0001:001480a4       ?type_case_c_tchar@?$output_processor@DV?$stream_output_adapter@D@__crt_stdio_output@@V?$format_validation_base@DV?$stream_output_adapter@D@__crt_stdio_output@@@2@@__crt_stdio_output@@AAE_ND@Z 101490a4 f i libucrt:output.obj
 0001:00148134       ?type_case_c_tchar@?$output_processor@DV?$stream_output_adapter@D@__crt_stdio_output@@V?$positional_parameter_base@DV?$stream_output_adapter@D@__crt_stdio_output@@@2@@__crt_stdio_output@@AAE_ND@Z 10149134 f i libucrt:output.obj
 0001:001481f4       ?type_case_c_tchar@?$output_processor@DV?$stream_output_adapter@D@__crt_stdio_output@@V?$standard_base@DV?$stream_output_adapter@D@__crt_stdio_output@@@2@@__crt_stdio_output@@AAE_ND@Z 101491f4 f i libucrt:output.obj
 0001:00148284       ?type_case_c_tchar@?$output_processor@DV?$string_output_adapter@D@__crt_stdio_output@@V?$format_validation_base@DV?$string_output_adapter@D@__crt_stdio_output@@@2@@__crt_stdio_output@@AAE_ND@Z 10149284 f i libucrt:output.obj
 0001:00148314       ?type_case_c_tchar@?$output_processor@DV?$string_output_adapter@D@__crt_stdio_output@@V?$positional_parameter_base@DV?$string_output_adapter@D@__crt_stdio_output@@@2@@__crt_stdio_output@@AAE_ND@Z 10149314 f i libucrt:output.obj
 0001:001483d4       ?type_case_c_tchar@?$output_processor@DV?$string_output_adapter@D@__crt_stdio_output@@V?$standard_base@DV?$string_output_adapter@D@__crt_stdio_output@@@2@@__crt_stdio_output@@AAE_ND@Z 101493d4 f i libucrt:output.obj
 0001:00148464       ?type_case_c_tchar@?$output_processor@_WV?$stream_output_adapter@_W@__crt_stdio_output@@V?$format_validation_base@_WV?$stream_output_adapter@_W@__crt_stdio_output@@@2@@__crt_stdio_output@@AAE_N_W@Z 10149464 f i libucrt:output.obj
 0001:001484fc       ?type_case_c_tchar@?$output_processor@_WV?$stream_output_adapter@_W@__crt_stdio_output@@V?$positional_parameter_base@_WV?$stream_output_adapter@_W@__crt_stdio_output@@@2@@__crt_stdio_output@@AAE_N_W@Z 101494fc f i libucrt:output.obj
 0001:001485ab       ?type_case_c_tchar@?$output_processor@_WV?$stream_output_adapter@_W@__crt_stdio_output@@V?$standard_base@_WV?$stream_output_adapter@_W@__crt_stdio_output@@@2@@__crt_stdio_output@@AAE_N_W@Z 101495ab f i libucrt:output.obj
 0001:00148643       ?type_case_c_tchar@?$output_processor@_WV?$string_output_adapter@_W@__crt_stdio_output@@V?$format_validation_base@_WV?$string_output_adapter@_W@__crt_stdio_output@@@2@@__crt_stdio_output@@AAE_N_W@Z 10149643 f i libucrt:output.obj
 0001:001486db       ?type_case_c_tchar@?$output_processor@_WV?$string_output_adapter@_W@__crt_stdio_output@@V?$positional_parameter_base@_WV?$string_output_adapter@_W@__crt_stdio_output@@@2@@__crt_stdio_output@@AAE_N_W@Z 101496db f i libucrt:output.obj
 0001:0014878a       ?type_case_c_tchar@?$output_processor@_WV?$string_output_adapter@_W@__crt_stdio_output@@V?$standard_base@_WV?$string_output_adapter@_W@__crt_stdio_output@@@2@@__crt_stdio_output@@AAE_N_W@Z 1014978a f i libucrt:output.obj
 0001:00148822       ?type_case_d@?$output_processor@DV?$stream_output_adapter@D@__crt_stdio_output@@V?$format_validation_base@DV?$stream_output_adapter@D@__crt_stdio_output@@@2@@__crt_stdio_output@@AAE_NXZ 10149822 f i libucrt:output.obj
 0001:00148830       ?type_case_d@?$output_processor@DV?$stream_output_adapter@D@__crt_stdio_output@@V?$positional_parameter_base@DV?$stream_output_adapter@D@__crt_stdio_output@@@2@@__crt_stdio_output@@AAE_NXZ 10149830 f i libucrt:output.obj
 0001:0014883e       ?type_case_d@?$output_processor@DV?$stream_output_adapter@D@__crt_stdio_output@@V?$standard_base@DV?$stream_output_adapter@D@__crt_stdio_output@@@2@@__crt_stdio_output@@AAE_NXZ 1014983e f i libucrt:output.obj
 0001:0014884c       ?type_case_d@?$output_processor@DV?$string_output_adapter@D@__crt_stdio_output@@V?$format_validation_base@DV?$string_output_adapter@D@__crt_stdio_output@@@2@@__crt_stdio_output@@AAE_NXZ 1014984c f i libucrt:output.obj
 0001:0014885a       ?type_case_d@?$output_processor@DV?$string_output_adapter@D@__crt_stdio_output@@V?$positional_parameter_base@DV?$string_output_adapter@D@__crt_stdio_output@@@2@@__crt_stdio_output@@AAE_NXZ 1014985a f i libucrt:output.obj
 0001:00148868       ?type_case_d@?$output_processor@DV?$string_output_adapter@D@__crt_stdio_output@@V?$standard_base@DV?$string_output_adapter@D@__crt_stdio_output@@@2@@__crt_stdio_output@@AAE_NXZ 10149868 f i libucrt:output.obj
 0001:00148876       ?type_case_d@?$output_processor@_WV?$stream_output_adapter@_W@__crt_stdio_output@@V?$format_validation_base@_WV?$stream_output_adapter@_W@__crt_stdio_output@@@2@@__crt_stdio_output@@AAE_NXZ 10149876 f i libucrt:output.obj
 0001:00148884       ?type_case_d@?$output_processor@_WV?$stream_output_adapter@_W@__crt_stdio_output@@V?$positional_parameter_base@_WV?$stream_output_adapter@_W@__crt_stdio_output@@@2@@__crt_stdio_output@@AAE_NXZ 10149884 f i libucrt:output.obj
 0001:00148892       ?type_case_d@?$output_processor@_WV?$stream_output_adapter@_W@__crt_stdio_output@@V?$standard_base@_WV?$stream_output_adapter@_W@__crt_stdio_output@@@2@@__crt_stdio_output@@AAE_NXZ 10149892 f i libucrt:output.obj
 0001:001488a0       ?type_case_d@?$output_processor@_WV?$string_output_adapter@_W@__crt_stdio_output@@V?$format_validation_base@_WV?$string_output_adapter@_W@__crt_stdio_output@@@2@@__crt_stdio_output@@AAE_NXZ 101498a0 f i libucrt:output.obj
 0001:001488ae       ?type_case_d@?$output_processor@_WV?$string_output_adapter@_W@__crt_stdio_output@@V?$positional_parameter_base@_WV?$string_output_adapter@_W@__crt_stdio_output@@@2@@__crt_stdio_output@@AAE_NXZ 101498ae f i libucrt:output.obj
 0001:001488bc       ?type_case_d@?$output_processor@_WV?$string_output_adapter@_W@__crt_stdio_output@@V?$standard_base@_WV?$string_output_adapter@_W@__crt_stdio_output@@@2@@__crt_stdio_output@@AAE_NXZ 101498bc f i libucrt:output.obj
 0001:001488ca       ?type_case_integer@?$output_processor@DV?$stream_output_adapter@D@__crt_stdio_output@@V?$format_validation_base@DV?$stream_output_adapter@D@__crt_stdio_output@@@2@@__crt_stdio_output@@AAE_NI_N@Z 101498ca f i libucrt:output.obj
 0001:00148a14       ?type_case_integer@?$output_processor@DV?$stream_output_adapter@D@__crt_stdio_output@@V?$positional_parameter_base@DV?$stream_output_adapter@D@__crt_stdio_output@@@2@@__crt_stdio_output@@AAE_NI_N@Z 10149a14 f i libucrt:output.obj
 0001:00148b92       ?type_case_integer@?$output_processor@DV?$stream_output_adapter@D@__crt_stdio_output@@V?$standard_base@DV?$stream_output_adapter@D@__crt_stdio_output@@@2@@__crt_stdio_output@@AAE_NI_N@Z 10149b92 f i libucrt:output.obj
 0001:00148cdc       ?type_case_integer@?$output_processor@DV?$string_output_adapter@D@__crt_stdio_output@@V?$format_validation_base@DV?$string_output_adapter@D@__crt_stdio_output@@@2@@__crt_stdio_output@@AAE_NI_N@Z 10149cdc f i libucrt:output.obj
 0001:00148e26       ?type_case_integer@?$output_processor@DV?$string_output_adapter@D@__crt_stdio_output@@V?$positional_parameter_base@DV?$string_output_adapter@D@__crt_stdio_output@@@2@@__crt_stdio_output@@AAE_NI_N@Z 10149e26 f i libucrt:output.obj
 0001:00148fa4       ?type_case_integer@?$output_processor@DV?$string_output_adapter@D@__crt_stdio_output@@V?$standard_base@DV?$string_output_adapter@D@__crt_stdio_output@@@2@@__crt_stdio_output@@AAE_NI_N@Z 10149fa4 f i libucrt:output.obj
 0001:001490ee       ?type_case_integer@?$output_processor@_WV?$stream_output_adapter@_W@__crt_stdio_output@@V?$format_validation_base@_WV?$stream_output_adapter@_W@__crt_stdio_output@@@2@@__crt_stdio_output@@AAE_NI_N@Z 1014a0ee f i libucrt:output.obj
 0001:00149238       ?type_case_integer@?$output_processor@_WV?$stream_output_adapter@_W@__crt_stdio_output@@V?$positional_parameter_base@_WV?$stream_output_adapter@_W@__crt_stdio_output@@@2@@__crt_stdio_output@@AAE_NI_N@Z 1014a238 f i libucrt:output.obj
 0001:001493b6       ?type_case_integer@?$output_processor@_WV?$stream_output_adapter@_W@__crt_stdio_output@@V?$standard_base@_WV?$stream_output_adapter@_W@__crt_stdio_output@@@2@@__crt_stdio_output@@AAE_NI_N@Z 1014a3b6 f i libucrt:output.obj
 0001:00149500       ?type_case_integer@?$output_processor@_WV?$string_output_adapter@_W@__crt_stdio_output@@V?$format_validation_base@_WV?$string_output_adapter@_W@__crt_stdio_output@@@2@@__crt_stdio_output@@AAE_NI_N@Z 1014a500 f i libucrt:output.obj
 0001:0014964a       ?type_case_integer@?$output_processor@_WV?$string_output_adapter@_W@__crt_stdio_output@@V?$positional_parameter_base@_WV?$string_output_adapter@_W@__crt_stdio_output@@@2@@__crt_stdio_output@@AAE_NI_N@Z 1014a64a f i libucrt:output.obj
 0001:001497c8       ?type_case_integer@?$output_processor@_WV?$string_output_adapter@_W@__crt_stdio_output@@V?$standard_base@_WV?$string_output_adapter@_W@__crt_stdio_output@@@2@@__crt_stdio_output@@AAE_NI_N@Z 1014a7c8 f i libucrt:output.obj
 0001:00149912       ?type_case_n@?$output_processor@DV?$stream_output_adapter@D@__crt_stdio_output@@V?$format_validation_base@DV?$stream_output_adapter@D@__crt_stdio_output@@@2@@__crt_stdio_output@@AAE_NXZ 1014a912 f i libucrt:output.obj
 0001:00149986       ?type_case_n@?$output_processor@DV?$stream_output_adapter@D@__crt_stdio_output@@V?$positional_parameter_base@DV?$stream_output_adapter@D@__crt_stdio_output@@@2@@__crt_stdio_output@@AAE_NXZ 1014a986 f i libucrt:output.obj
 0001:00149a1f       ?type_case_n@?$output_processor@DV?$stream_output_adapter@D@__crt_stdio_output@@V?$standard_base@DV?$stream_output_adapter@D@__crt_stdio_output@@@2@@__crt_stdio_output@@AAE_NXZ 1014aa1f f i libucrt:output.obj
 0001:00149a93       ?type_case_n@?$output_processor@DV?$string_output_adapter@D@__crt_stdio_output@@V?$format_validation_base@DV?$string_output_adapter@D@__crt_stdio_output@@@2@@__crt_stdio_output@@AAE_NXZ 1014aa93 f i libucrt:output.obj
 0001:00149b07       ?type_case_n@?$output_processor@DV?$string_output_adapter@D@__crt_stdio_output@@V?$positional_parameter_base@DV?$string_output_adapter@D@__crt_stdio_output@@@2@@__crt_stdio_output@@AAE_NXZ 1014ab07 f i libucrt:output.obj
 0001:00149ba0       ?type_case_n@?$output_processor@DV?$string_output_adapter@D@__crt_stdio_output@@V?$standard_base@DV?$string_output_adapter@D@__crt_stdio_output@@@2@@__crt_stdio_output@@AAE_NXZ 1014aba0 f i libucrt:output.obj
 0001:00149c14       ?type_case_n@?$output_processor@_WV?$stream_output_adapter@_W@__crt_stdio_output@@V?$format_validation_base@_WV?$stream_output_adapter@_W@__crt_stdio_output@@@2@@__crt_stdio_output@@AAE_NXZ 1014ac14 f i libucrt:output.obj
 0001:00149c88       ?type_case_n@?$output_processor@_WV?$stream_output_adapter@_W@__crt_stdio_output@@V?$positional_parameter_base@_WV?$stream_output_adapter@_W@__crt_stdio_output@@@2@@__crt_stdio_output@@AAE_NXZ 1014ac88 f i libucrt:output.obj
 0001:00149d21       ?type_case_n@?$output_processor@_WV?$stream_output_adapter@_W@__crt_stdio_output@@V?$standard_base@_WV?$stream_output_adapter@_W@__crt_stdio_output@@@2@@__crt_stdio_output@@AAE_NXZ 1014ad21 f i libucrt:output.obj
 0001:00149d95       ?type_case_n@?$output_processor@_WV?$string_output_adapter@_W@__crt_stdio_output@@V?$format_validation_base@_WV?$string_output_adapter@_W@__crt_stdio_output@@@2@@__crt_stdio_output@@AAE_NXZ 1014ad95 f i libucrt:output.obj
 0001:00149e09       ?type_case_n@?$output_processor@_WV?$string_output_adapter@_W@__crt_stdio_output@@V?$positional_parameter_base@_WV?$string_output_adapter@_W@__crt_stdio_output@@@2@@__crt_stdio_output@@AAE_NXZ 1014ae09 f i libucrt:output.obj
 0001:00149ea2       ?type_case_n@?$output_processor@_WV?$string_output_adapter@_W@__crt_stdio_output@@V?$standard_base@_WV?$string_output_adapter@_W@__crt_stdio_output@@@2@@__crt_stdio_output@@AAE_NXZ 1014aea2 f i libucrt:output.obj
 0001:00149f16       ?type_case_o@?$output_processor@DV?$stream_output_adapter@D@__crt_stdio_output@@V?$format_validation_base@DV?$stream_output_adapter@D@__crt_stdio_output@@@2@@__crt_stdio_output@@AAE_NXZ 1014af16 f i libucrt:output.obj
 0001:00149f35       ?type_case_o@?$output_processor@DV?$stream_output_adapter@D@__crt_stdio_output@@V?$positional_parameter_base@DV?$stream_output_adapter@D@__crt_stdio_output@@@2@@__crt_stdio_output@@AAE_NXZ 1014af35 f i libucrt:output.obj
 0001:00149f54       ?type_case_o@?$output_processor@DV?$stream_output_adapter@D@__crt_stdio_output@@V?$standard_base@DV?$stream_output_adapter@D@__crt_stdio_output@@@2@@__crt_stdio_output@@AAE_NXZ 1014af54 f i libucrt:output.obj
 0001:00149f73       ?type_case_o@?$output_processor@DV?$string_output_adapter@D@__crt_stdio_output@@V?$format_validation_base@DV?$string_output_adapter@D@__crt_stdio_output@@@2@@__crt_stdio_output@@AAE_NXZ 1014af73 f i libucrt:output.obj
 0001:00149f92       ?type_case_o@?$output_processor@DV?$string_output_adapter@D@__crt_stdio_output@@V?$positional_parameter_base@DV?$string_output_adapter@D@__crt_stdio_output@@@2@@__crt_stdio_output@@AAE_NXZ 1014af92 f i libucrt:output.obj
 0001:00149fb1       ?type_case_o@?$output_processor@DV?$string_output_adapter@D@__crt_stdio_output@@V?$standard_base@DV?$string_output_adapter@D@__crt_stdio_output@@@2@@__crt_stdio_output@@AAE_NXZ 1014afb1 f i libucrt:output.obj
 0001:00149fd0       ?type_case_o@?$output_processor@_WV?$stream_output_adapter@_W@__crt_stdio_output@@V?$format_validation_base@_WV?$stream_output_adapter@_W@__crt_stdio_output@@@2@@__crt_stdio_output@@AAE_NXZ 1014afd0 f i libucrt:output.obj
 0001:00149fef       ?type_case_o@?$output_processor@_WV?$stream_output_adapter@_W@__crt_stdio_output@@V?$positional_parameter_base@_WV?$stream_output_adapter@_W@__crt_stdio_output@@@2@@__crt_stdio_output@@AAE_NXZ 1014afef f i libucrt:output.obj
 0001:0014a00e       ?type_case_o@?$output_processor@_WV?$stream_output_adapter@_W@__crt_stdio_output@@V?$standard_base@_WV?$stream_output_adapter@_W@__crt_stdio_output@@@2@@__crt_stdio_output@@AAE_NXZ 1014b00e f i libucrt:output.obj
 0001:0014a02d       ?type_case_o@?$output_processor@_WV?$string_output_adapter@_W@__crt_stdio_output@@V?$format_validation_base@_WV?$string_output_adapter@_W@__crt_stdio_output@@@2@@__crt_stdio_output@@AAE_NXZ 1014b02d f i libucrt:output.obj
 0001:0014a04c       ?type_case_o@?$output_processor@_WV?$string_output_adapter@_W@__crt_stdio_output@@V?$positional_parameter_base@_WV?$string_output_adapter@_W@__crt_stdio_output@@@2@@__crt_stdio_output@@AAE_NXZ 1014b04c f i libucrt:output.obj
 0001:0014a06b       ?type_case_o@?$output_processor@_WV?$string_output_adapter@_W@__crt_stdio_output@@V?$standard_base@_WV?$string_output_adapter@_W@__crt_stdio_output@@@2@@__crt_stdio_output@@AAE_NXZ 1014b06b f i libucrt:output.obj
 0001:0014a08a       ?type_case_p@?$output_processor@DV?$stream_output_adapter@D@__crt_stdio_output@@V?$format_validation_base@DV?$stream_output_adapter@D@__crt_stdio_output@@@2@@__crt_stdio_output@@AAE_NXZ 1014b08a f i libucrt:output.obj
 0001:0014a0a2       ?type_case_p@?$output_processor@DV?$stream_output_adapter@D@__crt_stdio_output@@V?$positional_parameter_base@DV?$stream_output_adapter@D@__crt_stdio_output@@@2@@__crt_stdio_output@@AAE_NXZ 1014b0a2 f i libucrt:output.obj
 0001:0014a0ba       ?type_case_p@?$output_processor@DV?$stream_output_adapter@D@__crt_stdio_output@@V?$standard_base@DV?$stream_output_adapter@D@__crt_stdio_output@@@2@@__crt_stdio_output@@AAE_NXZ 1014b0ba f i libucrt:output.obj
 0001:0014a0d2       ?type_case_p@?$output_processor@DV?$string_output_adapter@D@__crt_stdio_output@@V?$format_validation_base@DV?$string_output_adapter@D@__crt_stdio_output@@@2@@__crt_stdio_output@@AAE_NXZ 1014b0d2 f i libucrt:output.obj
 0001:0014a0ea       ?type_case_p@?$output_processor@DV?$string_output_adapter@D@__crt_stdio_output@@V?$positional_parameter_base@DV?$string_output_adapter@D@__crt_stdio_output@@@2@@__crt_stdio_output@@AAE_NXZ 1014b0ea f i libucrt:output.obj
 0001:0014a102       ?type_case_p@?$output_processor@DV?$string_output_adapter@D@__crt_stdio_output@@V?$standard_base@DV?$string_output_adapter@D@__crt_stdio_output@@@2@@__crt_stdio_output@@AAE_NXZ 1014b102 f i libucrt:output.obj
 0001:0014a11a       ?type_case_p@?$output_processor@_WV?$stream_output_adapter@_W@__crt_stdio_output@@V?$format_validation_base@_WV?$stream_output_adapter@_W@__crt_stdio_output@@@2@@__crt_stdio_output@@AAE_NXZ 1014b11a f i libucrt:output.obj
 0001:0014a132       ?type_case_p@?$output_processor@_WV?$stream_output_adapter@_W@__crt_stdio_output@@V?$positional_parameter_base@_WV?$stream_output_adapter@_W@__crt_stdio_output@@@2@@__crt_stdio_output@@AAE_NXZ 1014b132 f i libucrt:output.obj
 0001:0014a14a       ?type_case_p@?$output_processor@_WV?$stream_output_adapter@_W@__crt_stdio_output@@V?$standard_base@_WV?$stream_output_adapter@_W@__crt_stdio_output@@@2@@__crt_stdio_output@@AAE_NXZ 1014b14a f i libucrt:output.obj
 0001:0014a162       ?type_case_p@?$output_processor@_WV?$string_output_adapter@_W@__crt_stdio_output@@V?$format_validation_base@_WV?$string_output_adapter@_W@__crt_stdio_output@@@2@@__crt_stdio_output@@AAE_NXZ 1014b162 f i libucrt:output.obj
 0001:0014a17a       ?type_case_p@?$output_processor@_WV?$string_output_adapter@_W@__crt_stdio_output@@V?$positional_parameter_base@_WV?$string_output_adapter@_W@__crt_stdio_output@@@2@@__crt_stdio_output@@AAE_NXZ 1014b17a f i libucrt:output.obj
 0001:0014a192       ?type_case_p@?$output_processor@_WV?$string_output_adapter@_W@__crt_stdio_output@@V?$standard_base@_WV?$string_output_adapter@_W@__crt_stdio_output@@@2@@__crt_stdio_output@@AAE_NXZ 1014b192 f i libucrt:output.obj
 0001:0014a1aa       ?type_case_s@?$output_processor@DV?$stream_output_adapter@D@__crt_stdio_output@@V?$format_validation_base@DV?$stream_output_adapter@D@__crt_stdio_output@@@2@@__crt_stdio_output@@AAE_NXZ 1014b1aa f i libucrt:output.obj
 0001:0014a21d       ?type_case_s@?$output_processor@DV?$stream_output_adapter@D@__crt_stdio_output@@V?$positional_parameter_base@DV?$stream_output_adapter@D@__crt_stdio_output@@@2@@__crt_stdio_output@@AAE_NXZ 1014b21d f i libucrt:output.obj
 0001:0014a299       ?type_case_s@?$output_processor@DV?$stream_output_adapter@D@__crt_stdio_output@@V?$standard_base@DV?$stream_output_adapter@D@__crt_stdio_output@@@2@@__crt_stdio_output@@AAE_NXZ 1014b299 f i libucrt:output.obj
 0001:0014a30c       ?type_case_s@?$output_processor@DV?$string_output_adapter@D@__crt_stdio_output@@V?$format_validation_base@DV?$string_output_adapter@D@__crt_stdio_output@@@2@@__crt_stdio_output@@AAE_NXZ 1014b30c f i libucrt:output.obj
 0001:0014a37f       ?type_case_s@?$output_processor@DV?$string_output_adapter@D@__crt_stdio_output@@V?$positional_parameter_base@DV?$string_output_adapter@D@__crt_stdio_output@@@2@@__crt_stdio_output@@AAE_NXZ 1014b37f f i libucrt:output.obj
 0001:0014a3fb       ?type_case_s@?$output_processor@DV?$string_output_adapter@D@__crt_stdio_output@@V?$standard_base@DV?$string_output_adapter@D@__crt_stdio_output@@@2@@__crt_stdio_output@@AAE_NXZ 1014b3fb f i libucrt:output.obj
 0001:0014a46e       ?type_case_s@?$output_processor@_WV?$stream_output_adapter@_W@__crt_stdio_output@@V?$format_validation_base@_WV?$stream_output_adapter@_W@__crt_stdio_output@@@2@@__crt_stdio_output@@AAE_NXZ 1014b46e f i libucrt:output.obj
 0001:0014a4e2       ?type_case_s@?$output_processor@_WV?$stream_output_adapter@_W@__crt_stdio_output@@V?$positional_parameter_base@_WV?$stream_output_adapter@_W@__crt_stdio_output@@@2@@__crt_stdio_output@@AAE_NXZ 1014b4e2 f i libucrt:output.obj
 0001:0014a560       ?type_case_s@?$output_processor@_WV?$stream_output_adapter@_W@__crt_stdio_output@@V?$standard_base@_WV?$stream_output_adapter@_W@__crt_stdio_output@@@2@@__crt_stdio_output@@AAE_NXZ 1014b560 f i libucrt:output.obj
 0001:0014a5d4       ?type_case_s@?$output_processor@_WV?$string_output_adapter@_W@__crt_stdio_output@@V?$format_validation_base@_WV?$string_output_adapter@_W@__crt_stdio_output@@@2@@__crt_stdio_output@@AAE_NXZ 1014b5d4 f i libucrt:output.obj
 0001:0014a648       ?type_case_s@?$output_processor@_WV?$string_output_adapter@_W@__crt_stdio_output@@V?$positional_parameter_base@_WV?$string_output_adapter@_W@__crt_stdio_output@@@2@@__crt_stdio_output@@AAE_NXZ 1014b648 f i libucrt:output.obj
 0001:0014a6c6       ?type_case_s@?$output_processor@_WV?$string_output_adapter@_W@__crt_stdio_output@@V?$standard_base@_WV?$string_output_adapter@_W@__crt_stdio_output@@@2@@__crt_stdio_output@@AAE_NXZ 1014b6c6 f i libucrt:output.obj
 0001:0014a73a       ?type_case_s_compute_narrow_string_length@?$output_processor@DV?$stream_output_adapter@D@__crt_stdio_output@@V?$format_validation_base@DV?$stream_output_adapter@D@__crt_stdio_output@@@2@@__crt_stdio_output@@ABEHHD@Z 1014b73a f i libucrt:output.obj
 0001:0014a750       ?type_case_s_compute_narrow_string_length@?$output_processor@DV?$stream_output_adapter@D@__crt_stdio_output@@V?$positional_parameter_base@DV?$stream_output_adapter@D@__crt_stdio_output@@@2@@__crt_stdio_output@@ABEHHD@Z 1014b750 f i libucrt:output.obj
 0001:0014a766       ?type_case_s_compute_narrow_string_length@?$output_processor@DV?$stream_output_adapter@D@__crt_stdio_output@@V?$standard_base@DV?$stream_output_adapter@D@__crt_stdio_output@@@2@@__crt_stdio_output@@ABEHHD@Z 1014b766 f i libucrt:output.obj
 0001:0014a77c       ?type_case_s_compute_narrow_string_length@?$output_processor@DV?$string_output_adapter@D@__crt_stdio_output@@V?$format_validation_base@DV?$string_output_adapter@D@__crt_stdio_output@@@2@@__crt_stdio_output@@ABEHHD@Z 1014b77c f i libucrt:output.obj
 0001:0014a792       ?type_case_s_compute_narrow_string_length@?$output_processor@DV?$string_output_adapter@D@__crt_stdio_output@@V?$positional_parameter_base@DV?$string_output_adapter@D@__crt_stdio_output@@@2@@__crt_stdio_output@@ABEHHD@Z 1014b792 f i libucrt:output.obj
 0001:0014a7a8       ?type_case_s_compute_narrow_string_length@?$output_processor@DV?$string_output_adapter@D@__crt_stdio_output@@V?$standard_base@DV?$string_output_adapter@D@__crt_stdio_output@@@2@@__crt_stdio_output@@ABEHHD@Z 1014b7a8 f i libucrt:output.obj
 0001:0014a7be       ?type_case_s_compute_narrow_string_length@?$output_processor@_WV?$stream_output_adapter@_W@__crt_stdio_output@@V?$format_validation_base@_WV?$stream_output_adapter@_W@__crt_stdio_output@@@2@@__crt_stdio_output@@ABEHH_W@Z 1014b7be f i libucrt:output.obj
 0001:0014a7fe       ?type_case_s_compute_narrow_string_length@?$output_processor@_WV?$stream_output_adapter@_W@__crt_stdio_output@@V?$positional_parameter_base@_WV?$stream_output_adapter@_W@__crt_stdio_output@@@2@@__crt_stdio_output@@ABEHH_W@Z 1014b7fe f i libucrt:output.obj
 0001:0014a83e       ?type_case_s_compute_narrow_string_length@?$output_processor@_WV?$stream_output_adapter@_W@__crt_stdio_output@@V?$standard_base@_WV?$stream_output_adapter@_W@__crt_stdio_output@@@2@@__crt_stdio_output@@ABEHH_W@Z 1014b83e f i libucrt:output.obj
 0001:0014a87e       ?type_case_s_compute_narrow_string_length@?$output_processor@_WV?$string_output_adapter@_W@__crt_stdio_output@@V?$format_validation_base@_WV?$string_output_adapter@_W@__crt_stdio_output@@@2@@__crt_stdio_output@@ABEHH_W@Z 1014b87e f i libucrt:output.obj
 0001:0014a8be       ?type_case_s_compute_narrow_string_length@?$output_processor@_WV?$string_output_adapter@_W@__crt_stdio_output@@V?$positional_parameter_base@_WV?$string_output_adapter@_W@__crt_stdio_output@@@2@@__crt_stdio_output@@ABEHH_W@Z 1014b8be f i libucrt:output.obj
 0001:0014a8fe       ?type_case_s_compute_narrow_string_length@?$output_processor@_WV?$string_output_adapter@_W@__crt_stdio_output@@V?$standard_base@_WV?$string_output_adapter@_W@__crt_stdio_output@@@2@@__crt_stdio_output@@ABEHH_W@Z 1014b8fe f i libucrt:output.obj
 0001:0014a93e       ?type_case_u@?$output_processor@DV?$stream_output_adapter@D@__crt_stdio_output@@V?$format_validation_base@DV?$stream_output_adapter@D@__crt_stdio_output@@@2@@__crt_stdio_output@@AAE_NXZ 1014b93e f i libucrt:output.obj
 0001:0014a948       ?type_case_u@?$output_processor@DV?$stream_output_adapter@D@__crt_stdio_output@@V?$positional_parameter_base@DV?$stream_output_adapter@D@__crt_stdio_output@@@2@@__crt_stdio_output@@AAE_NXZ 1014b948 f i libucrt:output.obj
 0001:0014a952       ?type_case_u@?$output_processor@DV?$stream_output_adapter@D@__crt_stdio_output@@V?$standard_base@DV?$stream_output_adapter@D@__crt_stdio_output@@@2@@__crt_stdio_output@@AAE_NXZ 1014b952 f i libucrt:output.obj
 0001:0014a95c       ?type_case_u@?$output_processor@DV?$string_output_adapter@D@__crt_stdio_output@@V?$format_validation_base@DV?$string_output_adapter@D@__crt_stdio_output@@@2@@__crt_stdio_output@@AAE_NXZ 1014b95c f i libucrt:output.obj
 0001:0014a966       ?type_case_u@?$output_processor@DV?$string_output_adapter@D@__crt_stdio_output@@V?$positional_parameter_base@DV?$string_output_adapter@D@__crt_stdio_output@@@2@@__crt_stdio_output@@AAE_NXZ 1014b966 f i libucrt:output.obj
 0001:0014a970       ?type_case_u@?$output_processor@DV?$string_output_adapter@D@__crt_stdio_output@@V?$standard_base@DV?$string_output_adapter@D@__crt_stdio_output@@@2@@__crt_stdio_output@@AAE_NXZ 1014b970 f i libucrt:output.obj
 0001:0014a97a       ?type_case_u@?$output_processor@_WV?$stream_output_adapter@_W@__crt_stdio_output@@V?$format_validation_base@_WV?$stream_output_adapter@_W@__crt_stdio_output@@@2@@__crt_stdio_output@@AAE_NXZ 1014b97a f i libucrt:output.obj
 0001:0014a984       ?type_case_u@?$output_processor@_WV?$stream_output_adapter@_W@__crt_stdio_output@@V?$positional_parameter_base@_WV?$stream_output_adapter@_W@__crt_stdio_output@@@2@@__crt_stdio_output@@AAE_NXZ 1014b984 f i libucrt:output.obj
 0001:0014a98e       ?type_case_u@?$output_processor@_WV?$stream_output_adapter@_W@__crt_stdio_output@@V?$standard_base@_WV?$stream_output_adapter@_W@__crt_stdio_output@@@2@@__crt_stdio_output@@AAE_NXZ 1014b98e f i libucrt:output.obj
 0001:0014a998       ?type_case_u@?$output_processor@_WV?$string_output_adapter@_W@__crt_stdio_output@@V?$format_validation_base@_WV?$string_output_adapter@_W@__crt_stdio_output@@@2@@__crt_stdio_output@@AAE_NXZ 1014b998 f i libucrt:output.obj
 0001:0014a9a2       ?type_case_u@?$output_processor@_WV?$string_output_adapter@_W@__crt_stdio_output@@V?$positional_parameter_base@_WV?$string_output_adapter@_W@__crt_stdio_output@@@2@@__crt_stdio_output@@AAE_NXZ 1014b9a2 f i libucrt:output.obj
 0001:0014a9ac       ?type_case_u@?$output_processor@_WV?$string_output_adapter@_W@__crt_stdio_output@@V?$standard_base@_WV?$string_output_adapter@_W@__crt_stdio_output@@@2@@__crt_stdio_output@@AAE_NXZ 1014b9ac f i libucrt:output.obj
 0001:0014a9b6       ?type_case_x@?$output_processor@DV?$stream_output_adapter@D@__crt_stdio_output@@V?$format_validation_base@DV?$stream_output_adapter@D@__crt_stdio_output@@@2@@__crt_stdio_output@@AAE_NXZ 1014b9b6 f i libucrt:output.obj
 0001:0014a9c0       ?type_case_x@?$output_processor@DV?$stream_output_adapter@D@__crt_stdio_output@@V?$positional_parameter_base@DV?$stream_output_adapter@D@__crt_stdio_output@@@2@@__crt_stdio_output@@AAE_NXZ 1014b9c0 f i libucrt:output.obj
 0001:0014a9ca       ?type_case_x@?$output_processor@DV?$stream_output_adapter@D@__crt_stdio_output@@V?$standard_base@DV?$stream_output_adapter@D@__crt_stdio_output@@@2@@__crt_stdio_output@@AAE_NXZ 1014b9ca f i libucrt:output.obj
 0001:0014a9d4       ?type_case_x@?$output_processor@DV?$string_output_adapter@D@__crt_stdio_output@@V?$format_validation_base@DV?$string_output_adapter@D@__crt_stdio_output@@@2@@__crt_stdio_output@@AAE_NXZ 1014b9d4 f i libucrt:output.obj
 0001:0014a9de       ?type_case_x@?$output_processor@DV?$string_output_adapter@D@__crt_stdio_output@@V?$positional_parameter_base@DV?$string_output_adapter@D@__crt_stdio_output@@@2@@__crt_stdio_output@@AAE_NXZ 1014b9de f i libucrt:output.obj
 0001:0014a9e8       ?type_case_x@?$output_processor@DV?$string_output_adapter@D@__crt_stdio_output@@V?$standard_base@DV?$string_output_adapter@D@__crt_stdio_output@@@2@@__crt_stdio_output@@AAE_NXZ 1014b9e8 f i libucrt:output.obj
 0001:0014a9f2       ?type_case_x@?$output_processor@_WV?$stream_output_adapter@_W@__crt_stdio_output@@V?$format_validation_base@_WV?$stream_output_adapter@_W@__crt_stdio_output@@@2@@__crt_stdio_output@@AAE_NXZ 1014b9f2 f i libucrt:output.obj
 0001:0014a9fc       ?type_case_x@?$output_processor@_WV?$stream_output_adapter@_W@__crt_stdio_output@@V?$positional_parameter_base@_WV?$stream_output_adapter@_W@__crt_stdio_output@@@2@@__crt_stdio_output@@AAE_NXZ 1014b9fc f i libucrt:output.obj
 0001:0014aa06       ?type_case_x@?$output_processor@_WV?$stream_output_adapter@_W@__crt_stdio_output@@V?$standard_base@_WV?$stream_output_adapter@_W@__crt_stdio_output@@@2@@__crt_stdio_output@@AAE_NXZ 1014ba06 f i libucrt:output.obj
 0001:0014aa10       ?type_case_x@?$output_processor@_WV?$string_output_adapter@_W@__crt_stdio_output@@V?$format_validation_base@_WV?$string_output_adapter@_W@__crt_stdio_output@@@2@@__crt_stdio_output@@AAE_NXZ 1014ba10 f i libucrt:output.obj
 0001:0014aa1a       ?type_case_x@?$output_processor@_WV?$string_output_adapter@_W@__crt_stdio_output@@V?$positional_parameter_base@_WV?$string_output_adapter@_W@__crt_stdio_output@@@2@@__crt_stdio_output@@AAE_NXZ 1014ba1a f i libucrt:output.obj
 0001:0014aa24       ?type_case_x@?$output_processor@_WV?$string_output_adapter@_W@__crt_stdio_output@@V?$standard_base@_WV?$string_output_adapter@_W@__crt_stdio_output@@@2@@__crt_stdio_output@@AAE_NXZ 1014ba24 f i libucrt:output.obj
 0001:0014aa2e       ?unset_flag@?$output_processor@DV?$stream_output_adapter@D@__crt_stdio_output@@V?$format_validation_base@DV?$stream_output_adapter@D@__crt_stdio_output@@@2@@__crt_stdio_output@@AAEXI@Z 1014ba2e f i libucrt:output.obj
 0001:0014aa3f       ?unset_flag@?$output_processor@DV?$stream_output_adapter@D@__crt_stdio_output@@V?$positional_parameter_base@DV?$stream_output_adapter@D@__crt_stdio_output@@@2@@__crt_stdio_output@@AAEXI@Z 1014ba3f f i libucrt:output.obj
 0001:0014aa50       ?unset_flag@?$output_processor@DV?$stream_output_adapter@D@__crt_stdio_output@@V?$standard_base@DV?$stream_output_adapter@D@__crt_stdio_output@@@2@@__crt_stdio_output@@AAEXI@Z 1014ba50 f i libucrt:output.obj
 0001:0014aa61       ?unset_flag@?$output_processor@DV?$string_output_adapter@D@__crt_stdio_output@@V?$format_validation_base@DV?$string_output_adapter@D@__crt_stdio_output@@@2@@__crt_stdio_output@@AAEXI@Z 1014ba61 f i libucrt:output.obj
 0001:0014aa72       ?unset_flag@?$output_processor@DV?$string_output_adapter@D@__crt_stdio_output@@V?$positional_parameter_base@DV?$string_output_adapter@D@__crt_stdio_output@@@2@@__crt_stdio_output@@AAEXI@Z 1014ba72 f i libucrt:output.obj
 0001:0014aa83       ?unset_flag@?$output_processor@DV?$string_output_adapter@D@__crt_stdio_output@@V?$standard_base@DV?$string_output_adapter@D@__crt_stdio_output@@@2@@__crt_stdio_output@@AAEXI@Z 1014ba83 f i libucrt:output.obj
 0001:0014aa94       ?unset_flag@?$output_processor@_WV?$stream_output_adapter@_W@__crt_stdio_output@@V?$format_validation_base@_WV?$stream_output_adapter@_W@__crt_stdio_output@@@2@@__crt_stdio_output@@AAEXI@Z 1014ba94 f i libucrt:output.obj
 0001:0014aaa5       ?unset_flag@?$output_processor@_WV?$stream_output_adapter@_W@__crt_stdio_output@@V?$positional_parameter_base@_WV?$stream_output_adapter@_W@__crt_stdio_output@@@2@@__crt_stdio_output@@AAEXI@Z 1014baa5 f i libucrt:output.obj
 0001:0014aab6       ?unset_flag@?$output_processor@_WV?$stream_output_adapter@_W@__crt_stdio_output@@V?$standard_base@_WV?$stream_output_adapter@_W@__crt_stdio_output@@@2@@__crt_stdio_output@@AAEXI@Z 1014bab6 f i libucrt:output.obj
 0001:0014aac7       ?unset_flag@?$output_processor@_WV?$string_output_adapter@_W@__crt_stdio_output@@V?$format_validation_base@_WV?$string_output_adapter@_W@__crt_stdio_output@@@2@@__crt_stdio_output@@AAEXI@Z 1014bac7 f i libucrt:output.obj
 0001:0014aad8       ?unset_flag@?$output_processor@_WV?$string_output_adapter@_W@__crt_stdio_output@@V?$positional_parameter_base@_WV?$string_output_adapter@_W@__crt_stdio_output@@@2@@__crt_stdio_output@@AAEXI@Z 1014bad8 f i libucrt:output.obj
 0001:0014aae9       ?unset_flag@?$output_processor@_WV?$string_output_adapter@_W@__crt_stdio_output@@V?$standard_base@_WV?$string_output_adapter@_W@__crt_stdio_output@@@2@@__crt_stdio_output@@AAEXI@Z 1014bae9 f i libucrt:output.obj
 0001:0014aafa       ?update_field_width@?$positional_parameter_base@DV?$stream_output_adapter@D@__crt_stdio_output@@@__crt_stdio_output@@IAE_NXZ 1014bafa f i libucrt:output.obj
 0001:0014abb0       ?update_field_width@?$positional_parameter_base@DV?$string_output_adapter@D@__crt_stdio_output@@@__crt_stdio_output@@IAE_NXZ 1014bbb0 f i libucrt:output.obj
 0001:0014ac66       ?update_field_width@?$positional_parameter_base@_WV?$stream_output_adapter@_W@__crt_stdio_output@@@__crt_stdio_output@@IAE_NXZ 1014bc66 f i libucrt:output.obj
 0001:0014ad1d       ?update_field_width@?$positional_parameter_base@_WV?$string_output_adapter@_W@__crt_stdio_output@@@__crt_stdio_output@@IAE_NXZ 1014bd1d f i libucrt:output.obj
 0001:0014add4       ?update_field_width@?$standard_base@DV?$stream_output_adapter@D@__crt_stdio_output@@@__crt_stdio_output@@IAE_NXZ 1014bdd4 f i libucrt:output.obj
 0001:0014ade4       ?update_field_width@?$standard_base@DV?$string_output_adapter@D@__crt_stdio_output@@@__crt_stdio_output@@IAE_NXZ 1014bde4 f i libucrt:output.obj
 0001:0014adf4       ?update_field_width@?$standard_base@_WV?$stream_output_adapter@_W@__crt_stdio_output@@@__crt_stdio_output@@IAE_NXZ 1014bdf4 f i libucrt:output.obj
 0001:0014ae04       ?update_field_width@?$standard_base@_WV?$string_output_adapter@_W@__crt_stdio_output@@@__crt_stdio_output@@IAE_NXZ 1014be04 f i libucrt:output.obj
 0001:0014ae14       ?update_precision@?$positional_parameter_base@DV?$stream_output_adapter@D@__crt_stdio_output@@@__crt_stdio_output@@IAE_NXZ 1014be14 f i libucrt:output.obj
 0001:0014aeca       ?update_precision@?$positional_parameter_base@DV?$string_output_adapter@D@__crt_stdio_output@@@__crt_stdio_output@@IAE_NXZ 1014beca f i libucrt:output.obj
 0001:0014af80       ?update_precision@?$positional_parameter_base@_WV?$stream_output_adapter@_W@__crt_stdio_output@@@__crt_stdio_output@@IAE_NXZ 1014bf80 f i libucrt:output.obj
 0001:0014b037       ?update_precision@?$positional_parameter_base@_WV?$string_output_adapter@_W@__crt_stdio_output@@@__crt_stdio_output@@IAE_NXZ 1014c037 f i libucrt:output.obj
 0001:0014b0ee       ?update_precision@?$standard_base@DV?$stream_output_adapter@D@__crt_stdio_output@@@__crt_stdio_output@@IAE_NXZ 1014c0ee f i libucrt:output.obj
 0001:0014b0fe       ?update_precision@?$standard_base@DV?$string_output_adapter@D@__crt_stdio_output@@@__crt_stdio_output@@IAE_NXZ 1014c0fe f i libucrt:output.obj
 0001:0014b10e       ?update_precision@?$standard_base@_WV?$stream_output_adapter@_W@__crt_stdio_output@@@__crt_stdio_output@@IAE_NXZ 1014c10e f i libucrt:output.obj
 0001:0014b11e       ?update_precision@?$standard_base@_WV?$string_output_adapter@_W@__crt_stdio_output@@@__crt_stdio_output@@IAE_NXZ 1014c11e f i libucrt:output.obj
 0001:0014b12e       ?valid@__crt_stdio_stream@@QBE_NXZ 1014c12e f i libucrt:output.obj
 0001:0014b136       ?validate@?$stream_output_adapter@D@__crt_stdio_output@@QBE_NXZ 1014c136 f i libucrt:output.obj
 0001:0014b157       ?validate@?$stream_output_adapter@_W@__crt_stdio_output@@QBE_NXZ 1014c157 f i libucrt:output.obj
 0001:0014b172       ?validate@?$string_output_adapter@D@__crt_stdio_output@@QBE_NXZ 1014c172 f i libucrt:output.obj
 0001:0014b18d       ?validate@?$string_output_adapter@_W@__crt_stdio_output@@QBE_NXZ 1014c18d f i libucrt:output.obj
 0001:0014b1a8       ?validate_and_store_parameter_data@?$positional_parameter_base@DV?$stream_output_adapter@D@__crt_stdio_output@@@__crt_stdio_output@@AAE_NAAUparameter_data@12@W4parameter_type@12@DW4length_modifier@2@@Z 1014c1a8 f i libucrt:output.obj
 0001:0014b1f3       ?validate_and_store_parameter_data@?$positional_parameter_base@DV?$string_output_adapter@D@__crt_stdio_output@@@__crt_stdio_output@@AAE_NAAUparameter_data@12@W4parameter_type@12@DW4length_modifier@2@@Z 1014c1f3 f i libucrt:output.obj
 0001:0014b23e       ?validate_and_store_parameter_data@?$positional_parameter_base@_WV?$stream_output_adapter@_W@__crt_stdio_output@@@__crt_stdio_output@@AAE_NAAUparameter_data@12@W4parameter_type@12@_WW4length_modifier@2@@Z 1014c23e f i libucrt:output.obj
 0001:0014b28b       ?validate_and_store_parameter_data@?$positional_parameter_base@_WV?$string_output_adapter@_W@__crt_stdio_output@@@__crt_stdio_output@@AAE_NAAUparameter_data@12@W4parameter_type@12@_WW4length_modifier@2@@Z 1014c28b f i libucrt:output.obj
 0001:0014b2d8       ?validate_and_update_state_at_beginning_of_format_character@?$positional_parameter_base@DV?$stream_output_adapter@D@__crt_stdio_output@@@__crt_stdio_output@@IAE_NXZ 1014c2d8 f i libucrt:output.obj
 0001:0014b3d0       ?validate_and_update_state_at_beginning_of_format_character@?$positional_parameter_base@DV?$string_output_adapter@D@__crt_stdio_output@@@__crt_stdio_output@@IAE_NXZ 1014c3d0 f i libucrt:output.obj
 0001:0014b4c8       ?validate_and_update_state_at_beginning_of_format_character@?$positional_parameter_base@_WV?$stream_output_adapter@_W@__crt_stdio_output@@@__crt_stdio_output@@IAE_NXZ 1014c4c8 f i libucrt:output.obj
 0001:0014b5ca       ?validate_and_update_state_at_beginning_of_format_character@?$positional_parameter_base@_WV?$string_output_adapter@_W@__crt_stdio_output@@@__crt_stdio_output@@IAE_NXZ 1014c5ca f i libucrt:output.obj
 0001:0014b6cc       ?validate_and_update_state_at_beginning_of_format_character@?$standard_base@DV?$stream_output_adapter@D@__crt_stdio_output@@@__crt_stdio_output@@IAE_NXZ 1014c6cc f i libucrt:output.obj
 0001:0014b6cf       ?validate_and_update_state_at_beginning_of_format_character@?$standard_base@DV?$string_output_adapter@D@__crt_stdio_output@@@__crt_stdio_output@@IAE_NXZ 1014c6cf f i libucrt:output.obj
 0001:0014b6d2       ?validate_and_update_state_at_beginning_of_format_character@?$standard_base@_WV?$stream_output_adapter@_W@__crt_stdio_output@@@__crt_stdio_output@@IAE_NXZ 1014c6d2 f i libucrt:output.obj
 0001:0014b6d5       ?validate_and_update_state_at_beginning_of_format_character@?$standard_base@_WV?$string_output_adapter@_W@__crt_stdio_output@@@__crt_stdio_output@@IAE_NXZ 1014c6d5 f i libucrt:output.obj
 0001:0014b6d8       ?validate_and_update_state_at_end_of_format_string@?$format_validation_base@DV?$stream_output_adapter@D@__crt_stdio_output@@@__crt_stdio_output@@IBE_NXZ 1014c6d8 f i libucrt:output.obj
 0001:0014b6fa       ?validate_and_update_state_at_end_of_format_string@?$format_validation_base@DV?$string_output_adapter@D@__crt_stdio_output@@@__crt_stdio_output@@IBE_NXZ 1014c6fa f i libucrt:output.obj
 0001:0014b71c       ?validate_and_update_state_at_end_of_format_string@?$format_validation_base@_WV?$stream_output_adapter@_W@__crt_stdio_output@@@__crt_stdio_output@@IBE_NXZ 1014c71c f i libucrt:output.obj
 0001:0014b73e       ?validate_and_update_state_at_end_of_format_string@?$format_validation_base@_WV?$string_output_adapter@_W@__crt_stdio_output@@@__crt_stdio_output@@IBE_NXZ 1014c73e f i libucrt:output.obj
 0001:0014b760       ?validate_and_update_state_at_end_of_format_string@?$positional_parameter_base@DV?$stream_output_adapter@D@__crt_stdio_output@@@__crt_stdio_output@@IAE_NXZ 1014c760 f i libucrt:output.obj
 0001:0014b7e0       ?validate_and_update_state_at_end_of_format_string@?$positional_parameter_base@DV?$string_output_adapter@D@__crt_stdio_output@@@__crt_stdio_output@@IAE_NXZ 1014c7e0 f i libucrt:output.obj
 0001:0014b860       ?validate_and_update_state_at_end_of_format_string@?$positional_parameter_base@_WV?$stream_output_adapter@_W@__crt_stdio_output@@@__crt_stdio_output@@IAE_NXZ 1014c860 f i libucrt:output.obj
 0001:0014b8e0       ?validate_and_update_state_at_end_of_format_string@?$positional_parameter_base@_WV?$string_output_adapter@_W@__crt_stdio_output@@@__crt_stdio_output@@IAE_NXZ 1014c8e0 f i libucrt:output.obj
 0001:0014b960       ?validate_and_update_state_at_end_of_format_string@?$standard_base@DV?$stream_output_adapter@D@__crt_stdio_output@@@__crt_stdio_output@@IBE_NXZ 1014c960 f i libucrt:output.obj
 0001:0014b963       ?validate_and_update_state_at_end_of_format_string@?$standard_base@DV?$string_output_adapter@D@__crt_stdio_output@@@__crt_stdio_output@@IBE_NXZ 1014c963 f i libucrt:output.obj
 0001:0014b966       ?validate_and_update_state_at_end_of_format_string@?$standard_base@_WV?$stream_output_adapter@_W@__crt_stdio_output@@@__crt_stdio_output@@IBE_NXZ 1014c966 f i libucrt:output.obj
 0001:0014b969       ?validate_and_update_state_at_end_of_format_string@?$standard_base@_WV?$string_output_adapter@_W@__crt_stdio_output@@@__crt_stdio_output@@IBE_NXZ 1014c969 f i libucrt:output.obj
 0001:0014b96c       ?validate_state_for_type_case_a@?$positional_parameter_base@DV?$stream_output_adapter@D@__crt_stdio_output@@@__crt_stdio_output@@IAE_NXZ 1014c96c f i libucrt:output.obj
 0001:0014b9bf       ?validate_state_for_type_case_a@?$positional_parameter_base@DV?$string_output_adapter@D@__crt_stdio_output@@@__crt_stdio_output@@IAE_NXZ 1014c9bf f i libucrt:output.obj
 0001:0014ba12       ?validate_state_for_type_case_a@?$positional_parameter_base@_WV?$stream_output_adapter@_W@__crt_stdio_output@@@__crt_stdio_output@@IAE_NXZ 1014ca12 f i libucrt:output.obj
 0001:0014ba65       ?validate_state_for_type_case_a@?$positional_parameter_base@_WV?$string_output_adapter@_W@__crt_stdio_output@@@__crt_stdio_output@@IAE_NXZ 1014ca65 f i libucrt:output.obj
 0001:0014bab8       ?validate_state_for_type_case_a@?$standard_base@DV?$stream_output_adapter@D@__crt_stdio_output@@@__crt_stdio_output@@IBE_NXZ 1014cab8 f i libucrt:output.obj
 0001:0014babb       ?validate_state_for_type_case_a@?$standard_base@DV?$string_output_adapter@D@__crt_stdio_output@@@__crt_stdio_output@@IBE_NXZ 1014cabb f i libucrt:output.obj
 0001:0014babe       ?validate_state_for_type_case_a@?$standard_base@_WV?$stream_output_adapter@_W@__crt_stdio_output@@@__crt_stdio_output@@IBE_NXZ 1014cabe f i libucrt:output.obj
 0001:0014bac1       ?validate_state_for_type_case_a@?$standard_base@_WV?$string_output_adapter@_W@__crt_stdio_output@@@__crt_stdio_output@@IBE_NXZ 1014cac1 f i libucrt:output.obj
 0001:0014bac4       ?validate_stream_is_ansi_if_required@?$__acrt_stdio_char_traits@D@@SA_NQAU_iobuf@@@Z 1014cac4 f i libucrt:output.obj
 0001:0014bb46       ?validate_stream_is_ansi_if_required@?$__acrt_stdio_char_traits@_W@@SA_NQAU_iobuf@@@Z 1014cb46 f i libucrt:output.obj
 0001:0014bb49       ?wide_null_string@?$output_processor@DV?$stream_output_adapter@D@__crt_stdio_output@@V?$format_validation_base@DV?$stream_output_adapter@D@__crt_stdio_output@@@2@@__crt_stdio_output@@CAPA_WXZ 1014cb49 f i libucrt:output.obj
 0001:0014bb4f       ?wide_null_string@?$output_processor@DV?$stream_output_adapter@D@__crt_stdio_output@@V?$positional_parameter_base@DV?$stream_output_adapter@D@__crt_stdio_output@@@2@@__crt_stdio_output@@CAPA_WXZ 1014cb4f f i libucrt:output.obj
 0001:0014bb55       ?wide_null_string@?$output_processor@DV?$stream_output_adapter@D@__crt_stdio_output@@V?$standard_base@DV?$stream_output_adapter@D@__crt_stdio_output@@@2@@__crt_stdio_output@@CAPA_WXZ 1014cb55 f i libucrt:output.obj
 0001:0014bb5b       ?wide_null_string@?$output_processor@DV?$string_output_adapter@D@__crt_stdio_output@@V?$format_validation_base@DV?$string_output_adapter@D@__crt_stdio_output@@@2@@__crt_stdio_output@@CAPA_WXZ 1014cb5b f i libucrt:output.obj
 0001:0014bb61       ?wide_null_string@?$output_processor@DV?$string_output_adapter@D@__crt_stdio_output@@V?$positional_parameter_base@DV?$string_output_adapter@D@__crt_stdio_output@@@2@@__crt_stdio_output@@CAPA_WXZ 1014cb61 f i libucrt:output.obj
 0001:0014bb67       ?wide_null_string@?$output_processor@DV?$string_output_adapter@D@__crt_stdio_output@@V?$standard_base@DV?$string_output_adapter@D@__crt_stdio_output@@@2@@__crt_stdio_output@@CAPA_WXZ 1014cb67 f i libucrt:output.obj
 0001:0014bb6d       ?wide_null_string@?$output_processor@_WV?$stream_output_adapter@_W@__crt_stdio_output@@V?$format_validation_base@_WV?$stream_output_adapter@_W@__crt_stdio_output@@@2@@__crt_stdio_output@@CAPA_WXZ 1014cb6d f i libucrt:output.obj
 0001:0014bb73       ?wide_null_string@?$output_processor@_WV?$stream_output_adapter@_W@__crt_stdio_output@@V?$positional_parameter_base@_WV?$stream_output_adapter@_W@__crt_stdio_output@@@2@@__crt_stdio_output@@CAPA_WXZ 1014cb73 f i libucrt:output.obj
 0001:0014bb79       ?wide_null_string@?$output_processor@_WV?$stream_output_adapter@_W@__crt_stdio_output@@V?$standard_base@_WV?$stream_output_adapter@_W@__crt_stdio_output@@@2@@__crt_stdio_output@@CAPA_WXZ 1014cb79 f i libucrt:output.obj
 0001:0014bb7f       ?wide_null_string@?$output_processor@_WV?$string_output_adapter@_W@__crt_stdio_output@@V?$format_validation_base@_WV?$string_output_adapter@_W@__crt_stdio_output@@@2@@__crt_stdio_output@@CAPA_WXZ 1014cb7f f i libucrt:output.obj
 0001:0014bb85       ?wide_null_string@?$output_processor@_WV?$string_output_adapter@_W@__crt_stdio_output@@V?$positional_parameter_base@_WV?$string_output_adapter@_W@__crt_stdio_output@@@2@@__crt_stdio_output@@CAPA_WXZ 1014cb85 f i libucrt:output.obj
 0001:0014bb8b       ?wide_null_string@?$output_processor@_WV?$string_output_adapter@_W@__crt_stdio_output@@V?$standard_base@_WV?$string_output_adapter@_W@__crt_stdio_output@@@2@@__crt_stdio_output@@CAPA_WXZ 1014cb8b f i libucrt:output.obj
 0001:0014bb91       ?write_character@?$stream_output_adapter@D@__crt_stdio_output@@QBEXDQAH@Z 1014cb91 f i libucrt:output.obj
 0001:0014bbce       ?write_character@?$stream_output_adapter@_W@__crt_stdio_output@@QBEX_WQAH@Z 1014cbce f i libucrt:output.obj
 0001:0014bc0e       ?write_character@?$string_output_adapter@D@__crt_stdio_output@@QBE_NDQAH@Z 1014cc0e f i libucrt:output.obj
 0001:0014bc50       ?write_character@?$string_output_adapter@_W@__crt_stdio_output@@QBE_N_WQAH@Z 1014cc50 f i libucrt:output.obj
 0001:0014bc95       ?write_stored_string_tchar@?$output_processor@DV?$stream_output_adapter@D@__crt_stdio_output@@V?$format_validation_base@DV?$stream_output_adapter@D@__crt_stdio_output@@@2@@__crt_stdio_output@@AAE_ND@Z 1014cc95 f i libucrt:output.obj
 0001:0014bd3c       ?write_stored_string_tchar@?$output_processor@DV?$stream_output_adapter@D@__crt_stdio_output@@V?$positional_parameter_base@DV?$stream_output_adapter@D@__crt_stdio_output@@@2@@__crt_stdio_output@@AAE_ND@Z 1014cd3c f i libucrt:output.obj
 0001:0014bde3       ?write_stored_string_tchar@?$output_processor@DV?$stream_output_adapter@D@__crt_stdio_output@@V?$standard_base@DV?$stream_output_adapter@D@__crt_stdio_output@@@2@@__crt_stdio_output@@AAE_ND@Z 1014cde3 f i libucrt:output.obj
 0001:0014be8a       ?write_stored_string_tchar@?$output_processor@DV?$string_output_adapter@D@__crt_stdio_output@@V?$format_validation_base@DV?$string_output_adapter@D@__crt_stdio_output@@@2@@__crt_stdio_output@@AAE_ND@Z 1014ce8a f i libucrt:output.obj
 0001:0014bf31       ?write_stored_string_tchar@?$output_processor@DV?$string_output_adapter@D@__crt_stdio_output@@V?$positional_parameter_base@DV?$string_output_adapter@D@__crt_stdio_output@@@2@@__crt_stdio_output@@AAE_ND@Z 1014cf31 f i libucrt:output.obj
 0001:0014bfd8       ?write_stored_string_tchar@?$output_processor@DV?$string_output_adapter@D@__crt_stdio_output@@V?$standard_base@DV?$string_output_adapter@D@__crt_stdio_output@@@2@@__crt_stdio_output@@AAE_ND@Z 1014cfd8 f i libucrt:output.obj
 0001:0014c07f       ?write_stored_string_tchar@?$output_processor@_WV?$stream_output_adapter@_W@__crt_stdio_output@@V?$format_validation_base@_WV?$stream_output_adapter@_W@__crt_stdio_output@@@2@@__crt_stdio_output@@AAE_N_W@Z 1014d07f f i libucrt:output.obj
 0001:0014c10a       ?write_stored_string_tchar@?$output_processor@_WV?$stream_output_adapter@_W@__crt_stdio_output@@V?$positional_parameter_base@_WV?$stream_output_adapter@_W@__crt_stdio_output@@@2@@__crt_stdio_output@@AAE_N_W@Z 1014d10a f i libucrt:output.obj
 0001:0014c195       ?write_stored_string_tchar@?$output_processor@_WV?$stream_output_adapter@_W@__crt_stdio_output@@V?$standard_base@_WV?$stream_output_adapter@_W@__crt_stdio_output@@@2@@__crt_stdio_output@@AAE_N_W@Z 1014d195 f i libucrt:output.obj
 0001:0014c220       ?write_stored_string_tchar@?$output_processor@_WV?$string_output_adapter@_W@__crt_stdio_output@@V?$format_validation_base@_WV?$string_output_adapter@_W@__crt_stdio_output@@@2@@__crt_stdio_output@@AAE_N_W@Z 1014d220 f i libucrt:output.obj
 0001:0014c2ab       ?write_stored_string_tchar@?$output_processor@_WV?$string_output_adapter@_W@__crt_stdio_output@@V?$positional_parameter_base@_WV?$string_output_adapter@_W@__crt_stdio_output@@@2@@__crt_stdio_output@@AAE_N_W@Z 1014d2ab f i libucrt:output.obj
 0001:0014c336       ?write_stored_string_tchar@?$output_processor@_WV?$string_output_adapter@_W@__crt_stdio_output@@V?$standard_base@_WV?$string_output_adapter@_W@__crt_stdio_output@@@2@@__crt_stdio_output@@AAE_N_W@Z 1014d336 f i libucrt:output.obj
 0001:0014c3c1       ?write_string@?$stream_output_adapter@D@__crt_stdio_output@@QBEXQBDHQAH1@Z 1014d3c1 f i libucrt:output.obj
